
8aaaf200-2450-11e4-abe2-0002a5d5c51b.elf:     file format elf64-littleaarch64
8aaaf200-2450-11e4-abe2-0002a5d5c51b.elf
architecture: aarch64, flags 0x00000150:
HAS_SYMS, DYNAMIC, D_PAGED
start address 0x0000000000000020

Program Header:
    LOAD off    0x0000000000010000 vaddr 0x0000000000000000 paddr 0x0000000000000000 align 2**16
         filesz 0x0000000000008294 memsz 0x0000000000008294 flags r-x
    LOAD off    0x0000000000018298 vaddr 0x0000000000008298 paddr 0x0000000000008298 align 2**16
         filesz 0x0000000000002de0 memsz 0x0000000000002de0 flags r--
    LOAD off    0x000000000001c000 vaddr 0x000000000000c000 paddr 0x000000000000c000 align 2**16
         filesz 0x000000000000012c memsz 0x000000000000a1d8 flags rw-
 DYNAMIC off    0x000000000001af00 vaddr 0x000000000000af00 paddr 0x000000000000af00 align 2**3
         filesz 0x0000000000000110 memsz 0x0000000000000110 flags rw-

Dynamic Section:
  HASH                 0x000000000000b060
  GNU_HASH             0x000000000000ab18
  STRTAB               0x000000000000b058
  SYMTAB               0x000000000000b010
  STRSZ                0x0000000000000001
  SYMENT               0x0000000000000018
  DEBUG                0x0000000000000000
  RELA                 0x000000000000ab38
  RELASZ               0x0000000000000348
  RELAENT              0x0000000000000018
  FLAGS_1              0x0000000008000000
  RELACOUNT            0x0000000000000017
private flags = 0:

Sections:
Idx Name          Size      VMA               LMA               File off  Algn
  0 .ta_head      00000020  0000000000000000  0000000000000000  00010000  2**3
                  CONTENTS, ALLOC, LOAD, DATA
  1 .text         00008274  0000000000000020  0000000000000020  00010020  2**2
                  CONTENTS, ALLOC, LOAD, READONLY, CODE
  2 .eh_frame     00001838  0000000000008298  0000000000008298  00018298  2**3
                  CONTENTS, ALLOC, LOAD, READONLY, DATA
  3 .rodata       00001046  0000000000009ad0  0000000000009ad0  00019ad0  2**3
                  CONTENTS, ALLOC, LOAD, READONLY, DATA
  4 .gnu.hash     0000001c  000000000000ab18  000000000000ab18  0001ab18  2**3
                  CONTENTS, ALLOC, LOAD, READONLY, DATA
  5 .dynsym       00000048  000000000000b010  000000000000b010  0001b010  2**3
                  CONTENTS, ALLOC, LOAD, READONLY, DATA
  6 .rela.dyn     00000228  000000000000ab38  000000000000ab38  0001ab38  2**3
                  CONTENTS, ALLOC, LOAD, READONLY, DATA
  7 .got          00000080  000000000000ad60  000000000000ad60  0001ad60  2**3
                  CONTENTS, ALLOC, LOAD, DATA
  8 .rela.got     00000120  000000000000ade0  000000000000ade0  0001ade0  2**3
                  CONTENTS, ALLOC, LOAD, READONLY, DATA
  9 .dynamic      00000110  000000000000af00  000000000000af00  0001af00  2**3
                  CONTENTS, ALLOC, LOAD, DATA
 10 .dynstr       00000001  000000000000b058  000000000000b058  0001b058  2**0
                  CONTENTS, ALLOC, LOAD, READONLY, DATA
 11 .hash         00000018  000000000000b060  000000000000b060  0001b060  2**3
                  CONTENTS, ALLOC, LOAD, READONLY, DATA
 12 .data         0000012c  000000000000c000  000000000000c000  0001c000  2**3
                  CONTENTS, ALLOC, LOAD, DATA
 13 .bss          0000a0a8  000000000000c130  000000000000c130  0001c12c  2**3
                  ALLOC
 14 .debug_info   0001028a  0000000000000000  0000000000000000  0001c12c  2**0
                  CONTENTS, READONLY, DEBUGGING
 15 .debug_abbrev 000027a5  0000000000000000  0000000000000000  0002c3b6  2**0
                  CONTENTS, READONLY, DEBUGGING
 16 .debug_loc    00018668  0000000000000000  0000000000000000  0002eb5b  2**0
                  CONTENTS, READONLY, DEBUGGING
 17 .debug_aranges 000007a0  0000000000000000  0000000000000000  000471d0  2**4
                  CONTENTS, READONLY, DEBUGGING
 18 .debug_ranges 00001200  0000000000000000  0000000000000000  00047970  2**4
                  CONTENTS, READONLY, DEBUGGING
 19 .debug_macro  0000e8bd  0000000000000000  0000000000000000  00048b70  2**0
                  CONTENTS, READONLY, DEBUGGING
 20 .debug_line   00008d18  0000000000000000  0000000000000000  0005742d  2**0
                  CONTENTS, READONLY, DEBUGGING
 21 .debug_str    000109e1  0000000000000000  0000000000000000  00060145  2**0
                  CONTENTS, READONLY, DEBUGGING
 22 .comment      0000005e  0000000000000000  0000000000000000  00070b26  2**0
                  CONTENTS, READONLY
SYMBOL TABLE:
0000000000000000 l    d  .ta_head	0000000000000000 .ta_head
0000000000000020 l    d  .text	0000000000000000 .text
0000000000008298 l    d  .eh_frame	0000000000000000 .eh_frame
0000000000009ad0 l    d  .rodata	0000000000000000 .rodata
000000000000ab18 l    d  .gnu.hash	0000000000000000 .gnu.hash
000000000000ab38 l    d  .rela.dyn	0000000000000000 .rela.dyn
000000000000ad60 l    d  .got	0000000000000000 .got
000000000000ade0 l    d  .rela.got	0000000000000000 .rela.got
000000000000af00 l    d  .dynamic	0000000000000000 .dynamic
000000000000b010 l    d  .dynsym	0000000000000000 .dynsym
000000000000b058 l    d  .dynstr	0000000000000000 .dynstr
000000000000b060 l    d  .hash	0000000000000000 .hash
000000000000c000 l    d  .data	0000000000000000 .data
000000000000c130 l    d  .bss	0000000000000000 .bss
0000000000000000 l    d  .debug_info	0000000000000000 .debug_info
0000000000000000 l    d  .debug_abbrev	0000000000000000 .debug_abbrev
0000000000000000 l    d  .debug_loc	0000000000000000 .debug_loc
0000000000000000 l    d  .debug_aranges	0000000000000000 .debug_aranges
0000000000000000 l    d  .debug_ranges	0000000000000000 .debug_ranges
0000000000000000 l    d  .debug_macro	0000000000000000 .debug_macro
0000000000000000 l    d  .debug_line	0000000000000000 .debug_line
0000000000000000 l    d  .debug_str	0000000000000000 .debug_str
0000000000000000 l    d  .comment	0000000000000000 .comment
0000000000000000 l    df *ABS*	0000000000000000 user_ta_header.c
0000000000009ad8 l     O .rodata	0000000000000004 __compound_literal.5
0000000000009adc l     O .rodata	0000000000000004 __compound_literal.4
0000000000009ae0 l     O .rodata	0000000000000004 __compound_literal.3
0000000000009ae4 l     O .rodata	0000000000000001 __compound_literal.2
0000000000009ae5 l     O .rodata	0000000000000001 __compound_literal.1
0000000000009ae6 l     O .rodata	0000000000000001 __compound_literal.0
0000000000000000 l    df *ABS*	0000000000000000 hello_world_ta.c
0000000000000000 l    df *ABS*	0000000000000000 user_ta_entry.c
000000000000008c l     F .text	0000000000000028 ta_header_get_session
00000000000000b4 l     F .text	0000000000000094 ta_header_remove_session
00000000000161d0 l     O .bss	0000000000000001 init_done
000000000000c0e0 l     O .data	0000000000000010 ta_sessions
0000000000000000 l    df *ABS*	0000000000000000 utee_syscalls_a64.o
0000000000000000 l    df *ABS*	0000000000000000 gprof_a64.o
0000000000000000 l    df *ABS*	0000000000000000 tee_api.c
000000000000c178 l     O .bss	0000000000000008 tee_api_instance_data
0000000000009b03 l     O .rodata	000000000000000b __func__.4643
0000000000000000 l    df *ABS*	0000000000000000 tee_api_panic.c
0000000000000000 l    df *ABS*	0000000000000000 tee_api_arith_mpi.c
0000000000000ac8 l     F .text	0000000000000030 api_panic
0000000000000af8 l     F .text	0000000000000030 mpi_panic
0000000000000b28 l     F .text	0000000000000060 get_const_mpi
0000000000000b88 l     F .text	0000000000000020 mpi_is_odd
0000000000000ba8 l     F .text	0000000000000028 rng_read
0000000000000bd0 l     F .text	000000000000002c put_mpi
0000000000000bfc l     F .text	0000000000000018 get_mpi
0000000000000c14 l     F .text	00000000000000fc bigint_binary
0000000000000d10 l     F .text	000000000000054c mpi_egcd
000000000000c1d0 l     O .bss	0000000000002000 data.4643
00000000000015b4 l     F .text	0000000000000170 bigint_binary_mod
0000000000009f0d l     O .rodata	000000000000000e __func__.4672
0000000000009f1b l     O .rodata	000000000000000e __func__.4771
0000000000009f29 l     O .rodata	0000000000000009 __func__.4911
0000000000009f32 l     O .rodata	0000000000000012 __func__.4644
0000000000009f44 l     O .rodata	000000000000000f __func__.4682
0000000000009f53 l     O .rodata	000000000000001f __func__.4700
0000000000009f72 l     O .rodata	0000000000000019 __func__.4707
0000000000009f8b l     O .rodata	0000000000000012 __func__.4782
0000000000009f9d l     O .rodata	0000000000000015 __func__.4737
0000000000009fb2 l     O .rodata	000000000000000e __func__.4809
0000000000009fc0 l     O .rodata	000000000000000e __func__.4837
0000000000009fce l     O .rodata	000000000000000e __func__.4843
0000000000009fdc l     O .rodata	0000000000000011 __func__.4872
0000000000009fed l     O .rodata	0000000000000018 __func__.4888
000000000000a005 l     O .rodata	000000000000001d __func__.4968
000000000000a022 l     O .rodata	0000000000000019 __func__.5018
000000000000a03b l     O .rodata	0000000000000015 __func__.5032
0000000000000000 l    df *ABS*	0000000000000000 trace_ext.c
0000000000000000 l    df *ABS*	0000000000000000 bignum.c
000000000000236c l     F .text	0000000000000064 mpi_get_digit
00000000000023d0 l     F .text	0000000000000060 mpi_sub_hlp
0000000000002430 l     F .text	00000000000004d4 mpi_mul_hlp
0000000000002904 l     F .text	0000000000000058 mbedtls_mpi_mod_int.part.3
0000000000004370 l     F .text	00000000000000d4 mpi_write_hlp
0000000000004618 l     F .text	0000000000000088 mpi_check_small_factors
00000000000050a8 l     F .text	0000000000000344 mpi_miller_rabin
0000000000009b10 l     O .rodata	00000000000002a0 small_prime
0000000000009db0 l     O .rodata	0000000000000024 gcd_pairs
0000000000000000 l    df *ABS*	0000000000000000 bget_malloc.c
0000000000005e90 l     F .text	0000000000000040 raw_malloc_return_hook.isra.3
0000000000005ed0 l     F .text	0000000000000110 create_free_block.constprop.11
000000000000a564 l     O .rodata	0000000000000012 __func__.3769
000000000000a576 l     O .rodata	0000000000000005 __func__.3625
000000000000a57b l     O .rodata	0000000000000006 __func__.3640
000000000000a581 l     O .rodata	0000000000000005 __func__.3657
000000000000a586 l     O .rodata	0000000000000006 __func__.3649
000000000000a58c l     O .rodata	0000000000000006 __func__.3666
000000000000a592 l     O .rodata	0000000000000007 __func__.3676
000000000000a599 l     O .rodata	000000000000000d __func__.3805
000000000000a5a6 l     O .rodata	000000000000000c __func__.3779
000000000000a5b2 l     O .rodata	000000000000000b __func__.3790
000000000000a5bd l     O .rodata	0000000000000010 __func__.3857
000000000000a5cd l     O .rodata	000000000000000e __func__.3811
000000000000a5db l     O .rodata	0000000000000013 __func__.3717
000000000000c188 l     O .bss	0000000000000038 mstats
000000000000c1c0 l     O .bss	0000000000000008 malloc_pool_len
000000000000c1c8 l     O .bss	0000000000000008 malloc_pool
000000000000c0f0 l     O .data	0000000000000038 malloc_poolset
0000000000000000 l    df *ABS*	0000000000000000 snprintf.c
0000000000000000 l    df *ABS*	0000000000000000 memcmp.c
0000000000000000 l    df *ABS*	0000000000000000 memcpy.c
0000000000000000 l    df *ABS*	0000000000000000 memmove.c
0000000000000000 l    df *ABS*	0000000000000000 memset.c
0000000000000000 l    df *ABS*	0000000000000000 strlen.c
0000000000000000 l    df *ABS*	0000000000000000 snprintk.c
000000000000a9de l     O .rodata	0000000000000011 hexdigits
000000000000a9ef l     O .rodata	0000000000000011 HEXDIGITS
0000000000000000 l    df *ABS*	0000000000000000 trace.c
000000000000aa38 l     O .rodata	0000000000000005 lvl_strs.3476
0000000000000000 l    df *ABS*	0000000000000000 mempool.c
000000000000aa57 l     O .rodata	0000000000000013 __func__.3533
000000000000aa6a l     O .rodata	000000000000000e __func__.3542
0000000000000000 l    df *ABS*	0000000000000000 memchr.c
0000000000000000 l    df *ABS*	0000000000000000 assert.c
0000000000000000 l    df *ABS*	0000000000000000 
000000000000af00 l     O *ABS*	0000000000000000 _DYNAMIC
000000000000ad78 l     O *ABS*	0000000000000000 _GLOBAL_OFFSET_TABLE_
0000000000002330 g     F .text	000000000000003c putchar
0000000000002080 g     F .text	0000000000000004 TEE_BigIntConvertToFMM
0000000000001c54 g     F .text	000000000000000c TEE_BigIntSquareMod
0000000000001724 g     F .text	0000000000000148 TEE_BigIntShiftRight
0000000000000544 g     F .text	000000000000000c utee_storage_obj_create
0000000000002a4c g     F .text	000000000000012c mbedtls_mpi_grow
000000000000034c g     F .text	000000000000000c utee_return
0000000000000a9c g     F .text	0000000000000008 TEE_Realloc
0000000000002228 g     F .text	00000000000000c8 printf
0000000000000358 g     F .text	000000000000000c utee_log
0000000000000784 g     F .text	00000000000000b0 TEE_InvokeTACommand
0000000000002974 g     F .text	0000000000000030 mbedtls_mpi_init_mempool
0000000000003214 g     F .text	000000000000008c mbedtls_mpi_write_binary
0000000000007d38 g     F .text	0000000000000054 vsnprintk
0000000000003954 g     F .text	000000000000003c mbedtls_mpi_sub_int
0000000000007070 g     F .text	000000000000005c memmove
0000000000006f50 g     F .text	0000000000000078 snprintf
000000000000156c g     F .text	0000000000000048 TEE_BigIntCmpS32
0000000000002b78 g     F .text	000000000000014c mbedtls_mpi_shrink
00000000000018f8 g     F .text	000000000000000c TEE_BigIntAdd
000000000000037c g     F .text	000000000000000c utee_get_property_name_to_index
0000000000009ae8 g     O .rodata	0000000000000008 ta_heap_size
0000000000000400 g     F .text	000000000000000c utee_cryp_state_alloc
0000000000000508 g     F .text	000000000000000c utee_authenc_enc_final
0000000000003b14 g     F .text	00000000000001e4 mbedtls_mpi_read_string
0000000000001910 g     F .text	0000000000000094 TEE_BigIntNeg
0000000000000020 g       .text	0000000000000000 __text_start
000000000000339c g     F .text	00000000000000c8 mbedtls_mpi_shift_r
0000000000006ee4 g     F .text	000000000000006c malloc_buffer_overlaps_heap
0000000000001c3c g     F .text	000000000000000c TEE_BigIntSubMod
00000000000058bc g     F .text	00000000000001f8 mbedtls_mpi_gen_prime
0000000000002fdc g     F .text	000000000000002c mbedtls_mpi_get_bit
0000000000003168 g     F .text	00000000000000ac mbedtls_mpi_read_binary
0000000000007e2c g     F .text	0000000000000238 trace_printf
00000000000046dc g     F .text	0000000000000130 mbedtls_mpi_montmul
0000000000007050 g     F .text	0000000000000020 memcpy
0000000000000418 g     F .text	000000000000000c utee_cryp_state_free
0000000000002084 g     F .text	000000000000007c TEE_BigIntConvertFromFMM
0000000000000ac0 g     F .text	0000000000000008 TEE_Panic
00000000000022f0 g     F .text	0000000000000040 puts
0000000000002100 g     F .text	00000000000000f8 TEE_BigIntComputeFMM
0000000000006710 g     F .text	0000000000000030 malloc_get_stats
0000000000000460 g     F .text	000000000000000c utee_cipher_final
0000000000000a18 g     F .text	0000000000000028 TEE_GetREETime
000000000000c000 g     O .data	00000000000000d8 ta_props
0000000000006740 g     F .text	0000000000000058 malloc
000000000000049c g     F .text	000000000000000c utee_cryp_obj_close
0000000000006fc8 g     F .text	0000000000000054 vsnprintf
000000000000c128 g     O .data	0000000000000004 trace_level
0000000000001504 g     F .text	0000000000000068 TEE_BigIntCmp
0000000000009ad0 g     O .rodata	0000000000000008 ta_num_props
00000000000064c4 g     F .text	00000000000000c8 bgetr
00000000000004fc g     F .text	000000000000000c utee_authenc_update_payload
00000000000081cc g     F .text	0000000000000044 mempool_free
000000000000138c g     F .text	0000000000000094 TEE_BigIntConvertToOctetString
00000000000005e0 g     F .text	000000000000000c utee_cache_operation
00000000000030e8 g     F .text	0000000000000064 mbedtls_mpi_bitlen
00000000000004e4 g     F .text	000000000000000c utee_authenc_init
000000000000186c g     F .text	000000000000004c TEE_BigIntGetBit
0000000000009af0 g     O .rodata	0000000000000003 trace_ext_prefix
00000000000061a0 g     F .text	000000000000008c bgetz
00000000000008d8 g     F .text	000000000000000c TEE_GetInstanceData
0000000000000924 g     F .text	000000000000003c TEE_Wait
00000000000005b0 g     F .text	000000000000000c utee_storage_obj_write
0000000000003990 g     F .text	0000000000000150 mbedtls_mpi_mul_mpi
0000000000000ab0 g     F .text	0000000000000008 TEE_CacheFlush
0000000000000028 g     F .text	0000000000000004 TA_DestroyEntryPoint
000000000000295c g     F .text	0000000000000018 mbedtls_mpi_init
0000000000003094 g     F .text	0000000000000054 mbedtls_mpi_lsb
000000000000823c g     F .text	0000000000000044 _assert_log
0000000000002078 g     F .text	0000000000000008 TEE_BigIntFMMContextSizeInU32
000000000000125c g     F .text	0000000000000050 _TEE_MathAPI_Init
0000000000003814 g     F .text	0000000000000080 mbedtls_mpi_add_mpi
0000000000000598 g     F .text	000000000000000c utee_storage_next_enum
000000000000e1d0 g     O .bss	0000000000008000 ta_heap
0000000000001c60 g     F .text	0000000000000100 TEE_BigIntInvMod
000000000000003c g     F .text	0000000000000004 TA_CloseSessionEntryPoint
0000000000003894 g     F .text	0000000000000084 mbedtls_mpi_sub_mpi
0000000000000364 g     F .text	000000000000000c __utee_panic
000000000000040c g     F .text	000000000000000c utee_cryp_state_copy
0000000000000040 g     F .text	0000000000000044 TA_InvokeCommandEntryPoint
00000000000080d0 g     F .text	00000000000000ac mempool_alloc
0000000000000490 g     F .text	000000000000000c utee_cryp_obj_alloc
00000000000003f4 g     F .text	000000000000000c utee_set_ta_time
0000000000000484 g     F .text	000000000000000c utee_cryp_obj_get_attr
000000000000817c g     F .text	0000000000000050 mempool_calloc
00000000000067ac g     F .text	000000000000006c calloc
0000000000000a40 g     F .text	000000000000005c TEE_Malloc
00000000000003d0 g     F .text	000000000000000c utee_mask_cancellation
00000000000004a8 g     F .text	000000000000000c utee_cryp_obj_reset
00000000000008b8 g     F .text	0000000000000014 TEE_CheckMemoryAccessRights
00000000000161d8 g       .bss	0000000000000000 __gprof_buf_end
0000000000002f70 g     F .text	000000000000006c mbedtls_mpi_lset
000000000000002c g     F .text	0000000000000010 TA_OpenSessionEntryPoint
000000000000058c g     F .text	000000000000000c utee_storage_start_enum
000000000000055c g     F .text	000000000000000c utee_storage_obj_rename
000000000000c130 g     O .bss	0000000000000004 ta_param_types
000000000000422c g     F .text	000000000000003c mbedtls_mpi_div_int
0000000000002010 g     F .text	0000000000000050 TEE_BigIntIsProbablePrime
0000000000003ae0 g     F .text	0000000000000034 mbedtls_mpi_mul_int
0000000000004848 g     F .text	0000000000000638 mbedtls_mpi_exp_mod
0000000000002dd0 g     F .text	00000000000000c0 mbedtls_mpi_safe_cond_assign
0000000000000370 g     F .text	000000000000000c utee_get_property
00000000000012ac g     F .text	0000000000000070 TEE_BigIntInit
00000000000008e4 g     F .text	0000000000000008 TEE_MemMove
000000000000131c g     F .text	0000000000000070 TEE_BigIntConvertFromOctetString
000000000000c0d8 g     O .data	0000000000000008 _ref__utee_mcount
0000000000003464 g     F .text	000000000000009c mbedtls_mpi_cmp_abs
0000000000008210 g     F .text	000000000000002c memchr
0000000000000860 g     F .text	000000000000002c TEE_UnmaskCancellation
0000000000005ab4 g     F .text	00000000000003dc mbedtls_mpi_self_test
0000000000000550 g     F .text	000000000000000c utee_storage_obj_del
00000000000005c8 g     F .text	000000000000000c utee_storage_obj_seek
00000000000035d4 g     F .text	000000000000003c mbedtls_mpi_cmp_int
0000000000000430 g     F .text	000000000000000c utee_hash_update
00000000000005ec  w    F .text	0000000000000004 __utee_mcount
0000000000001bcc g     F .text	0000000000000064 TEE_BigIntMod
000000000000431c g     F .text	0000000000000054 mbedtls_mpi_mod_int
0000000000000394 g     F .text	000000000000000c utee_close_ta_session
0000000000001a94 g     F .text	0000000000000138 TEE_BigIntDiv
0000000000002cc4 g     F .text	00000000000000ac mbedtls_mpi_copy
00000000000066f8 g     F .text	0000000000000018 malloc_reset_stats
0000000000000454 g     F .text	000000000000000c utee_cipher_update
0000000000006818 g     F .text	0000000000000058 realloc
0000000000002d70 g     F .text	0000000000000060 mbedtls_mpi_swap
0000000000008068 g     F .text	0000000000000068 mempool_alloc_pool
000000000000052c g     F .text	000000000000000c utee_asymm_verify
00000000000019a4 g     F .text	00000000000000e8 TEE_BigIntMul
00000000000032a0 g     F .text	00000000000000fc mbedtls_mpi_shift_l
0000000000003500 g     F .text	00000000000000d4 mbedtls_mpi_cmp_mpi
00000000000008f4 g     F .text	0000000000000008 TEE_MemFill
000000000000701c g     F .text	0000000000000034 memcmp
0000000000006c30 g     F .text	0000000000000134 malloc_add_pool
0000000000007e1c g     F .text	0000000000000010 trace_get_level
0000000000003610 g     F .text	000000000000012c mbedtls_mpi_add_abs
00000000000004d8 g     F .text	000000000000000c utee_cryp_random_number_generate
0000000000002068 g     F .text	0000000000000010 TEE_BigIntFMMSizeInU32
0000000000002060 g     F .text	0000000000000004 TEE_BigIntInitFMM
0000000000000520 g     F .text	000000000000000c utee_asymm_operate
0000000000000148 g     F .text	00000000000001f8 __utee_entry
0000000000008294 g       .text	0000000000000000 __text_end
0000000000001d60 g     F .text	00000000000000d4 TEE_BigIntRelativePrime
0000000000004268 g     F .text	00000000000000b4 mbedtls_mpi_mod_mpi
000000000000658c g     F .text	00000000000000d4 bpool
0000000000000834 g     F .text	000000000000002c TEE_GetCancellationFlag
0000000000004e80 g     F .text	00000000000001bc mbedtls_mpi_gcd
00000000000009d4 g     F .text	0000000000000044 TEE_SetTAPersistentTime
00000000000070cc g     F .text	000000000000001c memset
0000000000000960 g     F .text	0000000000000074 TEE_GetTAPersistentTime
0000000000008064 g     F .text	0000000000000004 dhex_dump
000000000000088c g     F .text	000000000000002c TEE_MaskCancellation
00000000000005a4 g     F .text	000000000000000c utee_storage_obj_read
00000000000004b4 g     F .text	000000000000000c utee_cryp_obj_populate
0000000000007e00 g     F .text	000000000000001c trace_set_level
000000000000046c g     F .text	000000000000000c utee_cryp_obj_get_info
0000000000000568 g     F .text	000000000000000c utee_storage_alloc_enum
0000000000000580 g     F .text	000000000000000c utee_storage_reset_enum
00000000000005bc g     F .text	000000000000000c utee_storage_obj_trunc
000000000000147c g     F .text	0000000000000088 TEE_BigIntConvertToS32
0000000000001904 g     F .text	000000000000000c TEE_BigIntSub
00000000000003ac g     F .text	000000000000000c utee_get_cancellation_flag
0000000000000424 g     F .text	000000000000000c utee_hash_init
0000000000000084 g     F .text	0000000000000008 tahead_get_trace_level
00000000000005f0 g     F .text	0000000000000078 __utee_from_param
0000000000000668 g     F .text	000000000000006c __utee_to_param
000000000000480c g     F .text	000000000000003c mbedtls_mpi_montred
0000000000006870 g     F .text	00000000000003c0 memalign
0000000000001420 g     F .text	000000000000005c TEE_BigIntConvertFromS32
0000000000003918 g     F .text	000000000000003c mbedtls_mpi_add_int
0000000000000478 g     F .text	000000000000000c utee_cryp_obj_restrict_usage
0000000000006d64 g     F .text	0000000000000180 malloc_buffer_is_within_alloced
00000000000004c0 g     F .text	000000000000000c utee_cryp_obj_copy
0000000000002064 g     F .text	0000000000000004 TEE_BigIntInitFMMContext
00000000000004cc g     F .text	000000000000000c utee_cryp_derive_key
0000000000000514 g     F .text	000000000000000c utee_authenc_dec_final
0000000000001a8c g     F .text	0000000000000008 TEE_BigIntSquare
0000000000000020 g     F .text	0000000000000008 TA_CreateEntryPoint
0000000000007d8c g     F .text	0000000000000074 snprintk
00000000000046a0 g     F .text	000000000000003c mbedtls_mpi_montg_init
00000000000018b8 g     F .text	0000000000000040 TEE_BigIntGetBitCount
0000000000001c48 g     F .text	000000000000000c TEE_BigIntMulMod
00000000000053ec g     F .text	0000000000000438 mbedtls_mpi_inv_mod
000000000000c138 g     O .bss	0000000000000040 ta_params
0000000000003cf8 g     F .text	0000000000000534 mbedtls_mpi_div_mpi
000000000000314c g     F .text	000000000000001c mbedtls_mpi_size
0000000000005fe0 g     F .text	00000000000001c0 bget
0000000000003008 g     F .text	000000000000008c mbedtls_mpi_set_bit
00000000000029a4 g     F .text	0000000000000020 mbedtls_mpi_init_static
0000000000000aa4 g     F .text	0000000000000004 TEE_Free
0000000000005824 g     F .text	0000000000000098 mbedtls_mpi_is_prime
0000000000000ab8 g     F .text	0000000000000008 TEE_CacheInvalidate
0000000000000448 g     F .text	000000000000000c utee_cipher_init
0000000000008280 g     F .text	0000000000000014 _assert_break
0000000000001c30 g     F .text	000000000000000c TEE_BigIntAddMod
0000000000000574 g     F .text	000000000000000c utee_storage_free_enum
00000000000004f0 g     F .text	000000000000000c utee_authenc_update_aad
00000000000008ec g     F .text	0000000000000008 TEE_MemCompare
0000000000007104 g     F .text	0000000000000c34 __vsnprintf
00000000000006d4 g     F .text	0000000000000088 TEE_OpenTASession
0000000000000340 g     F .text	000000000000000c utee_panic
00000000000021f8 g     F .text	0000000000000028 trace_ext_puts
0000000000002220 g     F .text	0000000000000008 trace_ext_get_thread_id
00000000000029c4 g     F .text	0000000000000088 mbedtls_mpi_free
0000000000000aa8 g     F .text	0000000000000008 TEE_CacheClean
0000000000000388 g     F .text	000000000000000c utee_open_ta_session
0000000000002e90 g     F .text	00000000000000e0 mbedtls_mpi_safe_cond_swap
000000000000043c g     F .text	000000000000000c utee_hash_final
00000000000070e8 g     F .text	000000000000001c strlen
0000000000001e34 g     F .text	00000000000001dc TEE_BigIntComputeExtendedGcd
0000000000000538 g     F .text	000000000000000c utee_storage_obj_open
00000000000003a0 g     F .text	000000000000000c utee_invoke_ta_command
00000000000003dc g     F .text	000000000000000c utee_wait
00000000000008fc g     F .text	0000000000000028 TEE_GetSystemTime
0000000000000000 g     O .ta_head	0000000000000020 ta_head
000000000000622c g     F .text	0000000000000298 brel
000000000000373c g     F .text	00000000000000d8 mbedtls_mpi_sub_abs
00000000000003e8 g     F .text	000000000000000c utee_get_time
000000000000503c g     F .text	000000000000006c mbedtls_mpi_fill_random
00000000000008cc g     F .text	000000000000000c TEE_SetInstanceData
00000000000003c4 g     F .text	000000000000000c utee_unmask_cancellation
00000000000003b8 g     F .text	000000000000000c utee_check_access_rights
0000000000004444 g     F .text	00000000000001d4 mbedtls_mpi_write_string
00000000000005d4 g     F .text	000000000000000c utee_cryp_obj_generate_key
000000000000075c g     F .text	0000000000000028 TEE_CloseTASession
00000000000161d8 g       .bss	0000000000000000 __gprof_buf_start
0000000000006798 g     F .text	0000000000000014 free
0000000000006660 g     F .text	0000000000000098 bstats
000000000000c180 g     O .bss	0000000000000008 mbedtls_mpi_mempool



Disassembly of section .text:

0000000000000020 <TA_CreateEntryPoint>:
TA_CreateEntryPoint():
/home/zrz0517/study/TEE/RT-TEE/optee_examples/hello_world/ta/hello_world_ta.c:42
      20:	52800000 	mov	w0, #0x0                   	// #0
      24:	d65f03c0 	ret

0000000000000028 <TA_DestroyEntryPoint>:
TA_DestroyEntryPoint():
/home/zrz0517/study/TEE/RT-TEE/optee_examples/hello_world/ta/hello_world_ta.c:51
      28:	d65f03c0 	ret

000000000000002c <TA_OpenSessionEntryPoint>:
TA_OpenSessionEntryPoint():
/home/zrz0517/study/TEE/RT-TEE/optee_examples/hello_world/ta/hello_world_ta.c:71
      2c:	7100001f 	cmp	w0, #0x0
/home/zrz0517/study/TEE/RT-TEE/optee_examples/hello_world/ta/hello_world_ta.c:85
      30:	129fff20 	mov	w0, #0xffff0006            	// #-65530
      34:	1a9f1000 	csel	w0, w0, wzr, ne  // ne = any
      38:	d65f03c0 	ret

000000000000003c <TA_CloseSessionEntryPoint>:
TA_CloseSessionEntryPoint():
/home/zrz0517/study/TEE/RT-TEE/optee_examples/hello_world/ta/hello_world_ta.c:95
      3c:	d65f03c0 	ret

0000000000000040 <TA_InvokeCommandEntryPoint>:
TA_InvokeCommandEntryPoint():
/home/zrz0517/study/TEE/RT-TEE/optee_examples/hello_world/ta/hello_world_ta.c:147
      40:	340000a1 	cbz	w1, 54 <TA_InvokeCommandEntryPoint+0x14>
      44:	7100043f 	cmp	w1, #0x1
      48:	54000140 	b.eq	70 <TA_InvokeCommandEntryPoint+0x30>  // b.none
inc_value():
/home/zrz0517/study/TEE/RT-TEE/optee_examples/hello_world/ta/hello_world_ta.c:108
      4c:	129fff20 	mov	w0, #0xffff0006            	// #-65530
      50:	14000007 	b	6c <TA_InvokeCommandEntryPoint+0x2c>
/home/zrz0517/study/TEE/RT-TEE/optee_examples/hello_world/ta/hello_world_ta.c:107
      54:	71000c5f 	cmp	w2, #0x3
      58:	54ffffa1 	b.ne	4c <TA_InvokeCommandEntryPoint+0xc>  // b.any
/home/zrz0517/study/TEE/RT-TEE/optee_examples/hello_world/ta/hello_world_ta.c:111
      5c:	b9400060 	ldr	w0, [x3]
      60:	11000400 	add	w0, w0, #0x1
dec_value():
/home/zrz0517/study/TEE/RT-TEE/optee_examples/hello_world/ta/hello_world_ta.c:131
      64:	b9000060 	str	w0, [x3]
/home/zrz0517/study/TEE/RT-TEE/optee_examples/hello_world/ta/hello_world_ta.c:134
      68:	52800000 	mov	w0, #0x0                   	// #0
TA_InvokeCommandEntryPoint():
/home/zrz0517/study/TEE/RT-TEE/optee_examples/hello_world/ta/hello_world_ta.c:155
      6c:	d65f03c0 	ret
dec_value():
/home/zrz0517/study/TEE/RT-TEE/optee_examples/hello_world/ta/hello_world_ta.c:127
      70:	71000c5f 	cmp	w2, #0x3
      74:	54fffec1 	b.ne	4c <TA_InvokeCommandEntryPoint+0xc>  // b.any
/home/zrz0517/study/TEE/RT-TEE/optee_examples/hello_world/ta/hello_world_ta.c:131
      78:	b9400060 	ldr	w0, [x3]
      7c:	51000400 	sub	w0, w0, #0x1
      80:	17fffff9 	b	64 <TA_InvokeCommandEntryPoint+0x24>

0000000000000084 <tahead_get_trace_level>:
tahead_get_trace_level():
/home/zrz0517/study/TEE/RT-TEE/optee_os/out/arm/export-ta_arm64/src/user_ta_header.c:107
      84:	52800020 	mov	w0, #0x1                   	// #1
      88:	d65f03c0 	ret

000000000000008c <ta_header_get_session>:
ta_header_get_session():
/home/zrz0517/study/TEE/RT-TEE/optee_os/lib/libutee/arch/arm/user_ta_entry.c:78
      8c:	2a0003e1 	mov	w1, w0
/home/zrz0517/study/TEE/RT-TEE/optee_os/lib/libutee/arch/arm/user_ta_entry.c:81
      90:	90000060 	adrp	x0, c000 <ta_props>
      94:	f9407000 	ldr	x0, [x0, #224]
/home/zrz0517/study/TEE/RT-TEE/optee_os/lib/libutee/arch/arm/user_ta_entry.c:81 (discriminator 1)
      98:	b5000040 	cbnz	x0, a0 <ta_header_get_session+0x14>
/home/zrz0517/study/TEE/RT-TEE/optee_os/lib/libutee/arch/arm/user_ta_entry.c:86
      9c:	d65f03c0 	ret
/home/zrz0517/study/TEE/RT-TEE/optee_os/lib/libutee/arch/arm/user_ta_entry.c:82
      a0:	b9400002 	ldr	w2, [x0]
      a4:	6b01005f 	cmp	w2, w1
      a8:	54ffffa0 	b.eq	9c <ta_header_get_session+0x10>  // b.none
/home/zrz0517/study/TEE/RT-TEE/optee_os/lib/libutee/arch/arm/user_ta_entry.c:81 (discriminator 2)
      ac:	f9400800 	ldr	x0, [x0, #16]
      b0:	17fffffa 	b	98 <ta_header_get_session+0xc>

00000000000000b4 <ta_header_remove_session>:
ta_header_remove_session():
/home/zrz0517/study/TEE/RT-TEE/optee_os/lib/libutee/arch/arm/user_ta_entry.c:115
      b4:	a9be7bfd 	stp	x29, x30, [sp, #-32]!
      b8:	2a0003e2 	mov	w2, w0
      bc:	910003fd 	mov	x29, sp
      c0:	f9000bf3 	str	x19, [sp, #16]
/home/zrz0517/study/TEE/RT-TEE/optee_os/lib/libutee/arch/arm/user_ta_entry.c:119
      c4:	90000073 	adrp	x19, c000 <ta_props>
      c8:	f9407260 	ldr	x0, [x19, #224]
/home/zrz0517/study/TEE/RT-TEE/optee_os/lib/libutee/arch/arm/user_ta_entry.c:119 (discriminator 1)
      cc:	b5000080 	cbnz	x0, dc <ta_header_remove_session+0x28>
/home/zrz0517/study/TEE/RT-TEE/optee_os/lib/libutee/arch/arm/user_ta_entry.c:133
      d0:	f9400bf3 	ldr	x19, [sp, #16]
      d4:	a8c27bfd 	ldp	x29, x30, [sp], #32
      d8:	d65f03c0 	ret
/home/zrz0517/study/TEE/RT-TEE/optee_os/lib/libutee/arch/arm/user_ta_entry.c:120
      dc:	b9400003 	ldr	w3, [x0]
      e0:	f9400801 	ldr	x1, [x0, #16]
      e4:	6b02007f 	cmp	w3, w2
      e8:	540002c1 	b.ne	140 <ta_header_remove_session+0x8c>  // b.any
/home/zrz0517/study/TEE/RT-TEE/optee_os/lib/libutee/arch/arm/user_ta_entry.c:121
      ec:	f9400c02 	ldr	x2, [x0, #24]
      f0:	b4000221 	cbz	x1, 134 <ta_header_remove_session+0x80>
/home/zrz0517/study/TEE/RT-TEE/optee_os/lib/libutee/arch/arm/user_ta_entry.c:121 (discriminator 1)
      f4:	f9000c22 	str	x2, [x1, #24]
/home/zrz0517/study/TEE/RT-TEE/optee_os/lib/libutee/arch/arm/user_ta_entry.c:121 (discriminator 4)
      f8:	f9400c02 	ldr	x2, [x0, #24]
      fc:	f9000041 	str	x1, [x2]
/home/zrz0517/study/TEE/RT-TEE/optee_os/lib/libutee/arch/arm/user_ta_entry.c:122 (discriminator 4)
     100:	94000269 	bl	aa4 <TEE_Free>
/home/zrz0517/study/TEE/RT-TEE/optee_os/lib/libutee/arch/arm/user_ta_entry.c:127 (discriminator 4)
     104:	f9407260 	ldr	x0, [x19, #224]
     108:	b5fffe40 	cbnz	x0, d0 <ta_header_remove_session+0x1c>
/home/zrz0517/study/TEE/RT-TEE/optee_os/lib/libutee/arch/arm/user_ta_entry.c:125 (discriminator 1)
     10c:	d0000040 	adrp	x0, a000 <__func__.4888+0x13>
     110:	52800281 	mov	w1, #0x14                  	// #20
     114:	f946e800 	ldr	x0, [x0, #3536]
     118:	b9401400 	ldr	w0, [x0, #20]
     11c:	0a010000 	and	w0, w0, w1
/home/zrz0517/study/TEE/RT-TEE/optee_os/lib/libutee/arch/arm/user_ta_entry.c:127 (discriminator 1)
     120:	6b01001f 	cmp	w0, w1
     124:	54fffd60 	b.eq	d0 <ta_header_remove_session+0x1c>  // b.none
/home/zrz0517/study/TEE/RT-TEE/optee_os/lib/libutee/arch/arm/user_ta_entry.c:133
     128:	f9400bf3 	ldr	x19, [sp, #16]
     12c:	a8c27bfd 	ldp	x29, x30, [sp], #32
uninit_instance():
/home/zrz0517/study/TEE/RT-TEE/optee_os/lib/libutee/arch/arm/user_ta_entry.c:63
     130:	17ffffbe 	b	28 <TA_DestroyEntryPoint>
ta_header_remove_session():
/home/zrz0517/study/TEE/RT-TEE/optee_os/lib/libutee/arch/arm/user_ta_entry.c:121 (discriminator 2)
     134:	91038263 	add	x3, x19, #0xe0
     138:	f9000462 	str	x2, [x3, #8]
     13c:	17ffffef 	b	f8 <ta_header_remove_session+0x44>
     140:	aa0103e0 	mov	x0, x1
     144:	17ffffe2 	b	cc <ta_header_remove_session+0x18>

0000000000000148 <__utee_entry>:
__utee_entry():
/home/zrz0517/study/TEE/RT-TEE/optee_os/lib/libutee/arch/arm/user_ta_entry.c:200
     148:	a9b77bfd 	stp	x29, x30, [sp, #-144]!
     14c:	f100041f 	cmp	x0, #0x1
     150:	910003fd 	mov	x29, sp
     154:	a90153f3 	stp	x19, x20, [sp, #16]
     158:	d0000054 	adrp	x20, a000 <__func__.4888+0x13>
     15c:	a9025bf5 	stp	x21, x22, [sp, #32]
     160:	aa0103f5 	mov	x21, x1
     164:	a90363f7 	stp	x23, x24, [sp, #48]
     168:	540009e0 	b.eq	2a4 <__utee_entry+0x15c>  // b.none
     16c:	aa0203f7 	mov	x23, x2
     170:	b40000e0 	cbz	x0, 18c <__utee_entry+0x44>
     174:	f100081f 	cmp	x0, #0x2
     178:	54000a80 	b.eq	2c8 <__utee_entry+0x180>  // b.none
/home/zrz0517/study/TEE/RT-TEE/optee_os/lib/libutee/arch/arm/user_ta_entry.c:223
     17c:	52800000 	mov	w0, #0x0                   	// #0
/home/zrz0517/study/TEE/RT-TEE/optee_os/lib/libutee/arch/arm/user_ta_entry.c:222
     180:	12800013 	mov	w19, #0xffffffff            	// #-1
/home/zrz0517/study/TEE/RT-TEE/optee_os/lib/libutee/arch/arm/user_ta_entry.c:223
     184:	9400024f 	bl	ac0 <TEE_Panic>
/home/zrz0517/study/TEE/RT-TEE/optee_os/lib/libutee/arch/arm/user_ta_entry.c:224
     188:	14000019 	b	1ec <__utee_entry+0xa4>
ta_header_add_session():
/home/zrz0517/study/TEE/RT-TEE/optee_os/lib/libutee/arch/arm/user_ta_entry.c:90
     18c:	2a0103e0 	mov	w0, w1
     190:	97ffffbf 	bl	8c <ta_header_get_session>
/home/zrz0517/study/TEE/RT-TEE/optee_os/lib/libutee/arch/arm/user_ta_entry.c:93
     194:	b50004e0 	cbnz	x0, 230 <__utee_entry+0xe8>
/home/zrz0517/study/TEE/RT-TEE/optee_os/lib/libutee/arch/arm/user_ta_entry.c:96
     198:	d00000a0 	adrp	x0, 16000 <ta_heap+0x7e30>
     19c:	39474001 	ldrb	w1, [x0, #464]
     1a0:	340000e1 	cbz	w1, 1bc <__utee_entry+0x74>
/home/zrz0517/study/TEE/RT-TEE/optee_os/lib/libutee/arch/arm/user_ta_entry.c:103
     1a4:	52b00001 	mov	w1, #0x80000000            	// #-2147483648
     1a8:	52800400 	mov	w0, #0x20                  	// #32
     1ac:	94000225 	bl	a40 <TEE_Malloc>
/home/zrz0517/study/TEE/RT-TEE/optee_os/lib/libutee/arch/arm/user_ta_entry.c:105
     1b0:	b50002e0 	cbnz	x0, 20c <__utee_entry+0xc4>
/home/zrz0517/study/TEE/RT-TEE/optee_os/lib/libutee/arch/arm/user_ta_entry.c:106
     1b4:	129ffe73 	mov	w19, #0xffff000c            	// #-65524
     1b8:	1400000d 	b	1ec <__utee_entry+0xa4>
/home/zrz0517/study/TEE/RT-TEE/optee_os/lib/libutee/arch/arm/user_ta_entry.c:97
     1bc:	52800021 	mov	w1, #0x1                   	// #1
     1c0:	39074001 	strb	w1, [x0, #464]
init_instance():
/home/zrz0517/study/TEE/RT-TEE/optee_os/lib/libutee/arch/arm/user_ta_entry.c:53
     1c4:	97ffffb0 	bl	84 <tahead_get_trace_level>
     1c8:	94001f0e 	bl	7e00 <trace_set_level>
/home/zrz0517/study/TEE/RT-TEE/optee_os/lib/libutee/arch/arm/user_ta_entry.c:55
     1cc:	f946c280 	ldr	x0, [x20, #3456]
     1d0:	f9400001 	ldr	x1, [x0]
     1d4:	f946d680 	ldr	x0, [x20, #3496]
     1d8:	94001a96 	bl	6c30 <malloc_add_pool>
/home/zrz0517/study/TEE/RT-TEE/optee_os/lib/libutee/arch/arm/user_ta_entry.c:56
     1dc:	94000420 	bl	125c <_TEE_MathAPI_Init>
/home/zrz0517/study/TEE/RT-TEE/optee_os/lib/libutee/arch/arm/user_ta_entry.c:57
     1e0:	97ffff90 	bl	20 <TA_CreateEntryPoint>
     1e4:	2a0003f3 	mov	w19, w0
ta_header_add_session():
/home/zrz0517/study/TEE/RT-TEE/optee_os/lib/libutee/arch/arm/user_ta_entry.c:99
     1e8:	34fffde0 	cbz	w0, 1a4 <__utee_entry+0x5c>
ta_header_save_params():
/home/zrz0517/study/TEE/RT-TEE/optee_os/lib/libutee/arch/arm/user_ta_entry.c:69
     1ec:	f946de80 	ldr	x0, [x20, #3512]
/home/zrz0517/study/TEE/RT-TEE/optee_os/lib/libutee/arch/arm/user_ta_entry.c:74
     1f0:	d2800802 	mov	x2, #0x40                  	// #64
     1f4:	52800001 	mov	w1, #0x0                   	// #0
/home/zrz0517/study/TEE/RT-TEE/optee_os/lib/libutee/arch/arm/user_ta_entry.c:69
     1f8:	b900001f 	str	wzr, [x0]
/home/zrz0517/study/TEE/RT-TEE/optee_os/lib/libutee/arch/arm/user_ta_entry.c:74
     1fc:	f946e680 	ldr	x0, [x20, #3528]
     200:	94001bb3 	bl	70cc <memset>
__utee_entry():
/home/zrz0517/study/TEE/RT-TEE/optee_os/lib/libutee/arch/arm/user_ta_entry.c:227
     204:	2a1303e0 	mov	w0, w19
     208:	94000051 	bl	34c <utee_return>
ta_header_add_session():
/home/zrz0517/study/TEE/RT-TEE/optee_os/lib/libutee/arch/arm/user_ta_entry.c:109
     20c:	90000061 	adrp	x1, c000 <ta_props>
     210:	91038021 	add	x1, x1, #0xe0
     214:	f9400422 	ldr	x2, [x1, #8]
/home/zrz0517/study/TEE/RT-TEE/optee_os/lib/libutee/arch/arm/user_ta_entry.c:107
     218:	b9000015 	str	w21, [x0]
/home/zrz0517/study/TEE/RT-TEE/optee_os/lib/libutee/arch/arm/user_ta_entry.c:109
     21c:	a900fc1f 	stp	xzr, xzr, [x0, #8]
     220:	f9000c02 	str	x2, [x0, #24]
     224:	f9000040 	str	x0, [x2]
     228:	91004000 	add	x0, x0, #0x10
     22c:	f9000420 	str	x0, [x1, #8]
entry_open_session():
/home/zrz0517/study/TEE/RT-TEE/optee_os/lib/libutee/arch/arm/user_ta_entry.c:147
     230:	2a1503e0 	mov	w0, w21
     234:	97ffff96 	bl	8c <ta_header_get_session>
     238:	aa0003f8 	mov	x24, x0
/home/zrz0517/study/TEE/RT-TEE/optee_os/lib/libutee/arch/arm/user_ta_entry.c:148
     23c:	b40007e0 	cbz	x0, 338 <__utee_entry+0x1f0>
/home/zrz0517/study/TEE/RT-TEE/optee_os/lib/libutee/arch/arm/user_ta_entry.c:151
     240:	910143f6 	add	x22, sp, #0x50
     244:	aa1703e2 	mov	x2, x23
     248:	910133e1 	add	x1, sp, #0x4c
     24c:	aa1603e0 	mov	x0, x22
     250:	94000106 	bl	668 <__utee_to_param>
/home/zrz0517/study/TEE/RT-TEE/optee_os/lib/libutee/arch/arm/user_ta_entry.c:152
     254:	b9404ff3 	ldr	w19, [sp, #76]
ta_header_save_params():
/home/zrz0517/study/TEE/RT-TEE/optee_os/lib/libutee/arch/arm/user_ta_entry.c:69
     258:	f946de80 	ldr	x0, [x20, #3512]
/home/zrz0517/study/TEE/RT-TEE/optee_os/lib/libutee/arch/arm/user_ta_entry.c:72
     25c:	d2800802 	mov	x2, #0x40                  	// #64
     260:	aa1603e1 	mov	x1, x22
/home/zrz0517/study/TEE/RT-TEE/optee_os/lib/libutee/arch/arm/user_ta_entry.c:69
     264:	b9000013 	str	w19, [x0]
/home/zrz0517/study/TEE/RT-TEE/optee_os/lib/libutee/arch/arm/user_ta_entry.c:72
     268:	f946e680 	ldr	x0, [x20, #3528]
     26c:	94001b79 	bl	7050 <memcpy>
entry_open_session():
/home/zrz0517/study/TEE/RT-TEE/optee_os/lib/libutee/arch/arm/user_ta_entry.c:154
     270:	91002302 	add	x2, x24, #0x8
     274:	aa1603e1 	mov	x1, x22
     278:	2a1303e0 	mov	w0, w19
     27c:	97ffff6c 	bl	2c <TA_OpenSessionEntryPoint>
/home/zrz0517/study/TEE/RT-TEE/optee_os/lib/libutee/arch/arm/user_ta_entry.c:157
     280:	b9404fe1 	ldr	w1, [sp, #76]
/home/zrz0517/study/TEE/RT-TEE/optee_os/lib/libutee/arch/arm/user_ta_entry.c:154
     284:	2a0003f3 	mov	w19, w0
/home/zrz0517/study/TEE/RT-TEE/optee_os/lib/libutee/arch/arm/user_ta_entry.c:157
     288:	aa1603e2 	mov	x2, x22
     28c:	aa1703e0 	mov	x0, x23
     290:	940000d8 	bl	5f0 <__utee_from_param>
/home/zrz0517/study/TEE/RT-TEE/optee_os/lib/libutee/arch/arm/user_ta_entry.c:159
     294:	34fffad3 	cbz	w19, 1ec <__utee_entry+0xa4>
/home/zrz0517/study/TEE/RT-TEE/optee_os/lib/libutee/arch/arm/user_ta_entry.c:160
     298:	2a1503e0 	mov	w0, w21
     29c:	97ffff86 	bl	b4 <ta_header_remove_session>
     2a0:	17ffffd3 	b	1ec <__utee_entry+0xa4>
entry_close_session():
/home/zrz0517/study/TEE/RT-TEE/optee_os/lib/libutee/arch/arm/user_ta_entry.c:166
     2a4:	2a0103e0 	mov	w0, w1
     2a8:	97ffff79 	bl	8c <ta_header_get_session>
/home/zrz0517/study/TEE/RT-TEE/optee_os/lib/libutee/arch/arm/user_ta_entry.c:168
     2ac:	b4000460 	cbz	x0, 338 <__utee_entry+0x1f0>
/home/zrz0517/study/TEE/RT-TEE/optee_os/lib/libutee/arch/arm/user_ta_entry.c:171
     2b0:	f9400400 	ldr	x0, [x0, #8]
/home/zrz0517/study/TEE/RT-TEE/optee_os/lib/libutee/arch/arm/user_ta_entry.c:174
     2b4:	52800013 	mov	w19, #0x0                   	// #0
/home/zrz0517/study/TEE/RT-TEE/optee_os/lib/libutee/arch/arm/user_ta_entry.c:171
     2b8:	97ffff61 	bl	3c <TA_CloseSessionEntryPoint>
/home/zrz0517/study/TEE/RT-TEE/optee_os/lib/libutee/arch/arm/user_ta_entry.c:173
     2bc:	2a1503e0 	mov	w0, w21
     2c0:	97ffff7d 	bl	b4 <ta_header_remove_session>
/home/zrz0517/study/TEE/RT-TEE/optee_os/lib/libutee/arch/arm/user_ta_entry.c:174
     2c4:	17ffffca 	b	1ec <__utee_entry+0xa4>
entry_invoke_command():
/home/zrz0517/study/TEE/RT-TEE/optee_os/lib/libutee/arch/arm/user_ta_entry.c:183
     2c8:	2a0103e0 	mov	w0, w1
     2cc:	97ffff70 	bl	8c <ta_header_get_session>
     2d0:	aa0003f3 	mov	x19, x0
/home/zrz0517/study/TEE/RT-TEE/optee_os/lib/libutee/arch/arm/user_ta_entry.c:185
     2d4:	b4000320 	cbz	x0, 338 <__utee_entry+0x1f0>
/home/zrz0517/study/TEE/RT-TEE/optee_os/lib/libutee/arch/arm/user_ta_entry.c:188
     2d8:	910143f5 	add	x21, sp, #0x50
     2dc:	aa0303f8 	mov	x24, x3
     2e0:	aa1703e2 	mov	x2, x23
     2e4:	910133e1 	add	x1, sp, #0x4c
     2e8:	aa1503e0 	mov	x0, x21
     2ec:	940000df 	bl	668 <__utee_to_param>
ta_header_save_params():
/home/zrz0517/study/TEE/RT-TEE/optee_os/lib/libutee/arch/arm/user_ta_entry.c:69
     2f0:	f946de80 	ldr	x0, [x20, #3512]
/home/zrz0517/study/TEE/RT-TEE/optee_os/lib/libutee/arch/arm/user_ta_entry.c:72
     2f4:	aa1503e1 	mov	x1, x21
entry_invoke_command():
/home/zrz0517/study/TEE/RT-TEE/optee_os/lib/libutee/arch/arm/user_ta_entry.c:189
     2f8:	b9404ff6 	ldr	w22, [sp, #76]
ta_header_save_params():
/home/zrz0517/study/TEE/RT-TEE/optee_os/lib/libutee/arch/arm/user_ta_entry.c:72
     2fc:	d2800802 	mov	x2, #0x40                  	// #64
/home/zrz0517/study/TEE/RT-TEE/optee_os/lib/libutee/arch/arm/user_ta_entry.c:69
     300:	b9000016 	str	w22, [x0]
/home/zrz0517/study/TEE/RT-TEE/optee_os/lib/libutee/arch/arm/user_ta_entry.c:72
     304:	f946e680 	ldr	x0, [x20, #3528]
     308:	94001b52 	bl	7050 <memcpy>
entry_invoke_command():
/home/zrz0517/study/TEE/RT-TEE/optee_os/lib/libutee/arch/arm/user_ta_entry.c:191
     30c:	f9400660 	ldr	x0, [x19, #8]
     310:	2a1603e2 	mov	w2, w22
     314:	2a1803e1 	mov	w1, w24
     318:	aa1503e3 	mov	x3, x21
     31c:	97ffff49 	bl	40 <TA_InvokeCommandEntryPoint>
     320:	2a0003f3 	mov	w19, w0
/home/zrz0517/study/TEE/RT-TEE/optee_os/lib/libutee/arch/arm/user_ta_entry.c:194
     324:	b9404fe1 	ldr	w1, [sp, #76]
     328:	aa1503e2 	mov	x2, x21
     32c:	aa1703e0 	mov	x0, x23
     330:	940000b0 	bl	5f0 <__utee_from_param>
/home/zrz0517/study/TEE/RT-TEE/optee_os/lib/libutee/arch/arm/user_ta_entry.c:195
     334:	17ffffae 	b	1ec <__utee_entry+0xa4>
entry_close_session():
/home/zrz0517/study/TEE/RT-TEE/optee_os/lib/libutee/arch/arm/user_ta_entry.c:169
     338:	129fff13 	mov	w19, #0xffff0007            	// #-65529
     33c:	17ffffac 	b	1ec <__utee_entry+0xa4>

0000000000000340 <utee_panic>:
utee_panic():
/home/zrz0517/study/TEE/RT-TEE/optee_os/lib/libutee/arch/arm/utee_syscalls_a64.S:24
     340:	a9bf7bfd 	stp	x29, x30, [sp, #-16]!
/home/zrz0517/study/TEE/RT-TEE/optee_os/lib/libutee/arch/arm/utee_syscalls_a64.S:25
     344:	910003e1 	mov	x1, sp
/home/zrz0517/study/TEE/RT-TEE/optee_os/lib/libutee/arch/arm/utee_syscalls_a64.S:26
     348:	94000007 	bl	364 <__utee_panic>

000000000000034c <utee_return>:
utee_return():
/home/zrz0517/study/TEE/RT-TEE/optee_os/lib/libutee/arch/arm/utee_syscalls_asm.S:8
     34c:	d2800008 	mov	x8, #0x0                   	// #0
     350:	d4000001 	svc	#0x0
     354:	d65f03c0 	ret

0000000000000358 <utee_log>:
utee_log():
/home/zrz0517/study/TEE/RT-TEE/optee_os/lib/libutee/arch/arm/utee_syscalls_asm.S:10
     358:	d2800028 	mov	x8, #0x1                   	// #1
     35c:	d4000001 	svc	#0x0
     360:	d65f03c0 	ret

0000000000000364 <__utee_panic>:
__utee_panic():
/home/zrz0517/study/TEE/RT-TEE/optee_os/lib/libutee/arch/arm/utee_syscalls_asm.S:12
     364:	d2800048 	mov	x8, #0x2                   	// #2
     368:	d4000001 	svc	#0x0
     36c:	d65f03c0 	ret

0000000000000370 <utee_get_property>:
utee_get_property():
/home/zrz0517/study/TEE/RT-TEE/optee_os/lib/libutee/arch/arm/utee_syscalls_asm.S:14
     370:	d2800068 	mov	x8, #0x3                   	// #3
     374:	d4000001 	svc	#0x0
     378:	d65f03c0 	ret

000000000000037c <utee_get_property_name_to_index>:
utee_get_property_name_to_index():
/home/zrz0517/study/TEE/RT-TEE/optee_os/lib/libutee/arch/arm/utee_syscalls_asm.S:16
     37c:	d2800088 	mov	x8, #0x4                   	// #4
     380:	d4000001 	svc	#0x0
     384:	d65f03c0 	ret

0000000000000388 <utee_open_ta_session>:
utee_open_ta_session():
/home/zrz0517/study/TEE/RT-TEE/optee_os/lib/libutee/arch/arm/utee_syscalls_asm.S:19
     388:	d28000a8 	mov	x8, #0x5                   	// #5
     38c:	d4000001 	svc	#0x0
     390:	d65f03c0 	ret

0000000000000394 <utee_close_ta_session>:
utee_close_ta_session():
/home/zrz0517/study/TEE/RT-TEE/optee_os/lib/libutee/arch/arm/utee_syscalls_asm.S:21
     394:	d28000c8 	mov	x8, #0x6                   	// #6
     398:	d4000001 	svc	#0x0
     39c:	d65f03c0 	ret

00000000000003a0 <utee_invoke_ta_command>:
utee_invoke_ta_command():
/home/zrz0517/study/TEE/RT-TEE/optee_os/lib/libutee/arch/arm/utee_syscalls_asm.S:23
     3a0:	d28000e8 	mov	x8, #0x7                   	// #7
     3a4:	d4000001 	svc	#0x0
     3a8:	d65f03c0 	ret

00000000000003ac <utee_get_cancellation_flag>:
utee_get_cancellation_flag():
/home/zrz0517/study/TEE/RT-TEE/optee_os/lib/libutee/arch/arm/utee_syscalls_asm.S:25
     3ac:	d2800128 	mov	x8, #0x9                   	// #9
     3b0:	d4000001 	svc	#0x0
     3b4:	d65f03c0 	ret

00000000000003b8 <utee_check_access_rights>:
utee_check_access_rights():
/home/zrz0517/study/TEE/RT-TEE/optee_os/lib/libutee/arch/arm/utee_syscalls_asm.S:28
     3b8:	d2800108 	mov	x8, #0x8                   	// #8
     3bc:	d4000001 	svc	#0x0
     3c0:	d65f03c0 	ret

00000000000003c4 <utee_unmask_cancellation>:
utee_unmask_cancellation():
/home/zrz0517/study/TEE/RT-TEE/optee_os/lib/libutee/arch/arm/utee_syscalls_asm.S:30
     3c4:	d2800148 	mov	x8, #0xa                   	// #10
     3c8:	d4000001 	svc	#0x0
     3cc:	d65f03c0 	ret

00000000000003d0 <utee_mask_cancellation>:
utee_mask_cancellation():
/home/zrz0517/study/TEE/RT-TEE/optee_os/lib/libutee/arch/arm/utee_syscalls_asm.S:32
     3d0:	d2800168 	mov	x8, #0xb                   	// #11
     3d4:	d4000001 	svc	#0x0
     3d8:	d65f03c0 	ret

00000000000003dc <utee_wait>:
utee_wait():
/home/zrz0517/study/TEE/RT-TEE/optee_os/lib/libutee/arch/arm/utee_syscalls_asm.S:34
     3dc:	d2800188 	mov	x8, #0xc                   	// #12
     3e0:	d4000001 	svc	#0x0
     3e4:	d65f03c0 	ret

00000000000003e8 <utee_get_time>:
utee_get_time():
/home/zrz0517/study/TEE/RT-TEE/optee_os/lib/libutee/arch/arm/utee_syscalls_asm.S:36
     3e8:	d28001a8 	mov	x8, #0xd                   	// #13
     3ec:	d4000001 	svc	#0x0
     3f0:	d65f03c0 	ret

00000000000003f4 <utee_set_ta_time>:
utee_set_ta_time():
/home/zrz0517/study/TEE/RT-TEE/optee_os/lib/libutee/arch/arm/utee_syscalls_asm.S:38
     3f4:	d28001c8 	mov	x8, #0xe                   	// #14
     3f8:	d4000001 	svc	#0x0
     3fc:	d65f03c0 	ret

0000000000000400 <utee_cryp_state_alloc>:
utee_cryp_state_alloc():
/home/zrz0517/study/TEE/RT-TEE/optee_os/lib/libutee/arch/arm/utee_syscalls_asm.S:40
     400:	d28001e8 	mov	x8, #0xf                   	// #15
     404:	d4000001 	svc	#0x0
     408:	d65f03c0 	ret

000000000000040c <utee_cryp_state_copy>:
utee_cryp_state_copy():
/home/zrz0517/study/TEE/RT-TEE/optee_os/lib/libutee/arch/arm/utee_syscalls_asm.S:42
     40c:	d2800208 	mov	x8, #0x10                  	// #16
     410:	d4000001 	svc	#0x0
     414:	d65f03c0 	ret

0000000000000418 <utee_cryp_state_free>:
utee_cryp_state_free():
/home/zrz0517/study/TEE/RT-TEE/optee_os/lib/libutee/arch/arm/utee_syscalls_asm.S:44
     418:	d2800228 	mov	x8, #0x11                  	// #17
     41c:	d4000001 	svc	#0x0
     420:	d65f03c0 	ret

0000000000000424 <utee_hash_init>:
utee_hash_init():
/home/zrz0517/study/TEE/RT-TEE/optee_os/lib/libutee/arch/arm/utee_syscalls_asm.S:46
     424:	d2800248 	mov	x8, #0x12                  	// #18
     428:	d4000001 	svc	#0x0
     42c:	d65f03c0 	ret

0000000000000430 <utee_hash_update>:
utee_hash_update():
/home/zrz0517/study/TEE/RT-TEE/optee_os/lib/libutee/arch/arm/utee_syscalls_asm.S:48
     430:	d2800268 	mov	x8, #0x13                  	// #19
     434:	d4000001 	svc	#0x0
     438:	d65f03c0 	ret

000000000000043c <utee_hash_final>:
utee_hash_final():
/home/zrz0517/study/TEE/RT-TEE/optee_os/lib/libutee/arch/arm/utee_syscalls_asm.S:50
     43c:	d2800288 	mov	x8, #0x14                  	// #20
     440:	d4000001 	svc	#0x0
     444:	d65f03c0 	ret

0000000000000448 <utee_cipher_init>:
utee_cipher_init():
/home/zrz0517/study/TEE/RT-TEE/optee_os/lib/libutee/arch/arm/utee_syscalls_asm.S:52
     448:	d28002a8 	mov	x8, #0x15                  	// #21
     44c:	d4000001 	svc	#0x0
     450:	d65f03c0 	ret

0000000000000454 <utee_cipher_update>:
utee_cipher_update():
/home/zrz0517/study/TEE/RT-TEE/optee_os/lib/libutee/arch/arm/utee_syscalls_asm.S:54
     454:	d28002c8 	mov	x8, #0x16                  	// #22
     458:	d4000001 	svc	#0x0
     45c:	d65f03c0 	ret

0000000000000460 <utee_cipher_final>:
utee_cipher_final():
/home/zrz0517/study/TEE/RT-TEE/optee_os/lib/libutee/arch/arm/utee_syscalls_asm.S:56
     460:	d28002e8 	mov	x8, #0x17                  	// #23
     464:	d4000001 	svc	#0x0
     468:	d65f03c0 	ret

000000000000046c <utee_cryp_obj_get_info>:
utee_cryp_obj_get_info():
/home/zrz0517/study/TEE/RT-TEE/optee_os/lib/libutee/arch/arm/utee_syscalls_asm.S:58
     46c:	d2800308 	mov	x8, #0x18                  	// #24
     470:	d4000001 	svc	#0x0
     474:	d65f03c0 	ret

0000000000000478 <utee_cryp_obj_restrict_usage>:
utee_cryp_obj_restrict_usage():
/home/zrz0517/study/TEE/RT-TEE/optee_os/lib/libutee/arch/arm/utee_syscalls_asm.S:60
     478:	d2800328 	mov	x8, #0x19                  	// #25
     47c:	d4000001 	svc	#0x0
     480:	d65f03c0 	ret

0000000000000484 <utee_cryp_obj_get_attr>:
utee_cryp_obj_get_attr():
/home/zrz0517/study/TEE/RT-TEE/optee_os/lib/libutee/arch/arm/utee_syscalls_asm.S:63
     484:	d2800348 	mov	x8, #0x1a                  	// #26
     488:	d4000001 	svc	#0x0
     48c:	d65f03c0 	ret

0000000000000490 <utee_cryp_obj_alloc>:
utee_cryp_obj_alloc():
/home/zrz0517/study/TEE/RT-TEE/optee_os/lib/libutee/arch/arm/utee_syscalls_asm.S:65
     490:	d2800368 	mov	x8, #0x1b                  	// #27
     494:	d4000001 	svc	#0x0
     498:	d65f03c0 	ret

000000000000049c <utee_cryp_obj_close>:
utee_cryp_obj_close():
/home/zrz0517/study/TEE/RT-TEE/optee_os/lib/libutee/arch/arm/utee_syscalls_asm.S:67
     49c:	d2800388 	mov	x8, #0x1c                  	// #28
     4a0:	d4000001 	svc	#0x0
     4a4:	d65f03c0 	ret

00000000000004a8 <utee_cryp_obj_reset>:
utee_cryp_obj_reset():
/home/zrz0517/study/TEE/RT-TEE/optee_os/lib/libutee/arch/arm/utee_syscalls_asm.S:69
     4a8:	d28003a8 	mov	x8, #0x1d                  	// #29
     4ac:	d4000001 	svc	#0x0
     4b0:	d65f03c0 	ret

00000000000004b4 <utee_cryp_obj_populate>:
utee_cryp_obj_populate():
/home/zrz0517/study/TEE/RT-TEE/optee_os/lib/libutee/arch/arm/utee_syscalls_asm.S:71
     4b4:	d28003c8 	mov	x8, #0x1e                  	// #30
     4b8:	d4000001 	svc	#0x0
     4bc:	d65f03c0 	ret

00000000000004c0 <utee_cryp_obj_copy>:
utee_cryp_obj_copy():
/home/zrz0517/study/TEE/RT-TEE/optee_os/lib/libutee/arch/arm/utee_syscalls_asm.S:73
     4c0:	d28003e8 	mov	x8, #0x1f                  	// #31
     4c4:	d4000001 	svc	#0x0
     4c8:	d65f03c0 	ret

00000000000004cc <utee_cryp_derive_key>:
utee_cryp_derive_key():
/home/zrz0517/study/TEE/RT-TEE/optee_os/lib/libutee/arch/arm/utee_syscalls_asm.S:75
     4cc:	d2800408 	mov	x8, #0x20                  	// #32
     4d0:	d4000001 	svc	#0x0
     4d4:	d65f03c0 	ret

00000000000004d8 <utee_cryp_random_number_generate>:
utee_cryp_random_number_generate():
/home/zrz0517/study/TEE/RT-TEE/optee_os/lib/libutee/arch/arm/utee_syscalls_asm.S:77
     4d8:	d2800428 	mov	x8, #0x21                  	// #33
     4dc:	d4000001 	svc	#0x0
     4e0:	d65f03c0 	ret

00000000000004e4 <utee_authenc_init>:
utee_authenc_init():
/home/zrz0517/study/TEE/RT-TEE/optee_os/lib/libutee/arch/arm/utee_syscalls_asm.S:80
     4e4:	d2800448 	mov	x8, #0x22                  	// #34
     4e8:	d4000001 	svc	#0x0
     4ec:	d65f03c0 	ret

00000000000004f0 <utee_authenc_update_aad>:
utee_authenc_update_aad():
/home/zrz0517/study/TEE/RT-TEE/optee_os/lib/libutee/arch/arm/utee_syscalls_asm.S:82
     4f0:	d2800468 	mov	x8, #0x23                  	// #35
     4f4:	d4000001 	svc	#0x0
     4f8:	d65f03c0 	ret

00000000000004fc <utee_authenc_update_payload>:
utee_authenc_update_payload():
/home/zrz0517/study/TEE/RT-TEE/optee_os/lib/libutee/arch/arm/utee_syscalls_asm.S:84
     4fc:	d2800488 	mov	x8, #0x24                  	// #36
     500:	d4000001 	svc	#0x0
     504:	d65f03c0 	ret

0000000000000508 <utee_authenc_enc_final>:
utee_authenc_enc_final():
/home/zrz0517/study/TEE/RT-TEE/optee_os/lib/libutee/arch/arm/utee_syscalls_asm.S:87
     508:	d28004a8 	mov	x8, #0x25                  	// #37
     50c:	d4000001 	svc	#0x0
     510:	d65f03c0 	ret

0000000000000514 <utee_authenc_dec_final>:
utee_authenc_dec_final():
/home/zrz0517/study/TEE/RT-TEE/optee_os/lib/libutee/arch/arm/utee_syscalls_asm.S:89
     514:	d28004c8 	mov	x8, #0x26                  	// #38
     518:	d4000001 	svc	#0x0
     51c:	d65f03c0 	ret

0000000000000520 <utee_asymm_operate>:
utee_asymm_operate():
/home/zrz0517/study/TEE/RT-TEE/optee_os/lib/libutee/arch/arm/utee_syscalls_asm.S:91
     520:	d28004e8 	mov	x8, #0x27                  	// #39
     524:	d4000001 	svc	#0x0
     528:	d65f03c0 	ret

000000000000052c <utee_asymm_verify>:
utee_asymm_verify():
/home/zrz0517/study/TEE/RT-TEE/optee_os/lib/libutee/arch/arm/utee_syscalls_asm.S:93
     52c:	d2800508 	mov	x8, #0x28                  	// #40
     530:	d4000001 	svc	#0x0
     534:	d65f03c0 	ret

0000000000000538 <utee_storage_obj_open>:
utee_storage_obj_open():
/home/zrz0517/study/TEE/RT-TEE/optee_os/lib/libutee/arch/arm/utee_syscalls_asm.S:95
     538:	d2800528 	mov	x8, #0x29                  	// #41
     53c:	d4000001 	svc	#0x0
     540:	d65f03c0 	ret

0000000000000544 <utee_storage_obj_create>:
utee_storage_obj_create():
/home/zrz0517/study/TEE/RT-TEE/optee_os/lib/libutee/arch/arm/utee_syscalls_asm.S:97
     544:	d2800548 	mov	x8, #0x2a                  	// #42
     548:	d4000001 	svc	#0x0
     54c:	d65f03c0 	ret

0000000000000550 <utee_storage_obj_del>:
utee_storage_obj_del():
/home/zrz0517/study/TEE/RT-TEE/optee_os/lib/libutee/arch/arm/utee_syscalls_asm.S:99
     550:	d2800568 	mov	x8, #0x2b                  	// #43
     554:	d4000001 	svc	#0x0
     558:	d65f03c0 	ret

000000000000055c <utee_storage_obj_rename>:
utee_storage_obj_rename():
/home/zrz0517/study/TEE/RT-TEE/optee_os/lib/libutee/arch/arm/utee_syscalls_asm.S:101
     55c:	d2800588 	mov	x8, #0x2c                  	// #44
     560:	d4000001 	svc	#0x0
     564:	d65f03c0 	ret

0000000000000568 <utee_storage_alloc_enum>:
utee_storage_alloc_enum():
/home/zrz0517/study/TEE/RT-TEE/optee_os/lib/libutee/arch/arm/utee_syscalls_asm.S:103
     568:	d28005a8 	mov	x8, #0x2d                  	// #45
     56c:	d4000001 	svc	#0x0
     570:	d65f03c0 	ret

0000000000000574 <utee_storage_free_enum>:
utee_storage_free_enum():
/home/zrz0517/study/TEE/RT-TEE/optee_os/lib/libutee/arch/arm/utee_syscalls_asm.S:105
     574:	d28005c8 	mov	x8, #0x2e                  	// #46
     578:	d4000001 	svc	#0x0
     57c:	d65f03c0 	ret

0000000000000580 <utee_storage_reset_enum>:
utee_storage_reset_enum():
/home/zrz0517/study/TEE/RT-TEE/optee_os/lib/libutee/arch/arm/utee_syscalls_asm.S:107
     580:	d28005e8 	mov	x8, #0x2f                  	// #47
     584:	d4000001 	svc	#0x0
     588:	d65f03c0 	ret

000000000000058c <utee_storage_start_enum>:
utee_storage_start_enum():
/home/zrz0517/study/TEE/RT-TEE/optee_os/lib/libutee/arch/arm/utee_syscalls_asm.S:109
     58c:	d2800608 	mov	x8, #0x30                  	// #48
     590:	d4000001 	svc	#0x0
     594:	d65f03c0 	ret

0000000000000598 <utee_storage_next_enum>:
utee_storage_next_enum():
/home/zrz0517/study/TEE/RT-TEE/optee_os/lib/libutee/arch/arm/utee_syscalls_asm.S:111
     598:	d2800628 	mov	x8, #0x31                  	// #49
     59c:	d4000001 	svc	#0x0
     5a0:	d65f03c0 	ret

00000000000005a4 <utee_storage_obj_read>:
utee_storage_obj_read():
/home/zrz0517/study/TEE/RT-TEE/optee_os/lib/libutee/arch/arm/utee_syscalls_asm.S:113
     5a4:	d2800648 	mov	x8, #0x32                  	// #50
     5a8:	d4000001 	svc	#0x0
     5ac:	d65f03c0 	ret

00000000000005b0 <utee_storage_obj_write>:
utee_storage_obj_write():
/home/zrz0517/study/TEE/RT-TEE/optee_os/lib/libutee/arch/arm/utee_syscalls_asm.S:115
     5b0:	d2800668 	mov	x8, #0x33                  	// #51
     5b4:	d4000001 	svc	#0x0
     5b8:	d65f03c0 	ret

00000000000005bc <utee_storage_obj_trunc>:
utee_storage_obj_trunc():
/home/zrz0517/study/TEE/RT-TEE/optee_os/lib/libutee/arch/arm/utee_syscalls_asm.S:117
     5bc:	d2800688 	mov	x8, #0x34                  	// #52
     5c0:	d4000001 	svc	#0x0
     5c4:	d65f03c0 	ret

00000000000005c8 <utee_storage_obj_seek>:
utee_storage_obj_seek():
/home/zrz0517/study/TEE/RT-TEE/optee_os/lib/libutee/arch/arm/utee_syscalls_asm.S:119
     5c8:	d28006a8 	mov	x8, #0x35                  	// #53
     5cc:	d4000001 	svc	#0x0
     5d0:	d65f03c0 	ret

00000000000005d4 <utee_cryp_obj_generate_key>:
utee_cryp_obj_generate_key():
/home/zrz0517/study/TEE/RT-TEE/optee_os/lib/libutee/arch/arm/utee_syscalls_asm.S:121
     5d4:	d28006c8 	mov	x8, #0x36                  	// #54
     5d8:	d4000001 	svc	#0x0
     5dc:	d65f03c0 	ret

00000000000005e0 <utee_cache_operation>:
utee_cache_operation():
/home/zrz0517/study/TEE/RT-TEE/optee_os/lib/libutee/arch/arm/utee_syscalls_asm.S:124
     5e0:	d28008c8 	mov	x8, #0x46                  	// #70
     5e4:	d4000001 	svc	#0x0
     5e8:	d65f03c0 	ret

00000000000005ec <__utee_mcount>:
__utee_mcount():
/home/zrz0517/study/TEE/RT-TEE/optee_os/lib/libutee/arch/arm/gprof/gprof_a64.S:52
     5ec:	d65f03c0 	ret

00000000000005f0 <__utee_from_param>:
__utee_from_param():
/home/zrz0517/study/TEE/RT-TEE/optee_os/lib/libutee/tee_api.c:25
     5f0:	b0000045 	adrp	x5, 9000 <__text_end+0xd6c>
     5f4:	912bd0a5 	add	x5, x5, #0xaf4
/home/zrz0517/study/TEE/RT-TEE/optee_os/lib/libutee/tee_api.c:23
     5f8:	2a0103e3 	mov	w3, w1
     5fc:	52800004 	mov	w4, #0x0                   	// #0
     600:	f8008403 	str	x3, [x0], #8
/home/zrz0517/study/TEE/RT-TEE/optee_os/lib/libutee/tee_api.c:25
     604:	1ac42423 	lsr	w3, w1, w4
     608:	12000c63 	and	w3, w3, #0xf
     60c:	51000463 	sub	w3, w3, #0x1
     610:	7100187f 	cmp	w3, #0x6
     614:	54000268 	b.hi	660 <__utee_from_param+0x70>  // b.pmore
     618:	386348a3 	ldrb	w3, [x5, w3, uxtw]
     61c:	10000066 	adr	x6, 628 <__utee_from_param+0x38>
     620:	8b2388c3 	add	x3, x6, w3, sxtb #2
     624:	d61f0060 	br	x3
/home/zrz0517/study/TEE/RT-TEE/optee_os/lib/libutee/tee_api.c:29
     628:	b9400043 	ldr	w3, [x2]
     62c:	f9000003 	str	x3, [x0]
/home/zrz0517/study/TEE/RT-TEE/optee_os/lib/libutee/tee_api.c:30
     630:	b9400443 	ldr	w3, [x2, #4]
/home/zrz0517/study/TEE/RT-TEE/optee_os/lib/libutee/tee_api.c:36
     634:	f9000403 	str	x3, [x0, #8]
/home/zrz0517/study/TEE/RT-TEE/optee_os/lib/libutee/tee_api.c:37
     638:	11001084 	add	w4, w4, #0x4
     63c:	91004042 	add	x2, x2, #0x10
     640:	91004000 	add	x0, x0, #0x10
/home/zrz0517/study/TEE/RT-TEE/optee_os/lib/libutee/tee_api.c:24 (discriminator 2)
     644:	7100409f 	cmp	w4, #0x10
     648:	54fffde1 	b.ne	604 <__utee_from_param+0x14>  // b.any
/home/zrz0517/study/TEE/RT-TEE/optee_os/lib/libutee/tee_api.c:44
     64c:	d65f03c0 	ret
/home/zrz0517/study/TEE/RT-TEE/optee_os/lib/libutee/tee_api.c:35
     650:	f9400043 	ldr	x3, [x2]
     654:	f9000003 	str	x3, [x0]
/home/zrz0517/study/TEE/RT-TEE/optee_os/lib/libutee/tee_api.c:36
     658:	b9400843 	ldr	w3, [x2, #8]
     65c:	17fffff6 	b	634 <__utee_from_param+0x44>
/home/zrz0517/study/TEE/RT-TEE/optee_os/lib/libutee/tee_api.c:40
     660:	a9007c1f 	stp	xzr, xzr, [x0]
/home/zrz0517/study/TEE/RT-TEE/optee_os/lib/libutee/tee_api.c:41
     664:	17fffff5 	b	638 <__utee_from_param+0x48>

0000000000000668 <__utee_to_param>:
__utee_to_param():
/home/zrz0517/study/TEE/RT-TEE/optee_os/lib/libutee/tee_api.c:50
     668:	f8408446 	ldr	x6, [x2], #8
/home/zrz0517/study/TEE/RT-TEE/optee_os/lib/libutee/tee_api.c:56
     66c:	b0000045 	adrp	x5, 9000 <__text_end+0xd6c>
     670:	912bf0a5 	add	x5, x5, #0xafc
/home/zrz0517/study/TEE/RT-TEE/optee_os/lib/libutee/tee_api.c:50
     674:	52800004 	mov	w4, #0x0                   	// #0
     678:	2a0603e9 	mov	w9, w6
/home/zrz0517/study/TEE/RT-TEE/optee_os/lib/libutee/tee_api.c:56
     67c:	1ac42523 	lsr	w3, w9, w4
     680:	12000c63 	and	w3, w3, #0xf
     684:	51000463 	sub	w3, w3, #0x1
     688:	7100187f 	cmp	w3, #0x6
/home/zrz0517/study/TEE/RT-TEE/optee_os/lib/libutee/tee_api.c:54
     68c:	a9401c48 	ldp	x8, x7, [x2]
/home/zrz0517/study/TEE/RT-TEE/optee_os/lib/libutee/tee_api.c:56
     690:	540000c8 	b.hi	6a8 <__utee_to_param+0x40>  // b.pmore
     694:	386348a3 	ldrb	w3, [x5, w3, uxtw]
     698:	1000006a 	adr	x10, 6a4 <__utee_to_param+0x3c>
     69c:	8b238943 	add	x3, x10, w3, sxtb #2
     6a0:	d61f0060 	br	x3
/home/zrz0517/study/TEE/RT-TEE/optee_os/lib/libutee/tee_api.c:61
     6a4:	29001c08 	stp	w8, w7, [x0]
/home/zrz0517/study/TEE/RT-TEE/optee_os/lib/libutee/tee_api.c:62
     6a8:	11001084 	add	w4, w4, #0x4
     6ac:	91004042 	add	x2, x2, #0x10
     6b0:	91004000 	add	x0, x0, #0x10
/home/zrz0517/study/TEE/RT-TEE/optee_os/lib/libutee/tee_api.c:52 (discriminator 2)
     6b4:	7100409f 	cmp	w4, #0x10
     6b8:	54fffe21 	b.ne	67c <__utee_to_param+0x14>  // b.any
/home/zrz0517/study/TEE/RT-TEE/optee_os/lib/libutee/tee_api.c:74
     6bc:	b4000041 	cbz	x1, 6c4 <__utee_to_param+0x5c>
/home/zrz0517/study/TEE/RT-TEE/optee_os/lib/libutee/tee_api.c:75
     6c0:	b9000026 	str	w6, [x1]
/home/zrz0517/study/TEE/RT-TEE/optee_os/lib/libutee/tee_api.c:76
     6c4:	d65f03c0 	ret
/home/zrz0517/study/TEE/RT-TEE/optee_os/lib/libutee/tee_api.c:66
     6c8:	f9000008 	str	x8, [x0]
/home/zrz0517/study/TEE/RT-TEE/optee_os/lib/libutee/tee_api.c:67
     6cc:	b9000807 	str	w7, [x0, #8]
/home/zrz0517/study/TEE/RT-TEE/optee_os/lib/libutee/tee_api.c:68
     6d0:	17fffff6 	b	6a8 <__utee_to_param+0x40>

00000000000006d4 <TEE_OpenTASession>:
TEE_OpenTASession():
/home/zrz0517/study/TEE/RT-TEE/optee_os/lib/libutee/tee_api.c:84
     6d4:	a9b77bfd 	stp	x29, x30, [sp, #-144]!
     6d8:	aa0003e7 	mov	x7, x0
     6dc:	2a0103e8 	mov	w8, w1
     6e0:	910003fd 	mov	x29, sp
     6e4:	a90153f3 	stp	x19, x20, [sp, #16]
/home/zrz0517/study/TEE/RT-TEE/optee_os/lib/libutee/tee_api.c:89
     6e8:	910123f3 	add	x19, sp, #0x48
/home/zrz0517/study/TEE/RT-TEE/optee_os/lib/libutee/tee_api.c:84
     6ec:	2a0203e1 	mov	w1, w2
     6f0:	aa0303f4 	mov	x20, x3
/home/zrz0517/study/TEE/RT-TEE/optee_os/lib/libutee/tee_api.c:89
     6f4:	aa0303e2 	mov	x2, x3
     6f8:	aa1303e0 	mov	x0, x19
/home/zrz0517/study/TEE/RT-TEE/optee_os/lib/libutee/tee_api.c:84
     6fc:	f90013f5 	str	x21, [sp, #32]
     700:	aa0403f5 	mov	x21, x4
     704:	f9001fe5 	str	x5, [sp, #56]
/home/zrz0517/study/TEE/RT-TEE/optee_os/lib/libutee/tee_api.c:89
     708:	97ffffba 	bl	5f0 <__utee_from_param>
/home/zrz0517/study/TEE/RT-TEE/optee_os/lib/libutee/tee_api.c:90
     70c:	2a0803e1 	mov	w1, w8
     710:	f9401fe4 	ldr	x4, [sp, #56]
     714:	aa1303e2 	mov	x2, x19
     718:	910113e3 	add	x3, sp, #0x44
     71c:	aa0703e0 	mov	x0, x7
     720:	97ffff1a 	bl	388 <utee_open_ta_session>
     724:	2a0003eb 	mov	w11, w0
/home/zrz0517/study/TEE/RT-TEE/optee_os/lib/libutee/tee_api.c:92
     728:	aa1303e2 	mov	x2, x19
     72c:	d2800001 	mov	x1, #0x0                   	// #0
     730:	aa1403e0 	mov	x0, x20
     734:	97ffffcd 	bl	668 <__utee_to_param>
/home/zrz0517/study/TEE/RT-TEE/optee_os/lib/libutee/tee_api.c:98
     738:	3400004b 	cbz	w11, 740 <TEE_OpenTASession+0x6c>
/home/zrz0517/study/TEE/RT-TEE/optee_os/lib/libutee/tee_api.c:99
     73c:	b90047ff 	str	wzr, [sp, #68]
/home/zrz0517/study/TEE/RT-TEE/optee_os/lib/libutee/tee_api.c:101
     740:	b94047e0 	ldr	w0, [sp, #68]
/home/zrz0517/study/TEE/RT-TEE/optee_os/lib/libutee/tee_api.c:103
     744:	a94153f3 	ldp	x19, x20, [sp, #16]
/home/zrz0517/study/TEE/RT-TEE/optee_os/lib/libutee/tee_api.c:101
     748:	f90002a0 	str	x0, [x21]
/home/zrz0517/study/TEE/RT-TEE/optee_os/lib/libutee/tee_api.c:103
     74c:	2a0b03e0 	mov	w0, w11
     750:	f94013f5 	ldr	x21, [sp, #32]
     754:	a8c97bfd 	ldp	x29, x30, [sp], #144
     758:	d65f03c0 	ret

000000000000075c <TEE_CloseTASession>:
TEE_CloseTASession():
/home/zrz0517/study/TEE/RT-TEE/optee_os/lib/libutee/tee_api.c:107
     75c:	b4000120 	cbz	x0, 780 <TEE_CloseTASession+0x24>
/home/zrz0517/study/TEE/RT-TEE/optee_os/lib/libutee/tee_api.c:106
     760:	a9bf7bfd 	stp	x29, x30, [sp, #-16]!
     764:	910003fd 	mov	x29, sp
/home/zrz0517/study/TEE/RT-TEE/optee_os/lib/libutee/tee_api.c:108
     768:	97ffff0b 	bl	394 <utee_close_ta_session>
/home/zrz0517/study/TEE/RT-TEE/optee_os/lib/libutee/tee_api.c:110
     76c:	34000060 	cbz	w0, 778 <TEE_CloseTASession+0x1c>
/home/zrz0517/study/TEE/RT-TEE/optee_os/lib/libutee/tee_api.c:113
     770:	a8c17bfd 	ldp	x29, x30, [sp], #16
/home/zrz0517/study/TEE/RT-TEE/optee_os/lib/libutee/tee_api.c:111
     774:	140000d3 	b	ac0 <TEE_Panic>
/home/zrz0517/study/TEE/RT-TEE/optee_os/lib/libutee/tee_api.c:113
     778:	a8c17bfd 	ldp	x29, x30, [sp], #16
     77c:	d65f03c0 	ret
     780:	d65f03c0 	ret

0000000000000784 <TEE_InvokeTACommand>:
TEE_InvokeTACommand():
/home/zrz0517/study/TEE/RT-TEE/optee_os/lib/libutee/tee_api.c:120
     784:	a9b87bfd 	stp	x29, x30, [sp, #-128]!
     788:	aa0003e7 	mov	x7, x0
     78c:	2a0103e8 	mov	w8, w1
     790:	2a0203e9 	mov	w9, w2
     794:	910003fd 	mov	x29, sp
/home/zrz0517/study/TEE/RT-TEE/optee_os/lib/libutee/tee_api.c:125
     798:	aa0403e2 	mov	x2, x4
/home/zrz0517/study/TEE/RT-TEE/optee_os/lib/libutee/tee_api.c:120
     79c:	a90153f3 	stp	x19, x20, [sp, #16]
/home/zrz0517/study/TEE/RT-TEE/optee_os/lib/libutee/tee_api.c:125
     7a0:	9100e3f4 	add	x20, sp, #0x38
     7a4:	2a0303e1 	mov	w1, w3
     7a8:	aa1403e0 	mov	x0, x20
/home/zrz0517/study/TEE/RT-TEE/optee_os/lib/libutee/tee_api.c:120
     7ac:	a9025bf5 	stp	x21, x22, [sp, #32]
     7b0:	aa0403f6 	mov	x22, x4
     7b4:	aa0503f5 	mov	x21, x5
/home/zrz0517/study/TEE/RT-TEE/optee_os/lib/libutee/tee_api.c:125
     7b8:	97ffff8e 	bl	5f0 <__utee_from_param>
/home/zrz0517/study/TEE/RT-TEE/optee_os/lib/libutee/tee_api.c:126
     7bc:	9100d3e4 	add	x4, sp, #0x34
     7c0:	aa1403e3 	mov	x3, x20
     7c4:	2a0903e2 	mov	w2, w9
     7c8:	2a0803e1 	mov	w1, w8
     7cc:	aa0703e0 	mov	x0, x7
     7d0:	97fffef4 	bl	3a0 <utee_invoke_ta_command>
/home/zrz0517/study/TEE/RT-TEE/optee_os/lib/libutee/tee_api.c:129
     7d4:	aa1403e2 	mov	x2, x20
/home/zrz0517/study/TEE/RT-TEE/optee_os/lib/libutee/tee_api.c:126
     7d8:	2a0003f3 	mov	w19, w0
/home/zrz0517/study/TEE/RT-TEE/optee_os/lib/libutee/tee_api.c:129
     7dc:	d2800001 	mov	x1, #0x0                   	// #0
     7e0:	aa1603e0 	mov	x0, x22
     7e4:	97ffffa1 	bl	668 <__utee_to_param>
/home/zrz0517/study/TEE/RT-TEE/optee_os/lib/libutee/tee_api.c:131
     7e8:	b94037e0 	ldr	w0, [sp, #52]
     7ec:	b4000055 	cbz	x21, 7f4 <TEE_InvokeTACommand+0x70>
/home/zrz0517/study/TEE/RT-TEE/optee_os/lib/libutee/tee_api.c:132
     7f0:	b90002a0 	str	w0, [x21]
/home/zrz0517/study/TEE/RT-TEE/optee_os/lib/libutee/tee_api.c:134
     7f4:	7100101f 	cmp	w0, #0x4
     7f8:	54000140 	b.eq	820 <TEE_InvokeTACommand+0x9c>  // b.none
/home/zrz0517/study/TEE/RT-TEE/optee_os/lib/libutee/tee_api.c:137
     7fc:	7100027f 	cmp	w19, #0x0
     800:	129ffe60 	mov	w0, #0xffff000c            	// #-65524
     804:	7a401264 	ccmp	w19, w0, #0x4, ne  // ne = any
     808:	540000c0 	b.eq	820 <TEE_InvokeTACommand+0x9c>  // b.none
/home/zrz0517/study/TEE/RT-TEE/optee_os/lib/libutee/tee_api.c:138
     80c:	1299fb60 	mov	w0, #0xffff3024            	// #-53212
     810:	6b00027f 	cmp	w19, w0
     814:	54000060 	b.eq	820 <TEE_InvokeTACommand+0x9c>  // b.none
/home/zrz0517/study/TEE/RT-TEE/optee_os/lib/libutee/tee_api.c:140
     818:	2a1303e0 	mov	w0, w19
     81c:	940000a9 	bl	ac0 <TEE_Panic>
/home/zrz0517/study/TEE/RT-TEE/optee_os/lib/libutee/tee_api.c:143
     820:	2a1303e0 	mov	w0, w19
     824:	a94153f3 	ldp	x19, x20, [sp, #16]
     828:	a9425bf5 	ldp	x21, x22, [sp, #32]
     82c:	a8c87bfd 	ldp	x29, x30, [sp], #128
     830:	d65f03c0 	ret

0000000000000834 <TEE_GetCancellationFlag>:
TEE_GetCancellationFlag():
/home/zrz0517/study/TEE/RT-TEE/optee_os/lib/libutee/tee_api.c:148
     834:	a9be7bfd 	stp	x29, x30, [sp, #-32]!
     838:	910003fd 	mov	x29, sp
/home/zrz0517/study/TEE/RT-TEE/optee_os/lib/libutee/tee_api.c:150
     83c:	910073e0 	add	x0, sp, #0x1c
     840:	97fffedb 	bl	3ac <utee_get_cancellation_flag>
/home/zrz0517/study/TEE/RT-TEE/optee_os/lib/libutee/tee_api.c:152
     844:	34000040 	cbz	w0, 84c <TEE_GetCancellationFlag+0x18>
/home/zrz0517/study/TEE/RT-TEE/optee_os/lib/libutee/tee_api.c:153
     848:	b9001fff 	str	wzr, [sp, #28]
/home/zrz0517/study/TEE/RT-TEE/optee_os/lib/libutee/tee_api.c:154
     84c:	b9401fe0 	ldr	w0, [sp, #28]
/home/zrz0517/study/TEE/RT-TEE/optee_os/lib/libutee/tee_api.c:155
     850:	a8c27bfd 	ldp	x29, x30, [sp], #32
/home/zrz0517/study/TEE/RT-TEE/optee_os/lib/libutee/tee_api.c:154
     854:	7100001f 	cmp	w0, #0x0
/home/zrz0517/study/TEE/RT-TEE/optee_os/lib/libutee/tee_api.c:155
     858:	1a9f07e0 	cset	w0, ne  // ne = any
     85c:	d65f03c0 	ret

0000000000000860 <TEE_UnmaskCancellation>:
TEE_UnmaskCancellation():
/home/zrz0517/study/TEE/RT-TEE/optee_os/lib/libutee/tee_api.c:158
     860:	a9be7bfd 	stp	x29, x30, [sp, #-32]!
     864:	910003fd 	mov	x29, sp
/home/zrz0517/study/TEE/RT-TEE/optee_os/lib/libutee/tee_api.c:160
     868:	910073e0 	add	x0, sp, #0x1c
     86c:	97fffed6 	bl	3c4 <utee_unmask_cancellation>
/home/zrz0517/study/TEE/RT-TEE/optee_os/lib/libutee/tee_api.c:162
     870:	34000040 	cbz	w0, 878 <TEE_UnmaskCancellation+0x18>
/home/zrz0517/study/TEE/RT-TEE/optee_os/lib/libutee/tee_api.c:163
     874:	94000093 	bl	ac0 <TEE_Panic>
/home/zrz0517/study/TEE/RT-TEE/optee_os/lib/libutee/tee_api.c:164
     878:	b9401fe0 	ldr	w0, [sp, #28]
/home/zrz0517/study/TEE/RT-TEE/optee_os/lib/libutee/tee_api.c:165
     87c:	a8c27bfd 	ldp	x29, x30, [sp], #32
/home/zrz0517/study/TEE/RT-TEE/optee_os/lib/libutee/tee_api.c:164
     880:	7100001f 	cmp	w0, #0x0
/home/zrz0517/study/TEE/RT-TEE/optee_os/lib/libutee/tee_api.c:165
     884:	1a9f07e0 	cset	w0, ne  // ne = any
     888:	d65f03c0 	ret

000000000000088c <TEE_MaskCancellation>:
TEE_MaskCancellation():
/home/zrz0517/study/TEE/RT-TEE/optee_os/lib/libutee/tee_api.c:168
     88c:	a9be7bfd 	stp	x29, x30, [sp, #-32]!
     890:	910003fd 	mov	x29, sp
/home/zrz0517/study/TEE/RT-TEE/optee_os/lib/libutee/tee_api.c:170
     894:	910073e0 	add	x0, sp, #0x1c
     898:	97fffece 	bl	3d0 <utee_mask_cancellation>
/home/zrz0517/study/TEE/RT-TEE/optee_os/lib/libutee/tee_api.c:172
     89c:	34000040 	cbz	w0, 8a4 <TEE_MaskCancellation+0x18>
/home/zrz0517/study/TEE/RT-TEE/optee_os/lib/libutee/tee_api.c:173
     8a0:	94000088 	bl	ac0 <TEE_Panic>
/home/zrz0517/study/TEE/RT-TEE/optee_os/lib/libutee/tee_api.c:174
     8a4:	b9401fe0 	ldr	w0, [sp, #28]
/home/zrz0517/study/TEE/RT-TEE/optee_os/lib/libutee/tee_api.c:175
     8a8:	a8c27bfd 	ldp	x29, x30, [sp], #32
/home/zrz0517/study/TEE/RT-TEE/optee_os/lib/libutee/tee_api.c:174
     8ac:	7100001f 	cmp	w0, #0x0
/home/zrz0517/study/TEE/RT-TEE/optee_os/lib/libutee/tee_api.c:175
     8b0:	1a9f07e0 	cset	w0, ne  // ne = any
     8b4:	d65f03c0 	ret

00000000000008b8 <TEE_CheckMemoryAccessRights>:
TEE_CheckMemoryAccessRights():
/home/zrz0517/study/TEE/RT-TEE/optee_os/lib/libutee/tee_api.c:184
     8b8:	34000062 	cbz	w2, 8c4 <TEE_CheckMemoryAccessRights+0xc>
/home/zrz0517/study/TEE/RT-TEE/optee_os/lib/libutee/tee_api.c:188
     8bc:	2a0203e2 	mov	w2, w2
     8c0:	17fffebe 	b	3b8 <utee_check_access_rights>
/home/zrz0517/study/TEE/RT-TEE/optee_os/lib/libutee/tee_api.c:200
     8c4:	52800000 	mov	w0, #0x0                   	// #0
     8c8:	d65f03c0 	ret

00000000000008cc <TEE_SetInstanceData>:
TEE_SetInstanceData():
/home/zrz0517/study/TEE/RT-TEE/optee_os/lib/libutee/tee_api.c:204
     8cc:	90000061 	adrp	x1, c000 <ta_props>
     8d0:	f900bc20 	str	x0, [x1, #376]
/home/zrz0517/study/TEE/RT-TEE/optee_os/lib/libutee/tee_api.c:205
     8d4:	d65f03c0 	ret

00000000000008d8 <TEE_GetInstanceData>:
TEE_GetInstanceData():
/home/zrz0517/study/TEE/RT-TEE/optee_os/lib/libutee/tee_api.c:210
     8d8:	90000060 	adrp	x0, c000 <ta_props>
     8dc:	f940bc00 	ldr	x0, [x0, #376]
     8e0:	d65f03c0 	ret

00000000000008e4 <TEE_MemMove>:
TEE_MemMove():
/home/zrz0517/study/TEE/RT-TEE/optee_os/lib/libutee/tee_api.c:214
     8e4:	2a0203e2 	mov	w2, w2
     8e8:	140019e2 	b	7070 <memmove>

00000000000008ec <TEE_MemCompare>:
TEE_MemCompare():
/home/zrz0517/study/TEE/RT-TEE/optee_os/lib/libutee/tee_api.c:219
     8ec:	2a0203e2 	mov	w2, w2
     8f0:	140019cb 	b	701c <memcmp>

00000000000008f4 <TEE_MemFill>:
TEE_MemFill():
/home/zrz0517/study/TEE/RT-TEE/optee_os/lib/libutee/tee_api.c:224
     8f4:	2a0203e2 	mov	w2, w2
     8f8:	140019f5 	b	70cc <memset>

00000000000008fc <TEE_GetSystemTime>:
TEE_GetSystemTime():
/home/zrz0517/study/TEE/RT-TEE/optee_os/lib/libutee/tee_api.c:230
     8fc:	a9bf7bfd 	stp	x29, x30, [sp, #-16]!
/home/zrz0517/study/TEE/RT-TEE/optee_os/lib/libutee/tee_api.c:231
     900:	aa0003e1 	mov	x1, x0
     904:	d2800000 	mov	x0, #0x0                   	// #0
/home/zrz0517/study/TEE/RT-TEE/optee_os/lib/libutee/tee_api.c:230
     908:	910003fd 	mov	x29, sp
/home/zrz0517/study/TEE/RT-TEE/optee_os/lib/libutee/tee_api.c:231
     90c:	97fffeb7 	bl	3e8 <utee_get_time>
/home/zrz0517/study/TEE/RT-TEE/optee_os/lib/libutee/tee_api.c:233
     910:	34000060 	cbz	w0, 91c <TEE_GetSystemTime+0x20>
/home/zrz0517/study/TEE/RT-TEE/optee_os/lib/libutee/tee_api.c:235
     914:	a8c17bfd 	ldp	x29, x30, [sp], #16
/home/zrz0517/study/TEE/RT-TEE/optee_os/lib/libutee/tee_api.c:234
     918:	1400006a 	b	ac0 <TEE_Panic>
/home/zrz0517/study/TEE/RT-TEE/optee_os/lib/libutee/tee_api.c:235
     91c:	a8c17bfd 	ldp	x29, x30, [sp], #16
     920:	d65f03c0 	ret

0000000000000924 <TEE_Wait>:
TEE_Wait():
/home/zrz0517/study/TEE/RT-TEE/optee_os/lib/libutee/tee_api.c:238
     924:	a9be7bfd 	stp	x29, x30, [sp, #-32]!
/home/zrz0517/study/TEE/RT-TEE/optee_os/lib/libutee/tee_api.c:239
     928:	2a0003e0 	mov	w0, w0
/home/zrz0517/study/TEE/RT-TEE/optee_os/lib/libutee/tee_api.c:238
     92c:	910003fd 	mov	x29, sp
     930:	f9000bf3 	str	x19, [sp, #16]
/home/zrz0517/study/TEE/RT-TEE/optee_os/lib/libutee/tee_api.c:239
     934:	97fffeaa 	bl	3dc <utee_wait>
/home/zrz0517/study/TEE/RT-TEE/optee_os/lib/libutee/tee_api.c:241
     938:	7100001f 	cmp	w0, #0x0
     93c:	129fffa1 	mov	w1, #0xffff0002            	// #-65534
/home/zrz0517/study/TEE/RT-TEE/optee_os/lib/libutee/tee_api.c:239
     940:	2a0003f3 	mov	w19, w0
/home/zrz0517/study/TEE/RT-TEE/optee_os/lib/libutee/tee_api.c:241
     944:	7a411004 	ccmp	w0, w1, #0x4, ne  // ne = any
     948:	54000040 	b.eq	950 <TEE_Wait+0x2c>  // b.none
/home/zrz0517/study/TEE/RT-TEE/optee_os/lib/libutee/tee_api.c:242
     94c:	9400005d 	bl	ac0 <TEE_Panic>
/home/zrz0517/study/TEE/RT-TEE/optee_os/lib/libutee/tee_api.c:245
     950:	2a1303e0 	mov	w0, w19
     954:	f9400bf3 	ldr	x19, [sp, #16]
     958:	a8c27bfd 	ldp	x29, x30, [sp], #32
     95c:	d65f03c0 	ret

0000000000000960 <TEE_GetTAPersistentTime>:
TEE_GetTAPersistentTime():
/home/zrz0517/study/TEE/RT-TEE/optee_os/lib/libutee/tee_api.c:248
     960:	a9be7bfd 	stp	x29, x30, [sp, #-32]!
/home/zrz0517/study/TEE/RT-TEE/optee_os/lib/libutee/tee_api.c:251
     964:	aa0003e1 	mov	x1, x0
/home/zrz0517/study/TEE/RT-TEE/optee_os/lib/libutee/tee_api.c:248
     968:	910003fd 	mov	x29, sp
     96c:	a90153f3 	stp	x19, x20, [sp, #16]
     970:	aa0003f4 	mov	x20, x0
/home/zrz0517/study/TEE/RT-TEE/optee_os/lib/libutee/tee_api.c:251
     974:	d2800020 	mov	x0, #0x1                   	// #1
     978:	97fffe9c 	bl	3e8 <utee_get_time>
/home/zrz0517/study/TEE/RT-TEE/optee_os/lib/libutee/tee_api.c:253
     97c:	7100001f 	cmp	w0, #0x0
/home/zrz0517/study/TEE/RT-TEE/optee_os/lib/libutee/tee_api.c:251
     980:	2a0003f3 	mov	w19, w0
/home/zrz0517/study/TEE/RT-TEE/optee_os/lib/libutee/tee_api.c:253
     984:	1a9f07e2 	cset	w2, ne  // ne = any
     988:	1299fe00 	mov	w0, #0xffff300f            	// #-53233
     98c:	6b00027f 	cmp	w19, w0
     990:	1a9f1041 	csel	w1, w2, wzr, ne  // ne = any
     994:	34000041 	cbz	w1, 99c <TEE_GetTAPersistentTime+0x3c>
/home/zrz0517/study/TEE/RT-TEE/optee_os/lib/libutee/tee_api.c:255
     998:	29007e9f 	stp	wzr, wzr, [x20]
/home/zrz0517/study/TEE/RT-TEE/optee_os/lib/libutee/tee_api.c:259
     99c:	11402e60 	add	w0, w19, #0xb, lsl #12
/home/zrz0517/study/TEE/RT-TEE/optee_os/lib/libutee/tee_api.c:258
     9a0:	7100005f 	cmp	w2, #0x0
     9a4:	7a411800 	ccmp	w0, #0x1, #0x0, ne  // ne = any
     9a8:	540000e9 	b.ls	9c4 <TEE_GetTAPersistentTime+0x64>  // b.plast
/home/zrz0517/study/TEE/RT-TEE/optee_os/lib/libutee/tee_api.c:260
     9ac:	340000c1 	cbz	w1, 9c4 <TEE_GetTAPersistentTime+0x64>
/home/zrz0517/study/TEE/RT-TEE/optee_os/lib/libutee/tee_api.c:261
     9b0:	129ffe60 	mov	w0, #0xffff000c            	// #-65524
     9b4:	6b00027f 	cmp	w19, w0
     9b8:	54000060 	b.eq	9c4 <TEE_GetTAPersistentTime+0x64>  // b.none
/home/zrz0517/study/TEE/RT-TEE/optee_os/lib/libutee/tee_api.c:263
     9bc:	2a1303e0 	mov	w0, w19
     9c0:	94000040 	bl	ac0 <TEE_Panic>
/home/zrz0517/study/TEE/RT-TEE/optee_os/lib/libutee/tee_api.c:266
     9c4:	2a1303e0 	mov	w0, w19
     9c8:	a94153f3 	ldp	x19, x20, [sp, #16]
     9cc:	a8c27bfd 	ldp	x29, x30, [sp], #32
     9d0:	d65f03c0 	ret

00000000000009d4 <TEE_SetTAPersistentTime>:
TEE_SetTAPersistentTime():
/home/zrz0517/study/TEE/RT-TEE/optee_os/lib/libutee/tee_api.c:269
     9d4:	a9be7bfd 	stp	x29, x30, [sp, #-32]!
     9d8:	910003fd 	mov	x29, sp
     9dc:	f9000bf3 	str	x19, [sp, #16]
/home/zrz0517/study/TEE/RT-TEE/optee_os/lib/libutee/tee_api.c:272
     9e0:	97fffe85 	bl	3f4 <utee_set_ta_time>
/home/zrz0517/study/TEE/RT-TEE/optee_os/lib/libutee/tee_api.c:274
     9e4:	7100001f 	cmp	w0, #0x0
     9e8:	129ffe61 	mov	w1, #0xffff000c            	// #-65524
/home/zrz0517/study/TEE/RT-TEE/optee_os/lib/libutee/tee_api.c:272
     9ec:	2a0003f3 	mov	w19, w0
/home/zrz0517/study/TEE/RT-TEE/optee_os/lib/libutee/tee_api.c:274
     9f0:	7a411004 	ccmp	w0, w1, #0x4, ne  // ne = any
     9f4:	540000a0 	b.eq	a08 <TEE_SetTAPersistentTime+0x34>  // b.none
/home/zrz0517/study/TEE/RT-TEE/optee_os/lib/libutee/tee_api.c:275
     9f8:	1299f7c1 	mov	w1, #0xffff3041            	// #-53183
     9fc:	6b01001f 	cmp	w0, w1
     a00:	54000040 	b.eq	a08 <TEE_SetTAPersistentTime+0x34>  // b.none
/home/zrz0517/study/TEE/RT-TEE/optee_os/lib/libutee/tee_api.c:277
     a04:	9400002f 	bl	ac0 <TEE_Panic>
/home/zrz0517/study/TEE/RT-TEE/optee_os/lib/libutee/tee_api.c:280
     a08:	2a1303e0 	mov	w0, w19
     a0c:	f9400bf3 	ldr	x19, [sp, #16]
     a10:	a8c27bfd 	ldp	x29, x30, [sp], #32
     a14:	d65f03c0 	ret

0000000000000a18 <TEE_GetREETime>:
TEE_GetREETime():
/home/zrz0517/study/TEE/RT-TEE/optee_os/lib/libutee/tee_api.c:283
     a18:	a9bf7bfd 	stp	x29, x30, [sp, #-16]!
/home/zrz0517/study/TEE/RT-TEE/optee_os/lib/libutee/tee_api.c:284
     a1c:	aa0003e1 	mov	x1, x0
     a20:	d2800040 	mov	x0, #0x2                   	// #2
/home/zrz0517/study/TEE/RT-TEE/optee_os/lib/libutee/tee_api.c:283
     a24:	910003fd 	mov	x29, sp
/home/zrz0517/study/TEE/RT-TEE/optee_os/lib/libutee/tee_api.c:284
     a28:	97fffe70 	bl	3e8 <utee_get_time>
/home/zrz0517/study/TEE/RT-TEE/optee_os/lib/libutee/tee_api.c:286
     a2c:	34000060 	cbz	w0, a38 <TEE_GetREETime+0x20>
/home/zrz0517/study/TEE/RT-TEE/optee_os/lib/libutee/tee_api.c:288
     a30:	a8c17bfd 	ldp	x29, x30, [sp], #16
/home/zrz0517/study/TEE/RT-TEE/optee_os/lib/libutee/tee_api.c:287
     a34:	14000023 	b	ac0 <TEE_Panic>
/home/zrz0517/study/TEE/RT-TEE/optee_os/lib/libutee/tee_api.c:288
     a38:	a8c17bfd 	ldp	x29, x30, [sp], #16
     a3c:	d65f03c0 	ret

0000000000000a40 <TEE_Malloc>:
TEE_Malloc():
/home/zrz0517/study/TEE/RT-TEE/optee_os/lib/libutee/tee_api.c:292
     a40:	35000081 	cbnz	w1, a50 <TEE_Malloc+0x10>
/home/zrz0517/study/TEE/RT-TEE/optee_os/lib/libutee/tee_api.c:293
     a44:	2a0003e1 	mov	w1, w0
     a48:	d2800020 	mov	x0, #0x1                   	// #1
     a4c:	14001758 	b	67ac <calloc>
/home/zrz0517/study/TEE/RT-TEE/optee_os/lib/libutee/tee_api.c:294
     a50:	52b00002 	mov	w2, #0x80000000            	// #-2147483648
     a54:	6b02003f 	cmp	w1, w2
     a58:	54000061 	b.ne	a64 <TEE_Malloc+0x24>  // b.any
/home/zrz0517/study/TEE/RT-TEE/optee_os/lib/libutee/tee_api.c:295
     a5c:	2a0003e0 	mov	w0, w0
     a60:	14001738 	b	6740 <malloc>
/home/zrz0517/study/TEE/RT-TEE/optee_os/lib/libutee/tee_api.c:291
     a64:	a9bf7bfd 	stp	x29, x30, [sp, #-16]!
     a68:	2a0103e5 	mov	w5, w1
/home/zrz0517/study/TEE/RT-TEE/optee_os/lib/libutee/tee_api.c:297
     a6c:	52800023 	mov	w3, #0x1                   	// #1
/home/zrz0517/study/TEE/RT-TEE/optee_os/lib/libutee/tee_api.c:291
     a70:	910003fd 	mov	x29, sp
/home/zrz0517/study/TEE/RT-TEE/optee_os/lib/libutee/tee_api.c:297
     a74:	52800022 	mov	w2, #0x1                   	// #1
     a78:	52802521 	mov	w1, #0x129                 	// #297
     a7c:	b0000044 	adrp	x4, 9000 <__text_end+0xd6c>
     a80:	b0000040 	adrp	x0, 9000 <__text_end+0xd6c>
     a84:	913bf084 	add	x4, x4, #0xefc
     a88:	912c0c00 	add	x0, x0, #0xb03
     a8c:	94001ce8 	bl	7e2c <trace_printf>
/home/zrz0517/study/TEE/RT-TEE/optee_os/lib/libutee/tee_api.c:300
     a90:	d2800000 	mov	x0, #0x0                   	// #0
     a94:	a8c17bfd 	ldp	x29, x30, [sp], #16
     a98:	d65f03c0 	ret

0000000000000a9c <TEE_Realloc>:
TEE_Realloc():
/home/zrz0517/study/TEE/RT-TEE/optee_os/lib/libutee/tee_api.c:304
     a9c:	2a0103e1 	mov	w1, w1
     aa0:	1400175e 	b	6818 <realloc>

0000000000000aa4 <TEE_Free>:
TEE_Free():
/home/zrz0517/study/TEE/RT-TEE/optee_os/lib/libutee/tee_api.c:309
     aa4:	1400173d 	b	6798 <free>

0000000000000aa8 <TEE_CacheClean>:
TEE_CacheClean():
/home/zrz0517/study/TEE/RT-TEE/optee_os/lib/libutee/tee_api.c:315
     aa8:	d2800002 	mov	x2, #0x0                   	// #0
     aac:	17fffecd 	b	5e0 <utee_cache_operation>

0000000000000ab0 <TEE_CacheFlush>:
TEE_CacheFlush():
/home/zrz0517/study/TEE/RT-TEE/optee_os/lib/libutee/tee_api.c:319
     ab0:	d2800022 	mov	x2, #0x1                   	// #1
     ab4:	17fffecb 	b	5e0 <utee_cache_operation>

0000000000000ab8 <TEE_CacheInvalidate>:
TEE_CacheInvalidate():
/home/zrz0517/study/TEE/RT-TEE/optee_os/lib/libutee/tee_api.c:324
     ab8:	d2800042 	mov	x2, #0x2                   	// #2
     abc:	17fffec9 	b	5e0 <utee_cache_operation>

0000000000000ac0 <TEE_Panic>:
TEE_Panic():
/home/zrz0517/study/TEE/RT-TEE/optee_os/lib/libutee/tee_api_panic.c:12
     ac0:	2a0003e0 	mov	w0, w0
     ac4:	17fffe1f 	b	340 <utee_panic>

0000000000000ac8 <api_panic>:
api_panic():
/home/zrz0517/study/TEE/RT-TEE/optee_os/lib/libutee/tee_api_arith_mpi.c:19
     ac8:	a9bf7bfd 	stp	x29, x30, [sp, #-16]!
/home/zrz0517/study/TEE/RT-TEE/optee_os/lib/libutee/tee_api_arith_mpi.c:20
     acc:	aa0203e3 	mov	x3, x2
     ad0:	2a0103e2 	mov	w2, w1
     ad4:	aa0003e1 	mov	x1, x0
/home/zrz0517/study/TEE/RT-TEE/optee_os/lib/libutee/tee_api_arith_mpi.c:19
     ad8:	910003fd 	mov	x29, sp
/home/zrz0517/study/TEE/RT-TEE/optee_os/lib/libutee/tee_api_arith_mpi.c:20
     adc:	d0000040 	adrp	x0, a000 <__func__.4888+0x13>
     ae0:	91014000 	add	x0, x0, #0x50
     ae4:	940005d1 	bl	2228 <printf>
/home/zrz0517/study/TEE/RT-TEE/optee_os/lib/libutee/tee_api_arith_mpi.c:21
     ae8:	528c24e0 	mov	w0, #0x6127                	// #24871
     aec:	72a01620 	movk	w0, #0xb1, lsl #16
     af0:	97fffff4 	bl	ac0 <TEE_Panic>
/home/zrz0517/study/TEE/RT-TEE/optee_os/lib/libutee/tee_api_arith_mpi.c:23 (discriminator 1)
     af4:	14000000 	b	af4 <api_panic+0x2c>

0000000000000af8 <mpi_panic>:
mpi_panic():
/home/zrz0517/study/TEE/RT-TEE/optee_os/lib/libutee/tee_api_arith_mpi.c:29
     af8:	a9bf7bfd 	stp	x29, x30, [sp, #-16]!
/home/zrz0517/study/TEE/RT-TEE/optee_os/lib/libutee/tee_api_arith_mpi.c:30
     afc:	2a0203e3 	mov	w3, w2
     b00:	2a0103e2 	mov	w2, w1
     b04:	aa0003e1 	mov	x1, x0
/home/zrz0517/study/TEE/RT-TEE/optee_os/lib/libutee/tee_api_arith_mpi.c:29
     b08:	910003fd 	mov	x29, sp
/home/zrz0517/study/TEE/RT-TEE/optee_os/lib/libutee/tee_api_arith_mpi.c:30
     b0c:	d0000040 	adrp	x0, a000 <__func__.4888+0x13>
     b10:	9101c000 	add	x0, x0, #0x70
     b14:	940005c5 	bl	2228 <printf>
/home/zrz0517/study/TEE/RT-TEE/optee_os/lib/libutee/tee_api_arith_mpi.c:31
     b18:	528c24e0 	mov	w0, #0x6127                	// #24871
     b1c:	72a01620 	movk	w0, #0xb1, lsl #16
     b20:	97ffffe8 	bl	ac0 <TEE_Panic>
/home/zrz0517/study/TEE/RT-TEE/optee_os/lib/libutee/tee_api_arith_mpi.c:33 (discriminator 1)
     b24:	14000000 	b	b24 <mpi_panic+0x2c>

0000000000000b28 <get_const_mpi>:
get_const_mpi():
/home/zrz0517/study/TEE/RT-TEE/optee_os/lib/libutee/tee_api_arith_mpi.c:110
     b28:	a9bd7bfd 	stp	x29, x30, [sp, #-48]!
     b2c:	910003fd 	mov	x29, sp
init_static_mpi():
/home/zrz0517/study/TEE/RT-TEE/optee_os/lib/libutee/tee_api_arith_mpi.c:65
     b30:	79400c24 	ldrh	w4, [x1, #6]
     b34:	79400823 	ldrh	w3, [x1, #4]
     b38:	b8408422 	ldr	w2, [x1], #8
get_const_mpi():
/home/zrz0517/study/TEE/RT-TEE/optee_os/lib/libutee/tee_api_arith_mpi.c:110
     b3c:	a90153f3 	stp	x19, x20, [sp, #16]
init_static_mpi():
/home/zrz0517/study/TEE/RT-TEE/optee_os/lib/libutee/tee_api_arith_mpi.c:65
     b40:	910083f3 	add	x19, sp, #0x20
get_const_mpi():
/home/zrz0517/study/TEE/RT-TEE/optee_os/lib/libutee/tee_api_arith_mpi.c:110
     b44:	aa0003f4 	mov	x20, x0
init_static_mpi():
/home/zrz0517/study/TEE/RT-TEE/optee_os/lib/libutee/tee_api_arith_mpi.c:65
     b48:	aa1303e0 	mov	x0, x19
     b4c:	94000796 	bl	29a4 <mbedtls_mpi_init_static>
get_mpi():
/home/zrz0517/study/TEE/RT-TEE/optee_os/lib/libutee/tee_api_arith_mpi.c:99
     b50:	aa1403e0 	mov	x0, x20
     b54:	94000788 	bl	2974 <mbedtls_mpi_init_mempool>
get_const_mpi():
/home/zrz0517/study/TEE/RT-TEE/optee_os/lib/libutee/tee_api_arith_mpi.c:115
     b58:	aa1303e1 	mov	x1, x19
     b5c:	aa1403e0 	mov	x0, x20
     b60:	94000859 	bl	2cc4 <mbedtls_mpi_copy>
     b64:	340000c0 	cbz	w0, b7c <get_const_mpi+0x54>
/home/zrz0517/study/TEE/RT-TEE/optee_os/lib/libutee/tee_api_arith_mpi.c:115 (discriminator 1)
     b68:	2a0003e2 	mov	w2, w0
     b6c:	52800e61 	mov	w1, #0x73                  	// #115
     b70:	b0000040 	adrp	x0, 9000 <__text_end+0xd6c>
     b74:	913c3400 	add	x0, x0, #0xf0d
     b78:	97ffffe0 	bl	af8 <mpi_panic>
/home/zrz0517/study/TEE/RT-TEE/optee_os/lib/libutee/tee_api_arith_mpi.c:116
     b7c:	a94153f3 	ldp	x19, x20, [sp, #16]
     b80:	a8c37bfd 	ldp	x29, x30, [sp], #48
     b84:	d65f03c0 	ret

0000000000000b88 <mpi_is_odd>:
mpi_is_odd():
/home/zrz0517/study/TEE/RT-TEE/optee_os/lib/libutee/tee_api_arith_mpi.c:599
     b88:	a9bf7bfd 	stp	x29, x30, [sp, #-16]!
/home/zrz0517/study/TEE/RT-TEE/optee_os/lib/libutee/tee_api_arith_mpi.c:600
     b8c:	d2800001 	mov	x1, #0x0                   	// #0
/home/zrz0517/study/TEE/RT-TEE/optee_os/lib/libutee/tee_api_arith_mpi.c:599
     b90:	910003fd 	mov	x29, sp
/home/zrz0517/study/TEE/RT-TEE/optee_os/lib/libutee/tee_api_arith_mpi.c:600
     b94:	94000912 	bl	2fdc <mbedtls_mpi_get_bit>
     b98:	7100001f 	cmp	w0, #0x0
/home/zrz0517/study/TEE/RT-TEE/optee_os/lib/libutee/tee_api_arith_mpi.c:601
     b9c:	1a9f07e0 	cset	w0, ne  // ne = any
     ba0:	a8c17bfd 	ldp	x29, x30, [sp], #16
     ba4:	d65f03c0 	ret

0000000000000ba8 <rng_read>:
rng_read():
/home/zrz0517/study/TEE/RT-TEE/optee_os/lib/libutee/tee_api_arith_mpi.c:763
     ba8:	a9bf7bfd 	stp	x29, x30, [sp, #-16]!
     bac:	aa0103e0 	mov	x0, x1
/home/zrz0517/study/TEE/RT-TEE/optee_os/lib/libutee/tee_api_arith_mpi.c:764
     bb0:	aa0203e1 	mov	x1, x2
/home/zrz0517/study/TEE/RT-TEE/optee_os/lib/libutee/tee_api_arith_mpi.c:763
     bb4:	910003fd 	mov	x29, sp
/home/zrz0517/study/TEE/RT-TEE/optee_os/lib/libutee/tee_api_arith_mpi.c:764
     bb8:	97fffe48 	bl	4d8 <utee_cryp_random_number_generate>
/home/zrz0517/study/TEE/RT-TEE/optee_os/lib/libutee/tee_api_arith_mpi.c:765
     bbc:	7100001f 	cmp	w0, #0x0
/home/zrz0517/study/TEE/RT-TEE/optee_os/lib/libutee/tee_api_arith_mpi.c:767
     bc0:	a8c17bfd 	ldp	x29, x30, [sp], #16
     bc4:	12800020 	mov	w0, #0xfffffffe            	// #-2
     bc8:	1a9f1000 	csel	w0, w0, wzr, ne  // ne = any
     bcc:	d65f03c0 	ret

0000000000000bd0 <put_mpi>:
put_mpi():
/home/zrz0517/study/TEE/RT-TEE/optee_os/lib/libutee/tee_api_arith_mpi.c:128
     bd0:	39400402 	ldrb	w2, [x0, #1]
/home/zrz0517/study/TEE/RT-TEE/optee_os/lib/libutee/tee_api_arith_mpi.c:127
     bd4:	aa0003e1 	mov	x1, x0
/home/zrz0517/study/TEE/RT-TEE/optee_os/lib/libutee/tee_api_arith_mpi.c:128
     bd8:	7100085f 	cmp	w2, #0x2
     bdc:	540000e1 	b.ne	bf8 <put_mpi+0x28>  // b.any
/home/zrz0517/study/TEE/RT-TEE/optee_os/lib/libutee/tee_api_arith_mpi.c:131
     be0:	39c00002 	ldrsb	w2, [x0]
/home/zrz0517/study/TEE/RT-TEE/optee_os/lib/libutee/tee_api_arith_mpi.c:129
     be4:	f9400400 	ldr	x0, [x0, #8]
/home/zrz0517/study/TEE/RT-TEE/optee_os/lib/libutee/tee_api_arith_mpi.c:132
     be8:	79400821 	ldrh	w1, [x1, #4]
/home/zrz0517/study/TEE/RT-TEE/optee_os/lib/libutee/tee_api_arith_mpi.c:131
     bec:	b81f8002 	stur	w2, [x0, #-8]
/home/zrz0517/study/TEE/RT-TEE/optee_os/lib/libutee/tee_api_arith_mpi.c:132
     bf0:	781fe001 	sturh	w1, [x0, #-2]
/home/zrz0517/study/TEE/RT-TEE/optee_os/lib/libutee/tee_api_arith_mpi.c:136
     bf4:	d65f03c0 	ret
/home/zrz0517/study/TEE/RT-TEE/optee_os/lib/libutee/tee_api_arith_mpi.c:134
     bf8:	14000773 	b	29c4 <mbedtls_mpi_free>

0000000000000bfc <get_mpi>:
get_mpi():
/home/zrz0517/study/TEE/RT-TEE/optee_os/lib/libutee/tee_api_arith_mpi.c:96
     bfc:	b40000a1 	cbz	x1, c10 <get_mpi+0x14>
init_static_mpi():
/home/zrz0517/study/TEE/RT-TEE/optee_os/lib/libutee/tee_api_arith_mpi.c:65
     c00:	79400c24 	ldrh	w4, [x1, #6]
     c04:	79400823 	ldrh	w3, [x1, #4]
     c08:	b8408422 	ldr	w2, [x1], #8
     c0c:	14000766 	b	29a4 <mbedtls_mpi_init_static>
get_mpi():
/home/zrz0517/study/TEE/RT-TEE/optee_os/lib/libutee/tee_api_arith_mpi.c:99
     c10:	14000759 	b	2974 <mbedtls_mpi_init_mempool>

0000000000000c14 <bigint_binary>:
bigint_binary():
/home/zrz0517/study/TEE/RT-TEE/optee_os/lib/libutee/tee_api_arith_mpi.c:336
     c14:	a9b87bfd 	stp	x29, x30, [sp, #-128]!
     c18:	910003fd 	mov	x29, sp
     c1c:	a9025bf5 	stp	x21, x22, [sp, #32]
/home/zrz0517/study/TEE/RT-TEE/optee_os/lib/libutee/tee_api_arith_mpi.c:343
     c20:	910143f5 	add	x21, sp, #0x50
/home/zrz0517/study/TEE/RT-TEE/optee_os/lib/libutee/tee_api_arith_mpi.c:336
     c24:	aa0003f6 	mov	x22, x0
     c28:	a90153f3 	stp	x19, x20, [sp, #16]
     c2c:	aa0203f3 	mov	x19, x2
     c30:	a90363f7 	stp	x23, x24, [sp, #48]
     c34:	aa0103f8 	mov	x24, x1
/home/zrz0517/study/TEE/RT-TEE/optee_os/lib/libutee/tee_api_arith_mpi.c:343
     c38:	aa0003e1 	mov	x1, x0
     c3c:	aa1503e0 	mov	x0, x21
/home/zrz0517/study/TEE/RT-TEE/optee_os/lib/libutee/tee_api_arith_mpi.c:336
     c40:	f90023f9 	str	x25, [sp, #64]
     c44:	aa0303f9 	mov	x25, x3
/home/zrz0517/study/TEE/RT-TEE/optee_os/lib/libutee/tee_api_arith_mpi.c:343
     c48:	97ffffed 	bl	bfc <get_mpi>
/home/zrz0517/study/TEE/RT-TEE/optee_os/lib/libutee/tee_api_arith_mpi.c:345
     c4c:	910183f7 	add	x23, sp, #0x60
     c50:	eb1802df 	cmp	x22, x24
     c54:	54000320 	b.eq	cb8 <bigint_binary+0xa4>  // b.none
/home/zrz0517/study/TEE/RT-TEE/optee_os/lib/libutee/tee_api_arith_mpi.c:340
     c58:	aa1703f4 	mov	x20, x23
/home/zrz0517/study/TEE/RT-TEE/optee_os/lib/libutee/tee_api_arith_mpi.c:348
     c5c:	aa1803e1 	mov	x1, x24
     c60:	aa1703e0 	mov	x0, x23
     c64:	97ffffb1 	bl	b28 <get_const_mpi>
/home/zrz0517/study/TEE/RT-TEE/optee_os/lib/libutee/tee_api_arith_mpi.c:350
     c68:	eb1302df 	cmp	x22, x19
     c6c:	9101c3f6 	add	x22, sp, #0x70
     c70:	54000280 	b.eq	cc0 <bigint_binary+0xac>  // b.none
/home/zrz0517/study/TEE/RT-TEE/optee_os/lib/libutee/tee_api_arith_mpi.c:352
     c74:	eb13031f 	cmp	x24, x19
     c78:	54000280 	b.eq	cc8 <bigint_binary+0xb4>  // b.none
/home/zrz0517/study/TEE/RT-TEE/optee_os/lib/libutee/tee_api_arith_mpi.c:355
     c7c:	aa1303e1 	mov	x1, x19
/home/zrz0517/study/TEE/RT-TEE/optee_os/lib/libutee/tee_api_arith_mpi.c:341
     c80:	aa1603f3 	mov	x19, x22
/home/zrz0517/study/TEE/RT-TEE/optee_os/lib/libutee/tee_api_arith_mpi.c:355
     c84:	aa1603e0 	mov	x0, x22
     c88:	97ffffa8 	bl	b28 <get_const_mpi>
/home/zrz0517/study/TEE/RT-TEE/optee_os/lib/libutee/tee_api_arith_mpi.c:357
     c8c:	aa1303e2 	mov	x2, x19
     c90:	aa1403e1 	mov	x1, x20
     c94:	aa1503e0 	mov	x0, x21
     c98:	d63f0320 	blr	x25
     c9c:	340001a0 	cbz	w0, cd0 <bigint_binary+0xbc>
/home/zrz0517/study/TEE/RT-TEE/optee_os/lib/libutee/tee_api_arith_mpi.c:357 (discriminator 1)
     ca0:	2a0003e2 	mov	w2, w0
     ca4:	b0000040 	adrp	x0, 9000 <__text_end+0xd6c>
     ca8:	913c3400 	add	x0, x0, #0xf0d
     cac:	52802ca1 	mov	w1, #0x165                 	// #357
     cb0:	91003800 	add	x0, x0, #0xe
     cb4:	97ffff91 	bl	af8 <mpi_panic>
/home/zrz0517/study/TEE/RT-TEE/optee_os/lib/libutee/tee_api_arith_mpi.c:346
     cb8:	aa1503f4 	mov	x20, x21
     cbc:	17ffffeb 	b	c68 <bigint_binary+0x54>
/home/zrz0517/study/TEE/RT-TEE/optee_os/lib/libutee/tee_api_arith_mpi.c:351
     cc0:	aa1503f3 	mov	x19, x21
     cc4:	17fffff2 	b	c8c <bigint_binary+0x78>
/home/zrz0517/study/TEE/RT-TEE/optee_os/lib/libutee/tee_api_arith_mpi.c:353
     cc8:	aa1403f3 	mov	x19, x20
     ccc:	17fffff0 	b	c8c <bigint_binary+0x78>
/home/zrz0517/study/TEE/RT-TEE/optee_os/lib/libutee/tee_api_arith_mpi.c:359
     cd0:	aa1503e0 	mov	x0, x21
     cd4:	97ffffbf 	bl	bd0 <put_mpi>
/home/zrz0517/study/TEE/RT-TEE/optee_os/lib/libutee/tee_api_arith_mpi.c:360
     cd8:	eb17029f 	cmp	x20, x23
     cdc:	54000061 	b.ne	ce8 <bigint_binary+0xd4>  // b.any
/home/zrz0517/study/TEE/RT-TEE/optee_os/lib/libutee/tee_api_arith_mpi.c:361
     ce0:	aa1403e0 	mov	x0, x20
     ce4:	97ffffbb 	bl	bd0 <put_mpi>
/home/zrz0517/study/TEE/RT-TEE/optee_os/lib/libutee/tee_api_arith_mpi.c:362
     ce8:	eb16027f 	cmp	x19, x22
     cec:	54000061 	b.ne	cf8 <bigint_binary+0xe4>  // b.any
/home/zrz0517/study/TEE/RT-TEE/optee_os/lib/libutee/tee_api_arith_mpi.c:363
     cf0:	aa1303e0 	mov	x0, x19
     cf4:	97ffffb7 	bl	bd0 <put_mpi>
/home/zrz0517/study/TEE/RT-TEE/optee_os/lib/libutee/tee_api_arith_mpi.c:364
     cf8:	a94153f3 	ldp	x19, x20, [sp, #16]
     cfc:	a9425bf5 	ldp	x21, x22, [sp, #32]
     d00:	a94363f7 	ldp	x23, x24, [sp, #48]
     d04:	f94023f9 	ldr	x25, [sp, #64]
     d08:	a8c87bfd 	ldp	x29, x30, [sp], #128
     d0c:	d65f03c0 	ret

0000000000000d10 <mpi_egcd>:
mpi_egcd():
/home/zrz0517/study/TEE/RT-TEE/optee_os/lib/libutee/tee_api_arith_mpi.c:614
     d10:	a9b27bfd 	stp	x29, x30, [sp, #-224]!
     d14:	910003fd 	mov	x29, sp
     d18:	6d0627e8 	stp	d8, d9, [sp, #96]
     d1c:	9e670028 	fmov	d8, x1
     d20:	9e670069 	fmov	d9, x3
     d24:	a90363f7 	stp	x23, x24, [sp, #48]
get_mpi():
/home/zrz0517/study/TEE/RT-TEE/optee_os/lib/libutee/tee_api_arith_mpi.c:99
     d28:	9101c3f7 	add	x23, sp, #0x70
mpi_egcd():
/home/zrz0517/study/TEE/RT-TEE/optee_os/lib/libutee/tee_api_arith_mpi.c:614
     d2c:	aa0003f8 	mov	x24, x0
get_mpi():
/home/zrz0517/study/TEE/RT-TEE/optee_os/lib/libutee/tee_api_arith_mpi.c:99
     d30:	aa1703e0 	mov	x0, x23
mpi_egcd():
/home/zrz0517/study/TEE/RT-TEE/optee_os/lib/libutee/tee_api_arith_mpi.c:614
     d34:	a90153f3 	stp	x19, x20, [sp, #16]
get_mpi():
/home/zrz0517/study/TEE/RT-TEE/optee_os/lib/libutee/tee_api_arith_mpi.c:99
     d38:	910243f4 	add	x20, sp, #0x90
mpi_egcd():
/home/zrz0517/study/TEE/RT-TEE/optee_os/lib/libutee/tee_api_arith_mpi.c:614
     d3c:	a9025bf5 	stp	x21, x22, [sp, #32]
get_mpi():
/home/zrz0517/study/TEE/RT-TEE/optee_os/lib/libutee/tee_api_arith_mpi.c:99
     d40:	910203f6 	add	x22, sp, #0x80
     d44:	910283f3 	add	x19, sp, #0xa0
mpi_egcd():
/home/zrz0517/study/TEE/RT-TEE/optee_os/lib/libutee/tee_api_arith_mpi.c:614
     d48:	a9046bf9 	stp	x25, x26, [sp, #64]
get_mpi():
/home/zrz0517/study/TEE/RT-TEE/optee_os/lib/libutee/tee_api_arith_mpi.c:99
     d4c:	9102c3fa 	add	x26, sp, #0xb0
     d50:	910303f9 	add	x25, sp, #0xc0
mpi_egcd():
/home/zrz0517/study/TEE/RT-TEE/optee_os/lib/libutee/tee_api_arith_mpi.c:614
     d54:	a90573fb 	stp	x27, x28, [sp, #80]
     d58:	aa0403fb 	mov	x27, x4
     d5c:	aa0203fc 	mov	x28, x2
get_mpi():
/home/zrz0517/study/TEE/RT-TEE/optee_os/lib/libutee/tee_api_arith_mpi.c:99
     d60:	94000705 	bl	2974 <mbedtls_mpi_init_mempool>
     d64:	910343f5 	add	x21, sp, #0xd0
     d68:	aa1603e0 	mov	x0, x22
     d6c:	94000702 	bl	2974 <mbedtls_mpi_init_mempool>
     d70:	aa1403e0 	mov	x0, x20
     d74:	94000700 	bl	2974 <mbedtls_mpi_init_mempool>
     d78:	aa1303e0 	mov	x0, x19
     d7c:	940006fe 	bl	2974 <mbedtls_mpi_init_mempool>
     d80:	aa1a03e0 	mov	x0, x26
     d84:	940006fc 	bl	2974 <mbedtls_mpi_init_mempool>
     d88:	aa1903e0 	mov	x0, x25
     d8c:	940006fa 	bl	2974 <mbedtls_mpi_init_mempool>
     d90:	aa1503e0 	mov	x0, x21
     d94:	940006f8 	bl	2974 <mbedtls_mpi_init_mempool>
mpi_egcd():
/home/zrz0517/study/TEE/RT-TEE/optee_os/lib/libutee/tee_api_arith_mpi.c:633
     d98:	52800001 	mov	w1, #0x0                   	// #0
     d9c:	aa1b03e0 	mov	x0, x27
     da0:	94000a0d 	bl	35d4 <mbedtls_mpi_cmp_int>
     da4:	35000320 	cbnz	w0, e08 <mpi_egcd+0xf8>
/home/zrz0517/study/TEE/RT-TEE/optee_os/lib/libutee/tee_api_arith_mpi.c:634
     da8:	9e660100 	fmov	x0, d8
     dac:	52800021 	mov	w1, #0x1                   	// #1
     db0:	94000870 	bl	2f70 <mbedtls_mpi_lset>
     db4:	340000e0 	cbz	w0, dd0 <mpi_egcd+0xc0>
/home/zrz0517/study/TEE/RT-TEE/optee_os/lib/libutee/tee_api_arith_mpi.c:634 (discriminator 1)
     db8:	2a0003e2 	mov	w2, w0
     dbc:	52804f41 	mov	w1, #0x27a                 	// #634
/home/zrz0517/study/TEE/RT-TEE/optee_os/lib/libutee/tee_api_arith_mpi.c:635 (discriminator 1)
     dc0:	b0000040 	adrp	x0, 9000 <__text_end+0xd6c>
     dc4:	913c3400 	add	x0, x0, #0xf0d
     dc8:	91007000 	add	x0, x0, #0x1c
     dcc:	97ffff4b 	bl	af8 <mpi_panic>
/home/zrz0517/study/TEE/RT-TEE/optee_os/lib/libutee/tee_api_arith_mpi.c:635
     dd0:	52800001 	mov	w1, #0x0                   	// #0
     dd4:	aa1c03e0 	mov	x0, x28
     dd8:	94000866 	bl	2f70 <mbedtls_mpi_lset>
     ddc:	34000080 	cbz	w0, dec <mpi_egcd+0xdc>
/home/zrz0517/study/TEE/RT-TEE/optee_os/lib/libutee/tee_api_arith_mpi.c:635 (discriminator 1)
     de0:	2a0003e2 	mov	w2, w0
     de4:	52804f61 	mov	w1, #0x27b                 	// #635
     de8:	17fffff6 	b	dc0 <mpi_egcd+0xb0>
/home/zrz0517/study/TEE/RT-TEE/optee_os/lib/libutee/tee_api_arith_mpi.c:636
     dec:	9e660121 	fmov	x1, d9
     df0:	aa1803e0 	mov	x0, x24
     df4:	940007b4 	bl	2cc4 <mbedtls_mpi_copy>
     df8:	34002060 	cbz	w0, 1204 <mpi_egcd+0x4f4>
/home/zrz0517/study/TEE/RT-TEE/optee_os/lib/libutee/tee_api_arith_mpi.c:636 (discriminator 1)
     dfc:	2a0003e2 	mov	w2, w0
     e00:	52804f81 	mov	w1, #0x27c                 	// #636
     e04:	17ffffef 	b	dc0 <mpi_egcd+0xb0>
/home/zrz0517/study/TEE/RT-TEE/optee_os/lib/libutee/tee_api_arith_mpi.c:640
     e08:	9e660121 	fmov	x1, d9
     e0c:	aa1a03e0 	mov	x0, x26
     e10:	940007ad 	bl	2cc4 <mbedtls_mpi_copy>
     e14:	34000080 	cbz	w0, e24 <mpi_egcd+0x114>
/home/zrz0517/study/TEE/RT-TEE/optee_os/lib/libutee/tee_api_arith_mpi.c:640 (discriminator 1)
     e18:	2a0003e2 	mov	w2, w0
     e1c:	52805001 	mov	w1, #0x280                 	// #640
     e20:	17ffffe8 	b	dc0 <mpi_egcd+0xb0>
/home/zrz0517/study/TEE/RT-TEE/optee_os/lib/libutee/tee_api_arith_mpi.c:641
     e24:	aa1b03e1 	mov	x1, x27
     e28:	aa1903e0 	mov	x0, x25
/home/zrz0517/study/TEE/RT-TEE/optee_os/lib/libutee/tee_api_arith_mpi.c:643
     e2c:	5280001b 	mov	w27, #0x0                   	// #0
/home/zrz0517/study/TEE/RT-TEE/optee_os/lib/libutee/tee_api_arith_mpi.c:641
     e30:	940007a5 	bl	2cc4 <mbedtls_mpi_copy>
     e34:	34000160 	cbz	w0, e60 <mpi_egcd+0x150>
/home/zrz0517/study/TEE/RT-TEE/optee_os/lib/libutee/tee_api_arith_mpi.c:641 (discriminator 1)
     e38:	2a0003e2 	mov	w2, w0
     e3c:	52805021 	mov	w1, #0x281                 	// #641
     e40:	17ffffe0 	b	dc0 <mpi_egcd+0xb0>
/home/zrz0517/study/TEE/RT-TEE/optee_os/lib/libutee/tee_api_arith_mpi.c:647
     e44:	d2800021 	mov	x1, #0x1                   	// #1
     e48:	aa1903e0 	mov	x0, x25
     e4c:	94000954 	bl	339c <mbedtls_mpi_shift_r>
     e50:	34000080 	cbz	w0, e60 <mpi_egcd+0x150>
/home/zrz0517/study/TEE/RT-TEE/optee_os/lib/libutee/tee_api_arith_mpi.c:647 (discriminator 1)
     e54:	2a0003e2 	mov	w2, w0
     e58:	528050e1 	mov	w1, #0x287                 	// #647
     e5c:	17ffffd9 	b	dc0 <mpi_egcd+0xb0>
mpi_is_even():
/home/zrz0517/study/TEE/RT-TEE/optee_os/lib/libutee/tee_api_arith_mpi.c:605
     e60:	aa1a03e0 	mov	x0, x26
     e64:	97ffff49 	bl	b88 <mpi_is_odd>
mpi_egcd():
/home/zrz0517/study/TEE/RT-TEE/optee_os/lib/libutee/tee_api_arith_mpi.c:644
     e68:	72001c1f 	tst	w0, #0xff
     e6c:	54000100 	b.eq	e8c <mpi_egcd+0x17c>  // b.none
/home/zrz0517/study/TEE/RT-TEE/optee_os/lib/libutee/tee_api_arith_mpi.c:650
     e70:	aa1a03e1 	mov	x1, x26
     e74:	aa1503e0 	mov	x0, x21
     e78:	94000793 	bl	2cc4 <mbedtls_mpi_copy>
     e7c:	34000200 	cbz	w0, ebc <mpi_egcd+0x1ac>
/home/zrz0517/study/TEE/RT-TEE/optee_os/lib/libutee/tee_api_arith_mpi.c:650 (discriminator 1)
     e80:	2a0003e2 	mov	w2, w0
     e84:	52805141 	mov	w1, #0x28a                 	// #650
     e88:	17ffffce 	b	dc0 <mpi_egcd+0xb0>
mpi_is_even():
/home/zrz0517/study/TEE/RT-TEE/optee_os/lib/libutee/tee_api_arith_mpi.c:605
     e8c:	aa1903e0 	mov	x0, x25
     e90:	97ffff3e 	bl	b88 <mpi_is_odd>
mpi_egcd():
/home/zrz0517/study/TEE/RT-TEE/optee_os/lib/libutee/tee_api_arith_mpi.c:644
     e94:	72001c1f 	tst	w0, #0xff
     e98:	54fffec1 	b.ne	e70 <mpi_egcd+0x160>  // b.any
/home/zrz0517/study/TEE/RT-TEE/optee_os/lib/libutee/tee_api_arith_mpi.c:645
     e9c:	1100077b 	add	w27, w27, #0x1
/home/zrz0517/study/TEE/RT-TEE/optee_os/lib/libutee/tee_api_arith_mpi.c:646
     ea0:	d2800021 	mov	x1, #0x1                   	// #1
     ea4:	aa1a03e0 	mov	x0, x26
     ea8:	9400093d 	bl	339c <mbedtls_mpi_shift_r>
     eac:	34fffcc0 	cbz	w0, e44 <mpi_egcd+0x134>
/home/zrz0517/study/TEE/RT-TEE/optee_os/lib/libutee/tee_api_arith_mpi.c:646 (discriminator 1)
     eb0:	2a0003e2 	mov	w2, w0
     eb4:	528050c1 	mov	w1, #0x286                 	// #646
     eb8:	17ffffc2 	b	dc0 <mpi_egcd+0xb0>
/home/zrz0517/study/TEE/RT-TEE/optee_os/lib/libutee/tee_api_arith_mpi.c:651
     ebc:	aa1903e1 	mov	x1, x25
     ec0:	aa1803e0 	mov	x0, x24
     ec4:	94000780 	bl	2cc4 <mbedtls_mpi_copy>
     ec8:	34000080 	cbz	w0, ed8 <mpi_egcd+0x1c8>
/home/zrz0517/study/TEE/RT-TEE/optee_os/lib/libutee/tee_api_arith_mpi.c:651 (discriminator 1)
     ecc:	2a0003e2 	mov	w2, w0
     ed0:	52805161 	mov	w1, #0x28b                 	// #651
     ed4:	17ffffbb 	b	dc0 <mpi_egcd+0xb0>
/home/zrz0517/study/TEE/RT-TEE/optee_os/lib/libutee/tee_api_arith_mpi.c:652
     ed8:	52800021 	mov	w1, #0x1                   	// #1
     edc:	aa1703e0 	mov	x0, x23
     ee0:	94000824 	bl	2f70 <mbedtls_mpi_lset>
     ee4:	34000080 	cbz	w0, ef4 <mpi_egcd+0x1e4>
/home/zrz0517/study/TEE/RT-TEE/optee_os/lib/libutee/tee_api_arith_mpi.c:652 (discriminator 1)
     ee8:	2a0003e2 	mov	w2, w0
     eec:	52805181 	mov	w1, #0x28c                 	// #652
     ef0:	17ffffb4 	b	dc0 <mpi_egcd+0xb0>
/home/zrz0517/study/TEE/RT-TEE/optee_os/lib/libutee/tee_api_arith_mpi.c:653
     ef4:	52800001 	mov	w1, #0x0                   	// #0
     ef8:	aa1603e0 	mov	x0, x22
     efc:	9400081d 	bl	2f70 <mbedtls_mpi_lset>
     f00:	34000080 	cbz	w0, f10 <mpi_egcd+0x200>
/home/zrz0517/study/TEE/RT-TEE/optee_os/lib/libutee/tee_api_arith_mpi.c:653 (discriminator 1)
     f04:	2a0003e2 	mov	w2, w0
     f08:	528051a1 	mov	w1, #0x28d                 	// #653
     f0c:	17ffffad 	b	dc0 <mpi_egcd+0xb0>
/home/zrz0517/study/TEE/RT-TEE/optee_os/lib/libutee/tee_api_arith_mpi.c:654
     f10:	52800001 	mov	w1, #0x0                   	// #0
     f14:	aa1403e0 	mov	x0, x20
     f18:	94000816 	bl	2f70 <mbedtls_mpi_lset>
     f1c:	34000080 	cbz	w0, f2c <mpi_egcd+0x21c>
/home/zrz0517/study/TEE/RT-TEE/optee_os/lib/libutee/tee_api_arith_mpi.c:654 (discriminator 1)
     f20:	2a0003e2 	mov	w2, w0
     f24:	528051c1 	mov	w1, #0x28e                 	// #654
     f28:	17ffffa6 	b	dc0 <mpi_egcd+0xb0>
/home/zrz0517/study/TEE/RT-TEE/optee_os/lib/libutee/tee_api_arith_mpi.c:655
     f2c:	52800021 	mov	w1, #0x1                   	// #1
     f30:	aa1303e0 	mov	x0, x19
     f34:	9400080f 	bl	2f70 <mbedtls_mpi_lset>
     f38:	34001340 	cbz	w0, 11a0 <mpi_egcd+0x490>
/home/zrz0517/study/TEE/RT-TEE/optee_os/lib/libutee/tee_api_arith_mpi.c:655 (discriminator 1)
     f3c:	2a0003e2 	mov	w2, w0
     f40:	528051e1 	mov	w1, #0x28f                 	// #655
     f44:	17ffff9f 	b	dc0 <mpi_egcd+0xb0>
/home/zrz0517/study/TEE/RT-TEE/optee_os/lib/libutee/tee_api_arith_mpi.c:659
     f48:	d2800021 	mov	x1, #0x1                   	// #1
     f4c:	aa1503e0 	mov	x0, x21
     f50:	94000913 	bl	339c <mbedtls_mpi_shift_r>
     f54:	34000080 	cbz	w0, f64 <mpi_egcd+0x254>
/home/zrz0517/study/TEE/RT-TEE/optee_os/lib/libutee/tee_api_arith_mpi.c:659 (discriminator 1)
     f58:	2a0003e2 	mov	w2, w0
     f5c:	52805261 	mov	w1, #0x293                 	// #659
     f60:	17ffff98 	b	dc0 <mpi_egcd+0xb0>
/home/zrz0517/study/TEE/RT-TEE/optee_os/lib/libutee/tee_api_arith_mpi.c:660
     f64:	aa1703e0 	mov	x0, x23
     f68:	97ffff08 	bl	b88 <mpi_is_odd>
     f6c:	72001c1f 	tst	w0, #0xff
     f70:	54000120 	b.eq	f94 <mpi_egcd+0x284>  // b.none
/home/zrz0517/study/TEE/RT-TEE/optee_os/lib/libutee/tee_api_arith_mpi.c:661
     f74:	aa1903e2 	mov	x2, x25
     f78:	aa1703e1 	mov	x1, x23
     f7c:	aa1703e0 	mov	x0, x23
     f80:	94000a25 	bl	3814 <mbedtls_mpi_add_mpi>
     f84:	340001e0 	cbz	w0, fc0 <mpi_egcd+0x2b0>
/home/zrz0517/study/TEE/RT-TEE/optee_os/lib/libutee/tee_api_arith_mpi.c:661 (discriminator 1)
     f88:	2a0003e2 	mov	w2, w0
     f8c:	528052a1 	mov	w1, #0x295                 	// #661
     f90:	17ffff8c 	b	dc0 <mpi_egcd+0xb0>
/home/zrz0517/study/TEE/RT-TEE/optee_os/lib/libutee/tee_api_arith_mpi.c:660 (discriminator 1)
     f94:	aa1603e0 	mov	x0, x22
     f98:	97fffefc 	bl	b88 <mpi_is_odd>
     f9c:	72001c1f 	tst	w0, #0xff
     fa0:	54fffea1 	b.ne	f74 <mpi_egcd+0x264>  // b.any
/home/zrz0517/study/TEE/RT-TEE/optee_os/lib/libutee/tee_api_arith_mpi.c:664
     fa4:	d2800021 	mov	x1, #0x1                   	// #1
     fa8:	aa1703e0 	mov	x0, x23
     fac:	940008fc 	bl	339c <mbedtls_mpi_shift_r>
     fb0:	34000180 	cbz	w0, fe0 <mpi_egcd+0x2d0>
/home/zrz0517/study/TEE/RT-TEE/optee_os/lib/libutee/tee_api_arith_mpi.c:664 (discriminator 1)
     fb4:	2a0003e2 	mov	w2, w0
     fb8:	52805301 	mov	w1, #0x298                 	// #664
     fbc:	17ffff81 	b	dc0 <mpi_egcd+0xb0>
/home/zrz0517/study/TEE/RT-TEE/optee_os/lib/libutee/tee_api_arith_mpi.c:662
     fc0:	aa1a03e2 	mov	x2, x26
     fc4:	aa1603e1 	mov	x1, x22
     fc8:	aa1603e0 	mov	x0, x22
     fcc:	94000a32 	bl	3894 <mbedtls_mpi_sub_mpi>
     fd0:	34fffea0 	cbz	w0, fa4 <mpi_egcd+0x294>
/home/zrz0517/study/TEE/RT-TEE/optee_os/lib/libutee/tee_api_arith_mpi.c:662 (discriminator 1)
     fd4:	2a0003e2 	mov	w2, w0
     fd8:	528052c1 	mov	w1, #0x296                 	// #662
     fdc:	17ffff79 	b	dc0 <mpi_egcd+0xb0>
/home/zrz0517/study/TEE/RT-TEE/optee_os/lib/libutee/tee_api_arith_mpi.c:665
     fe0:	d2800021 	mov	x1, #0x1                   	// #1
     fe4:	aa1603e0 	mov	x0, x22
     fe8:	940008ed 	bl	339c <mbedtls_mpi_shift_r>
     fec:	34000080 	cbz	w0, ffc <mpi_egcd+0x2ec>
/home/zrz0517/study/TEE/RT-TEE/optee_os/lib/libutee/tee_api_arith_mpi.c:665 (discriminator 1)
     ff0:	2a0003e2 	mov	w2, w0
     ff4:	52805321 	mov	w1, #0x299                 	// #665
     ff8:	17ffff72 	b	dc0 <mpi_egcd+0xb0>
mpi_is_even():
/home/zrz0517/study/TEE/RT-TEE/optee_os/lib/libutee/tee_api_arith_mpi.c:605
     ffc:	aa1503e0 	mov	x0, x21
    1000:	97fffee2 	bl	b88 <mpi_is_odd>
mpi_egcd():
/home/zrz0517/study/TEE/RT-TEE/optee_os/lib/libutee/tee_api_arith_mpi.c:658
    1004:	72001c1f 	tst	w0, #0xff
    1008:	54fffa00 	b.eq	f48 <mpi_egcd+0x238>  // b.none
mpi_is_even():
/home/zrz0517/study/TEE/RT-TEE/optee_os/lib/libutee/tee_api_arith_mpi.c:605
    100c:	aa1803e0 	mov	x0, x24
    1010:	97fffede 	bl	b88 <mpi_is_odd>
mpi_egcd():
/home/zrz0517/study/TEE/RT-TEE/optee_os/lib/libutee/tee_api_arith_mpi.c:668
    1014:	72001c1f 	tst	w0, #0xff
    1018:	540001a0 	b.eq	104c <mpi_egcd+0x33c>  // b.none
/home/zrz0517/study/TEE/RT-TEE/optee_os/lib/libutee/tee_api_arith_mpi.c:679
    101c:	aa1803e1 	mov	x1, x24
    1020:	aa1503e0 	mov	x0, x21
    1024:	94000937 	bl	3500 <mbedtls_mpi_cmp_mpi>
    1028:	37f808c0 	tbnz	w0, #31, 1140 <mpi_egcd+0x430>
/home/zrz0517/study/TEE/RT-TEE/optee_os/lib/libutee/tee_api_arith_mpi.c:680
    102c:	aa1803e2 	mov	x2, x24
    1030:	aa1503e1 	mov	x1, x21
    1034:	aa1503e0 	mov	x0, x21
    1038:	94000a17 	bl	3894 <mbedtls_mpi_sub_mpi>
    103c:	34000620 	cbz	w0, 1100 <mpi_egcd+0x3f0>
/home/zrz0517/study/TEE/RT-TEE/optee_os/lib/libutee/tee_api_arith_mpi.c:680 (discriminator 1)
    1040:	2a0003e2 	mov	w2, w0
    1044:	52805501 	mov	w1, #0x2a8                 	// #680
    1048:	17ffff5e 	b	dc0 <mpi_egcd+0xb0>
/home/zrz0517/study/TEE/RT-TEE/optee_os/lib/libutee/tee_api_arith_mpi.c:669
    104c:	d2800021 	mov	x1, #0x1                   	// #1
    1050:	aa1803e0 	mov	x0, x24
    1054:	940008d2 	bl	339c <mbedtls_mpi_shift_r>
    1058:	34000080 	cbz	w0, 1068 <mpi_egcd+0x358>
/home/zrz0517/study/TEE/RT-TEE/optee_os/lib/libutee/tee_api_arith_mpi.c:669 (discriminator 1)
    105c:	2a0003e2 	mov	w2, w0
    1060:	528053a1 	mov	w1, #0x29d                 	// #669
    1064:	17ffff57 	b	dc0 <mpi_egcd+0xb0>
/home/zrz0517/study/TEE/RT-TEE/optee_os/lib/libutee/tee_api_arith_mpi.c:670
    1068:	aa1403e0 	mov	x0, x20
    106c:	97fffec7 	bl	b88 <mpi_is_odd>
    1070:	72001c1f 	tst	w0, #0xff
    1074:	54000120 	b.eq	1098 <mpi_egcd+0x388>  // b.none
/home/zrz0517/study/TEE/RT-TEE/optee_os/lib/libutee/tee_api_arith_mpi.c:671
    1078:	aa1903e2 	mov	x2, x25
    107c:	aa1403e1 	mov	x1, x20
    1080:	aa1403e0 	mov	x0, x20
    1084:	940009e4 	bl	3814 <mbedtls_mpi_add_mpi>
    1088:	340001e0 	cbz	w0, 10c4 <mpi_egcd+0x3b4>
/home/zrz0517/study/TEE/RT-TEE/optee_os/lib/libutee/tee_api_arith_mpi.c:671 (discriminator 1)
    108c:	2a0003e2 	mov	w2, w0
    1090:	528053e1 	mov	w1, #0x29f                 	// #671
    1094:	17ffff4b 	b	dc0 <mpi_egcd+0xb0>
/home/zrz0517/study/TEE/RT-TEE/optee_os/lib/libutee/tee_api_arith_mpi.c:670 (discriminator 1)
    1098:	aa1303e0 	mov	x0, x19
    109c:	97fffebb 	bl	b88 <mpi_is_odd>
    10a0:	72001c1f 	tst	w0, #0xff
    10a4:	54fffea1 	b.ne	1078 <mpi_egcd+0x368>  // b.any
/home/zrz0517/study/TEE/RT-TEE/optee_os/lib/libutee/tee_api_arith_mpi.c:674
    10a8:	d2800021 	mov	x1, #0x1                   	// #1
    10ac:	aa1403e0 	mov	x0, x20
    10b0:	940008bb 	bl	339c <mbedtls_mpi_shift_r>
    10b4:	34000180 	cbz	w0, 10e4 <mpi_egcd+0x3d4>
/home/zrz0517/study/TEE/RT-TEE/optee_os/lib/libutee/tee_api_arith_mpi.c:674 (discriminator 1)
    10b8:	2a0003e2 	mov	w2, w0
    10bc:	52805441 	mov	w1, #0x2a2                 	// #674
    10c0:	17ffff40 	b	dc0 <mpi_egcd+0xb0>
/home/zrz0517/study/TEE/RT-TEE/optee_os/lib/libutee/tee_api_arith_mpi.c:672
    10c4:	aa1a03e2 	mov	x2, x26
    10c8:	aa1303e1 	mov	x1, x19
    10cc:	aa1303e0 	mov	x0, x19
    10d0:	940009f1 	bl	3894 <mbedtls_mpi_sub_mpi>
    10d4:	34fffea0 	cbz	w0, 10a8 <mpi_egcd+0x398>
/home/zrz0517/study/TEE/RT-TEE/optee_os/lib/libutee/tee_api_arith_mpi.c:672 (discriminator 1)
    10d8:	2a0003e2 	mov	w2, w0
    10dc:	52805401 	mov	w1, #0x2a0                 	// #672
    10e0:	17ffff38 	b	dc0 <mpi_egcd+0xb0>
/home/zrz0517/study/TEE/RT-TEE/optee_os/lib/libutee/tee_api_arith_mpi.c:675
    10e4:	d2800021 	mov	x1, #0x1                   	// #1
    10e8:	aa1303e0 	mov	x0, x19
    10ec:	940008ac 	bl	339c <mbedtls_mpi_shift_r>
    10f0:	34fff8e0 	cbz	w0, 100c <mpi_egcd+0x2fc>
/home/zrz0517/study/TEE/RT-TEE/optee_os/lib/libutee/tee_api_arith_mpi.c:675 (discriminator 1)
    10f4:	2a0003e2 	mov	w2, w0
    10f8:	52805461 	mov	w1, #0x2a3                 	// #675
    10fc:	17ffff31 	b	dc0 <mpi_egcd+0xb0>
/home/zrz0517/study/TEE/RT-TEE/optee_os/lib/libutee/tee_api_arith_mpi.c:681
    1100:	aa1403e2 	mov	x2, x20
    1104:	aa1703e1 	mov	x1, x23
    1108:	aa1703e0 	mov	x0, x23
    110c:	940009e2 	bl	3894 <mbedtls_mpi_sub_mpi>
    1110:	34000080 	cbz	w0, 1120 <mpi_egcd+0x410>
/home/zrz0517/study/TEE/RT-TEE/optee_os/lib/libutee/tee_api_arith_mpi.c:681 (discriminator 1)
    1114:	2a0003e2 	mov	w2, w0
    1118:	52805521 	mov	w1, #0x2a9                 	// #681
    111c:	17ffff29 	b	dc0 <mpi_egcd+0xb0>
/home/zrz0517/study/TEE/RT-TEE/optee_os/lib/libutee/tee_api_arith_mpi.c:682
    1120:	aa1303e2 	mov	x2, x19
    1124:	aa1603e1 	mov	x1, x22
    1128:	aa1603e0 	mov	x0, x22
    112c:	940009da 	bl	3894 <mbedtls_mpi_sub_mpi>
    1130:	34000380 	cbz	w0, 11a0 <mpi_egcd+0x490>
/home/zrz0517/study/TEE/RT-TEE/optee_os/lib/libutee/tee_api_arith_mpi.c:682 (discriminator 1)
    1134:	2a0003e2 	mov	w2, w0
    1138:	52805541 	mov	w1, #0x2aa                 	// #682
    113c:	17ffff21 	b	dc0 <mpi_egcd+0xb0>
/home/zrz0517/study/TEE/RT-TEE/optee_os/lib/libutee/tee_api_arith_mpi.c:684
    1140:	aa1503e2 	mov	x2, x21
    1144:	aa1803e1 	mov	x1, x24
    1148:	aa1803e0 	mov	x0, x24
    114c:	940009d2 	bl	3894 <mbedtls_mpi_sub_mpi>
    1150:	34000080 	cbz	w0, 1160 <mpi_egcd+0x450>
/home/zrz0517/study/TEE/RT-TEE/optee_os/lib/libutee/tee_api_arith_mpi.c:684 (discriminator 1)
    1154:	2a0003e2 	mov	w2, w0
    1158:	52805581 	mov	w1, #0x2ac                 	// #684
    115c:	17ffff19 	b	dc0 <mpi_egcd+0xb0>
/home/zrz0517/study/TEE/RT-TEE/optee_os/lib/libutee/tee_api_arith_mpi.c:685
    1160:	aa1703e2 	mov	x2, x23
    1164:	aa1403e1 	mov	x1, x20
    1168:	aa1403e0 	mov	x0, x20
    116c:	940009ca 	bl	3894 <mbedtls_mpi_sub_mpi>
    1170:	34000080 	cbz	w0, 1180 <mpi_egcd+0x470>
/home/zrz0517/study/TEE/RT-TEE/optee_os/lib/libutee/tee_api_arith_mpi.c:685 (discriminator 1)
    1174:	2a0003e2 	mov	w2, w0
    1178:	528055a1 	mov	w1, #0x2ad                 	// #685
    117c:	17ffff11 	b	dc0 <mpi_egcd+0xb0>
/home/zrz0517/study/TEE/RT-TEE/optee_os/lib/libutee/tee_api_arith_mpi.c:686
    1180:	aa1603e2 	mov	x2, x22
    1184:	aa1303e1 	mov	x1, x19
    1188:	aa1303e0 	mov	x0, x19
    118c:	940009c2 	bl	3894 <mbedtls_mpi_sub_mpi>
    1190:	34000080 	cbz	w0, 11a0 <mpi_egcd+0x490>
/home/zrz0517/study/TEE/RT-TEE/optee_os/lib/libutee/tee_api_arith_mpi.c:686 (discriminator 1)
    1194:	2a0003e2 	mov	w2, w0
    1198:	528055c1 	mov	w1, #0x2ae                 	// #686
    119c:	17ffff09 	b	dc0 <mpi_egcd+0xb0>
/home/zrz0517/study/TEE/RT-TEE/optee_os/lib/libutee/tee_api_arith_mpi.c:657
    11a0:	52800001 	mov	w1, #0x0                   	// #0
    11a4:	aa1503e0 	mov	x0, x21
    11a8:	9400090b 	bl	35d4 <mbedtls_mpi_cmp_int>
    11ac:	35fff280 	cbnz	w0, ffc <mpi_egcd+0x2ec>
/home/zrz0517/study/TEE/RT-TEE/optee_os/lib/libutee/tee_api_arith_mpi.c:690
    11b0:	9e660100 	fmov	x0, d8
    11b4:	aa1403e1 	mov	x1, x20
    11b8:	940006c3 	bl	2cc4 <mbedtls_mpi_copy>
    11bc:	34000080 	cbz	w0, 11cc <mpi_egcd+0x4bc>
/home/zrz0517/study/TEE/RT-TEE/optee_os/lib/libutee/tee_api_arith_mpi.c:690 (discriminator 1)
    11c0:	2a0003e2 	mov	w2, w0
    11c4:	52805641 	mov	w1, #0x2b2                 	// #690
    11c8:	17fffefe 	b	dc0 <mpi_egcd+0xb0>
/home/zrz0517/study/TEE/RT-TEE/optee_os/lib/libutee/tee_api_arith_mpi.c:691
    11cc:	aa1303e1 	mov	x1, x19
    11d0:	aa1c03e0 	mov	x0, x28
    11d4:	940006bc 	bl	2cc4 <mbedtls_mpi_copy>
    11d8:	34000080 	cbz	w0, 11e8 <mpi_egcd+0x4d8>
/home/zrz0517/study/TEE/RT-TEE/optee_os/lib/libutee/tee_api_arith_mpi.c:691 (discriminator 1)
    11dc:	2a0003e2 	mov	w2, w0
    11e0:	52805661 	mov	w1, #0x2b3                 	// #691
    11e4:	17fffef7 	b	dc0 <mpi_egcd+0xb0>
/home/zrz0517/study/TEE/RT-TEE/optee_os/lib/libutee/tee_api_arith_mpi.c:692
    11e8:	2a1b03e1 	mov	w1, w27
    11ec:	aa1803e0 	mov	x0, x24
    11f0:	9400082c 	bl	32a0 <mbedtls_mpi_shift_l>
    11f4:	34000080 	cbz	w0, 1204 <mpi_egcd+0x4f4>
/home/zrz0517/study/TEE/RT-TEE/optee_os/lib/libutee/tee_api_arith_mpi.c:692 (discriminator 1)
    11f8:	2a0003e2 	mov	w2, w0
    11fc:	52805681 	mov	w1, #0x2b4                 	// #692
    1200:	17fffef0 	b	dc0 <mpi_egcd+0xb0>
/home/zrz0517/study/TEE/RT-TEE/optee_os/lib/libutee/tee_api_arith_mpi.c:695
    1204:	aa1703e0 	mov	x0, x23
    1208:	97fffe72 	bl	bd0 <put_mpi>
/home/zrz0517/study/TEE/RT-TEE/optee_os/lib/libutee/tee_api_arith_mpi.c:696
    120c:	aa1603e0 	mov	x0, x22
    1210:	97fffe70 	bl	bd0 <put_mpi>
/home/zrz0517/study/TEE/RT-TEE/optee_os/lib/libutee/tee_api_arith_mpi.c:697
    1214:	aa1403e0 	mov	x0, x20
    1218:	97fffe6e 	bl	bd0 <put_mpi>
/home/zrz0517/study/TEE/RT-TEE/optee_os/lib/libutee/tee_api_arith_mpi.c:698
    121c:	aa1303e0 	mov	x0, x19
    1220:	97fffe6c 	bl	bd0 <put_mpi>
/home/zrz0517/study/TEE/RT-TEE/optee_os/lib/libutee/tee_api_arith_mpi.c:699
    1224:	aa1a03e0 	mov	x0, x26
    1228:	97fffe6a 	bl	bd0 <put_mpi>
/home/zrz0517/study/TEE/RT-TEE/optee_os/lib/libutee/tee_api_arith_mpi.c:700
    122c:	aa1903e0 	mov	x0, x25
    1230:	97fffe68 	bl	bd0 <put_mpi>
/home/zrz0517/study/TEE/RT-TEE/optee_os/lib/libutee/tee_api_arith_mpi.c:701
    1234:	aa1503e0 	mov	x0, x21
    1238:	97fffe66 	bl	bd0 <put_mpi>
/home/zrz0517/study/TEE/RT-TEE/optee_os/lib/libutee/tee_api_arith_mpi.c:702
    123c:	a94153f3 	ldp	x19, x20, [sp, #16]
    1240:	a9425bf5 	ldp	x21, x22, [sp, #32]
    1244:	a94363f7 	ldp	x23, x24, [sp, #48]
    1248:	a9446bf9 	ldp	x25, x26, [sp, #64]
    124c:	a94573fb 	ldp	x27, x28, [sp, #80]
    1250:	6d4627e8 	ldp	d8, d9, [sp, #96]
    1254:	a8ce7bfd 	ldp	x29, x30, [sp], #224
    1258:	d65f03c0 	ret

000000000000125c <_TEE_MathAPI_Init>:
_TEE_MathAPI_Init():
/home/zrz0517/study/TEE/RT-TEE/optee_os/lib/libutee/tee_api_arith_mpi.c:44
    125c:	a9bf7bfd 	stp	x29, x30, [sp, #-16]!
/home/zrz0517/study/TEE/RT-TEE/optee_os/lib/libutee/tee_api_arith_mpi.c:48
    1260:	d2840001 	mov	x1, #0x2000                	// #8192
    1264:	d2800002 	mov	x2, #0x0                   	// #0
/home/zrz0517/study/TEE/RT-TEE/optee_os/lib/libutee/tee_api_arith_mpi.c:44
    1268:	910003fd 	mov	x29, sp
/home/zrz0517/study/TEE/RT-TEE/optee_os/lib/libutee/tee_api_arith_mpi.c:48
    126c:	f0000040 	adrp	x0, c000 <ta_props>
    1270:	91074000 	add	x0, x0, #0x1d0
    1274:	94001b7d 	bl	8068 <mempool_alloc_pool>
    1278:	b0000041 	adrp	x1, a000 <__func__.4888+0x13>
    127c:	f946ec21 	ldr	x1, [x1, #3544]
    1280:	f9000020 	str	x0, [x1]
/home/zrz0517/study/TEE/RT-TEE/optee_os/lib/libutee/tee_api_arith_mpi.c:49
    1284:	b5000100 	cbnz	x0, 12a4 <_TEE_MathAPI_Init+0x48>
/home/zrz0517/study/TEE/RT-TEE/optee_os/lib/libutee/tee_api_arith_mpi.c:50
    1288:	90000040 	adrp	x0, 9000 <__text_end+0xd6c>
    128c:	913c3400 	add	x0, x0, #0xf0d
    1290:	b0000042 	adrp	x2, a000 <__func__.4888+0x13>
    1294:	52800641 	mov	w1, #0x32                  	// #50
    1298:	91025442 	add	x2, x2, #0x95
    129c:	91009400 	add	x0, x0, #0x25
    12a0:	97fffe0a 	bl	ac8 <api_panic>
/home/zrz0517/study/TEE/RT-TEE/optee_os/lib/libutee/tee_api_arith_mpi.c:51
    12a4:	a8c17bfd 	ldp	x29, x30, [sp], #16
    12a8:	d65f03c0 	ret

00000000000012ac <TEE_BigIntInit>:
TEE_BigIntInit():
/home/zrz0517/study/TEE/RT-TEE/optee_os/lib/libutee/tee_api_arith_mpi.c:140
    12ac:	11007c22 	add	w2, w1, #0x1f
/home/zrz0517/study/TEE/RT-TEE/optee_os/lib/libutee/tee_api_arith_mpi.c:139
    12b0:	a9be7bfd 	stp	x29, x30, [sp, #-32]!
/home/zrz0517/study/TEE/RT-TEE/optee_os/lib/libutee/tee_api_arith_mpi.c:140
    12b4:	53057c42 	lsr	w2, w2, #5
/home/zrz0517/study/TEE/RT-TEE/optee_os/lib/libutee/tee_api_arith_mpi.c:139
    12b8:	910003fd 	mov	x29, sp
/home/zrz0517/study/TEE/RT-TEE/optee_os/lib/libutee/tee_api_arith_mpi.c:140
    12bc:	11000842 	add	w2, w2, #0x2
/home/zrz0517/study/TEE/RT-TEE/optee_os/lib/libutee/tee_api_arith_mpi.c:139
    12c0:	f9000bf3 	str	x19, [sp, #16]
    12c4:	2a0103f3 	mov	w19, w1
/home/zrz0517/study/TEE/RT-TEE/optee_os/lib/libutee/tee_api_arith_mpi.c:140
    12c8:	d37e6c42 	ubfiz	x2, x2, #2, #28
    12cc:	52800001 	mov	w1, #0x0                   	// #0
    12d0:	9400177f 	bl	70cc <memset>
    12d4:	aa0003e3 	mov	x3, x0
/home/zrz0517/study/TEE/RT-TEE/optee_os/lib/libutee/tee_api_arith_mpi.c:145
    12d8:	52800020 	mov	w0, #0x1                   	// #1
/home/zrz0517/study/TEE/RT-TEE/optee_os/lib/libutee/tee_api_arith_mpi.c:146
    12dc:	51000a73 	sub	w19, w19, #0x2
/home/zrz0517/study/TEE/RT-TEE/optee_os/lib/libutee/tee_api_arith_mpi.c:145
    12e0:	b9000060 	str	w0, [x3]
/home/zrz0517/study/TEE/RT-TEE/optee_os/lib/libutee/tee_api_arith_mpi.c:146
    12e4:	5284e200 	mov	w0, #0x2710                	// #10000
    12e8:	6b00027f 	cmp	w19, w0
    12ec:	54000109 	b.ls	130c <TEE_BigIntInit+0x60>  // b.plast
/home/zrz0517/study/TEE/RT-TEE/optee_os/lib/libutee/tee_api_arith_mpi.c:147
    12f0:	90000040 	adrp	x0, 9000 <__text_end+0xd6c>
    12f4:	913c3400 	add	x0, x0, #0xf0d
    12f8:	b0000042 	adrp	x2, a000 <__func__.4888+0x13>
    12fc:	52801261 	mov	w1, #0x93                  	// #147
    1300:	9102d842 	add	x2, x2, #0xb6
    1304:	9100dc00 	add	x0, x0, #0x37
    1308:	97fffdf0 	bl	ac8 <api_panic>
/home/zrz0517/study/TEE/RT-TEE/optee_os/lib/libutee/tee_api_arith_mpi.c:148
    130c:	79000873 	strh	w19, [x3, #4]
/home/zrz0517/study/TEE/RT-TEE/optee_os/lib/libutee/tee_api_arith_mpi.c:149
    1310:	f9400bf3 	ldr	x19, [sp, #16]
    1314:	a8c27bfd 	ldp	x29, x30, [sp], #32
    1318:	d65f03c0 	ret

000000000000131c <TEE_BigIntConvertFromOctetString>:
TEE_BigIntConvertFromOctetString():
/home/zrz0517/study/TEE/RT-TEE/optee_os/lib/libutee/tee_api_arith_mpi.c:154
    131c:	a9bc7bfd 	stp	x29, x30, [sp, #-64]!
    1320:	910003fd 	mov	x29, sp
    1324:	a90153f3 	stp	x19, x20, [sp, #16]
/home/zrz0517/study/TEE/RT-TEE/optee_os/lib/libutee/tee_api_arith_mpi.c:158
    1328:	9100c3f4 	add	x20, sp, #0x30
/home/zrz0517/study/TEE/RT-TEE/optee_os/lib/libutee/tee_api_arith_mpi.c:154
    132c:	aa0103f3 	mov	x19, x1
    1330:	a9025bf5 	stp	x21, x22, [sp, #32]
    1334:	2a0203f6 	mov	w22, w2
/home/zrz0517/study/TEE/RT-TEE/optee_os/lib/libutee/tee_api_arith_mpi.c:158
    1338:	aa0003e1 	mov	x1, x0
/home/zrz0517/study/TEE/RT-TEE/optee_os/lib/libutee/tee_api_arith_mpi.c:154
    133c:	2a0303f5 	mov	w21, w3
/home/zrz0517/study/TEE/RT-TEE/optee_os/lib/libutee/tee_api_arith_mpi.c:158
    1340:	aa1403e0 	mov	x0, x20
    1344:	97fffe2e 	bl	bfc <get_mpi>
/home/zrz0517/study/TEE/RT-TEE/optee_os/lib/libutee/tee_api_arith_mpi.c:160
    1348:	aa1303e1 	mov	x1, x19
    134c:	2a1603e2 	mov	w2, w22
    1350:	aa1403e0 	mov	x0, x20
    1354:	94000785 	bl	3168 <mbedtls_mpi_read_binary>
/home/zrz0517/study/TEE/RT-TEE/optee_os/lib/libutee/tee_api_arith_mpi.c:163
    1358:	7100001f 	cmp	w0, #0x0
    135c:	1299fe13 	mov	w19, #0xffff300f            	// #-53233
    1360:	1a9f1273 	csel	w19, w19, wzr, ne  // ne = any
/home/zrz0517/study/TEE/RT-TEE/optee_os/lib/libutee/tee_api_arith_mpi.c:165
    1364:	36f80075 	tbz	w21, #31, 1370 <TEE_BigIntConvertFromOctetString+0x54>
/home/zrz0517/study/TEE/RT-TEE/optee_os/lib/libutee/tee_api_arith_mpi.c:166
    1368:	12800000 	mov	w0, #0xffffffff            	// #-1
    136c:	3900c3e0 	strb	w0, [sp, #48]
/home/zrz0517/study/TEE/RT-TEE/optee_os/lib/libutee/tee_api_arith_mpi.c:168
    1370:	aa1403e0 	mov	x0, x20
    1374:	97fffe17 	bl	bd0 <put_mpi>
/home/zrz0517/study/TEE/RT-TEE/optee_os/lib/libutee/tee_api_arith_mpi.c:171
    1378:	2a1303e0 	mov	w0, w19
    137c:	a94153f3 	ldp	x19, x20, [sp, #16]
    1380:	a9425bf5 	ldp	x21, x22, [sp, #32]
    1384:	a8c47bfd 	ldp	x29, x30, [sp], #64
    1388:	d65f03c0 	ret

000000000000138c <TEE_BigIntConvertToOctetString>:
TEE_BigIntConvertToOctetString():
/home/zrz0517/study/TEE/RT-TEE/optee_os/lib/libutee/tee_api_arith_mpi.c:175
    138c:	a9bc7bfd 	stp	x29, x30, [sp, #-64]!
    1390:	910003fd 	mov	x29, sp
    1394:	a9025bf5 	stp	x21, x22, [sp, #32]
    1398:	aa0103f6 	mov	x22, x1
/home/zrz0517/study/TEE/RT-TEE/optee_os/lib/libutee/tee_api_arith_mpi.c:180
    139c:	aa0203e1 	mov	x1, x2
/home/zrz0517/study/TEE/RT-TEE/optee_os/lib/libutee/tee_api_arith_mpi.c:175
    13a0:	a90153f3 	stp	x19, x20, [sp, #16]
/home/zrz0517/study/TEE/RT-TEE/optee_os/lib/libutee/tee_api_arith_mpi.c:180
    13a4:	9100c3f3 	add	x19, sp, #0x30
/home/zrz0517/study/TEE/RT-TEE/optee_os/lib/libutee/tee_api_arith_mpi.c:175
    13a8:	aa0003f5 	mov	x21, x0
/home/zrz0517/study/TEE/RT-TEE/optee_os/lib/libutee/tee_api_arith_mpi.c:180
    13ac:	aa1303e0 	mov	x0, x19
    13b0:	97fffdde 	bl	b28 <get_const_mpi>
/home/zrz0517/study/TEE/RT-TEE/optee_os/lib/libutee/tee_api_arith_mpi.c:182
    13b4:	aa1303e0 	mov	x0, x19
    13b8:	94000765 	bl	314c <mbedtls_mpi_size>
    13bc:	aa0003f4 	mov	x20, x0
/home/zrz0517/study/TEE/RT-TEE/optee_os/lib/libutee/tee_api_arith_mpi.c:183
    13c0:	b94002c0 	ldr	w0, [x22]
    13c4:	eb14001f 	cmp	x0, x20
    13c8:	540001a3 	b.cc	13fc <TEE_BigIntConvertToOctetString+0x70>  // b.lo, b.ul, b.last
/home/zrz0517/study/TEE/RT-TEE/optee_os/lib/libutee/tee_api_arith_mpi.c:184
    13cc:	aa1503e1 	mov	x1, x21
    13d0:	aa1403e2 	mov	x2, x20
    13d4:	aa1303e0 	mov	x0, x19
/home/zrz0517/study/TEE/RT-TEE/optee_os/lib/libutee/tee_api_arith_mpi.c:176
    13d8:	52800015 	mov	w21, #0x0                   	// #0
/home/zrz0517/study/TEE/RT-TEE/optee_os/lib/libutee/tee_api_arith_mpi.c:184
    13dc:	9400078e 	bl	3214 <mbedtls_mpi_write_binary>
    13e0:	34000100 	cbz	w0, 1400 <TEE_BigIntConvertToOctetString+0x74>
/home/zrz0517/study/TEE/RT-TEE/optee_os/lib/libutee/tee_api_arith_mpi.c:184 (discriminator 1)
    13e4:	2a0003e2 	mov	w2, w0
    13e8:	90000040 	adrp	x0, 9000 <__text_end+0xd6c>
    13ec:	913c3400 	add	x0, x0, #0xf0d
    13f0:	52801701 	mov	w1, #0xb8                  	// #184
    13f4:	91011800 	add	x0, x0, #0x46
    13f8:	97fffdc0 	bl	af8 <mpi_panic>
/home/zrz0517/study/TEE/RT-TEE/optee_os/lib/libutee/tee_api_arith_mpi.c:186
    13fc:	129ffdf5 	mov	w21, #0xffff0010            	// #-65520
/home/zrz0517/study/TEE/RT-TEE/optee_os/lib/libutee/tee_api_arith_mpi.c:188
    1400:	b90002d4 	str	w20, [x22]
/home/zrz0517/study/TEE/RT-TEE/optee_os/lib/libutee/tee_api_arith_mpi.c:190
    1404:	aa1303e0 	mov	x0, x19
    1408:	97fffdf2 	bl	bd0 <put_mpi>
/home/zrz0517/study/TEE/RT-TEE/optee_os/lib/libutee/tee_api_arith_mpi.c:193
    140c:	2a1503e0 	mov	w0, w21
    1410:	a94153f3 	ldp	x19, x20, [sp, #16]
    1414:	a9425bf5 	ldp	x21, x22, [sp, #32]
    1418:	a8c47bfd 	ldp	x29, x30, [sp], #64
    141c:	d65f03c0 	ret

0000000000001420 <TEE_BigIntConvertFromS32>:
TEE_BigIntConvertFromS32():
/home/zrz0517/study/TEE/RT-TEE/optee_os/lib/libutee/tee_api_arith_mpi.c:196
    1420:	a9bd7bfd 	stp	x29, x30, [sp, #-48]!
    1424:	910003fd 	mov	x29, sp
    1428:	a90153f3 	stp	x19, x20, [sp, #16]
/home/zrz0517/study/TEE/RT-TEE/optee_os/lib/libutee/tee_api_arith_mpi.c:199
    142c:	910083f3 	add	x19, sp, #0x20
/home/zrz0517/study/TEE/RT-TEE/optee_os/lib/libutee/tee_api_arith_mpi.c:196
    1430:	2a0103f4 	mov	w20, w1
/home/zrz0517/study/TEE/RT-TEE/optee_os/lib/libutee/tee_api_arith_mpi.c:199
    1434:	aa0003e1 	mov	x1, x0
    1438:	aa1303e0 	mov	x0, x19
    143c:	97fffdf0 	bl	bfc <get_mpi>
/home/zrz0517/study/TEE/RT-TEE/optee_os/lib/libutee/tee_api_arith_mpi.c:201
    1440:	2a1403e1 	mov	w1, w20
    1444:	aa1303e0 	mov	x0, x19
    1448:	940006ca 	bl	2f70 <mbedtls_mpi_lset>
    144c:	340000e0 	cbz	w0, 1468 <TEE_BigIntConvertFromS32+0x48>
/home/zrz0517/study/TEE/RT-TEE/optee_os/lib/libutee/tee_api_arith_mpi.c:201 (discriminator 1)
    1450:	2a0003e2 	mov	w2, w0
    1454:	90000040 	adrp	x0, 9000 <__text_end+0xd6c>
    1458:	913c3400 	add	x0, x0, #0xf0d
    145c:	52801921 	mov	w1, #0xc9                  	// #201
    1460:	91019400 	add	x0, x0, #0x65
    1464:	97fffda5 	bl	af8 <mpi_panic>
/home/zrz0517/study/TEE/RT-TEE/optee_os/lib/libutee/tee_api_arith_mpi.c:203
    1468:	aa1303e0 	mov	x0, x19
    146c:	97fffdd9 	bl	bd0 <put_mpi>
/home/zrz0517/study/TEE/RT-TEE/optee_os/lib/libutee/tee_api_arith_mpi.c:204
    1470:	a94153f3 	ldp	x19, x20, [sp, #16]
    1474:	a8c37bfd 	ldp	x29, x30, [sp], #48
    1478:	d65f03c0 	ret

000000000000147c <TEE_BigIntConvertToS32>:
TEE_BigIntConvertToS32():
/home/zrz0517/study/TEE/RT-TEE/optee_os/lib/libutee/tee_api_arith_mpi.c:207
    147c:	a9bc7bfd 	stp	x29, x30, [sp, #-64]!
    1480:	910003fd 	mov	x29, sp
    1484:	a90153f3 	stp	x19, x20, [sp, #16]
/home/zrz0517/study/TEE/RT-TEE/optee_os/lib/libutee/tee_api_arith_mpi.c:212
    1488:	9100c3f3 	add	x19, sp, #0x30
/home/zrz0517/study/TEE/RT-TEE/optee_os/lib/libutee/tee_api_arith_mpi.c:207
    148c:	aa0003f4 	mov	x20, x0
/home/zrz0517/study/TEE/RT-TEE/optee_os/lib/libutee/tee_api_arith_mpi.c:212
    1490:	aa1303e0 	mov	x0, x19
    1494:	97fffda5 	bl	b28 <get_const_mpi>
/home/zrz0517/study/TEE/RT-TEE/optee_os/lib/libutee/tee_api_arith_mpi.c:214
    1498:	d2800082 	mov	x2, #0x4                   	// #4
    149c:	9100b3e1 	add	x1, sp, #0x2c
    14a0:	aa1303e0 	mov	x0, x19
    14a4:	9400075c 	bl	3214 <mbedtls_mpi_write_binary>
    14a8:	34000100 	cbz	w0, 14c8 <TEE_BigIntConvertToS32+0x4c>
/home/zrz0517/study/TEE/RT-TEE/optee_os/lib/libutee/tee_api_arith_mpi.c:215
    14ac:	1299fe14 	mov	w20, #0xffff300f            	// #-53233
/home/zrz0517/study/TEE/RT-TEE/optee_os/lib/libutee/tee_api_arith_mpi.c:228
    14b0:	aa1303e0 	mov	x0, x19
    14b4:	97fffdc7 	bl	bd0 <put_mpi>
/home/zrz0517/study/TEE/RT-TEE/optee_os/lib/libutee/tee_api_arith_mpi.c:231
    14b8:	2a1403e0 	mov	w0, w20
    14bc:	a94153f3 	ldp	x19, x20, [sp, #16]
    14c0:	a8c47bfd 	ldp	x29, x30, [sp], #64
    14c4:	d65f03c0 	ret
/home/zrz0517/study/TEE/RT-TEE/optee_os/lib/libutee/tee_api_arith_mpi.c:219
    14c8:	b9402fe1 	ldr	w1, [sp, #44]
    14cc:	39c0c3e0 	ldrsb	w0, [sp, #48]
    14d0:	5ac00821 	rev	w1, w1
    14d4:	7100001f 	cmp	w0, #0x0
    14d8:	2a0103e0 	mov	w0, w1
    14dc:	540000cd 	b.le	14f4 <TEE_BigIntConvertToS32+0x78>
/home/zrz0517/study/TEE/RT-TEE/optee_os/lib/libutee/tee_api_arith_mpi.c:220
    14e0:	eb21c01f 	cmp	x0, w1, sxtw
    14e4:	b9000281 	str	w1, [x20]
/home/zrz0517/study/TEE/RT-TEE/optee_os/lib/libutee/tee_api_arith_mpi.c:223
    14e8:	54fffe21 	b.ne	14ac <TEE_BigIntConvertToS32+0x30>  // b.any
/home/zrz0517/study/TEE/RT-TEE/optee_os/lib/libutee/tee_api_arith_mpi.c:208
    14ec:	52800014 	mov	w20, #0x0                   	// #0
    14f0:	17fffff0 	b	14b0 <TEE_BigIntConvertToS32+0x34>
/home/zrz0517/study/TEE/RT-TEE/optee_os/lib/libutee/tee_api_arith_mpi.c:223
    14f4:	cb0003e0 	neg	x0, x0
    14f8:	b9000280 	str	w0, [x20]
    14fc:	eb20c01f 	cmp	x0, w0, sxtw
    1500:	17fffffa 	b	14e8 <TEE_BigIntConvertToS32+0x6c>

0000000000001504 <TEE_BigIntCmp>:
TEE_BigIntCmp():
/home/zrz0517/study/TEE/RT-TEE/optee_os/lib/libutee/tee_api_arith_mpi.c:234
    1504:	a9bb7bfd 	stp	x29, x30, [sp, #-80]!
    1508:	910003fd 	mov	x29, sp
    150c:	a90153f3 	stp	x19, x20, [sp, #16]
/home/zrz0517/study/TEE/RT-TEE/optee_os/lib/libutee/tee_api_arith_mpi.c:239
    1510:	9100c3f4 	add	x20, sp, #0x30
/home/zrz0517/study/TEE/RT-TEE/optee_os/lib/libutee/tee_api_arith_mpi.c:240
    1514:	910103f3 	add	x19, sp, #0x40
/home/zrz0517/study/TEE/RT-TEE/optee_os/lib/libutee/tee_api_arith_mpi.c:234
    1518:	f90013f5 	str	x21, [sp, #32]
    151c:	aa0103f5 	mov	x21, x1
/home/zrz0517/study/TEE/RT-TEE/optee_os/lib/libutee/tee_api_arith_mpi.c:239
    1520:	aa0003e1 	mov	x1, x0
    1524:	aa1403e0 	mov	x0, x20
    1528:	97fffd80 	bl	b28 <get_const_mpi>
/home/zrz0517/study/TEE/RT-TEE/optee_os/lib/libutee/tee_api_arith_mpi.c:240
    152c:	aa1503e1 	mov	x1, x21
    1530:	aa1303e0 	mov	x0, x19
    1534:	97fffd7d 	bl	b28 <get_const_mpi>
/home/zrz0517/study/TEE/RT-TEE/optee_os/lib/libutee/tee_api_arith_mpi.c:242
    1538:	aa1303e1 	mov	x1, x19
    153c:	aa1403e0 	mov	x0, x20
    1540:	940007f0 	bl	3500 <mbedtls_mpi_cmp_mpi>
    1544:	2a0003f5 	mov	w21, w0
/home/zrz0517/study/TEE/RT-TEE/optee_os/lib/libutee/tee_api_arith_mpi.c:244
    1548:	aa1403e0 	mov	x0, x20
    154c:	97fffda1 	bl	bd0 <put_mpi>
/home/zrz0517/study/TEE/RT-TEE/optee_os/lib/libutee/tee_api_arith_mpi.c:245
    1550:	aa1303e0 	mov	x0, x19
    1554:	97fffd9f 	bl	bd0 <put_mpi>
/home/zrz0517/study/TEE/RT-TEE/optee_os/lib/libutee/tee_api_arith_mpi.c:248
    1558:	2a1503e0 	mov	w0, w21
    155c:	a94153f3 	ldp	x19, x20, [sp, #16]
    1560:	f94013f5 	ldr	x21, [sp, #32]
    1564:	a8c57bfd 	ldp	x29, x30, [sp], #80
    1568:	d65f03c0 	ret

000000000000156c <TEE_BigIntCmpS32>:
TEE_BigIntCmpS32():
/home/zrz0517/study/TEE/RT-TEE/optee_os/lib/libutee/tee_api_arith_mpi.c:251
    156c:	a9bd7bfd 	stp	x29, x30, [sp, #-48]!
    1570:	910003fd 	mov	x29, sp
    1574:	a90153f3 	stp	x19, x20, [sp, #16]
/home/zrz0517/study/TEE/RT-TEE/optee_os/lib/libutee/tee_api_arith_mpi.c:255
    1578:	910083f3 	add	x19, sp, #0x20
/home/zrz0517/study/TEE/RT-TEE/optee_os/lib/libutee/tee_api_arith_mpi.c:251
    157c:	2a0103f4 	mov	w20, w1
/home/zrz0517/study/TEE/RT-TEE/optee_os/lib/libutee/tee_api_arith_mpi.c:255
    1580:	aa0003e1 	mov	x1, x0
    1584:	aa1303e0 	mov	x0, x19
    1588:	97fffd68 	bl	b28 <get_const_mpi>
/home/zrz0517/study/TEE/RT-TEE/optee_os/lib/libutee/tee_api_arith_mpi.c:257
    158c:	2a1403e1 	mov	w1, w20
    1590:	aa1303e0 	mov	x0, x19
    1594:	94000810 	bl	35d4 <mbedtls_mpi_cmp_int>
    1598:	2a0003f4 	mov	w20, w0
/home/zrz0517/study/TEE/RT-TEE/optee_os/lib/libutee/tee_api_arith_mpi.c:259
    159c:	aa1303e0 	mov	x0, x19
    15a0:	97fffd8c 	bl	bd0 <put_mpi>
/home/zrz0517/study/TEE/RT-TEE/optee_os/lib/libutee/tee_api_arith_mpi.c:262
    15a4:	2a1403e0 	mov	w0, w20
    15a8:	a94153f3 	ldp	x19, x20, [sp, #16]
    15ac:	a8c37bfd 	ldp	x29, x30, [sp], #48
    15b0:	d65f03c0 	ret

00000000000015b4 <bigint_binary_mod>:
bigint_binary_mod():
/home/zrz0517/study/TEE/RT-TEE/optee_os/lib/libutee/tee_api_arith_mpi.c:370
    15b4:	a9b67bfd 	stp	x29, x30, [sp, #-160]!
    15b8:	910003fd 	mov	x29, sp
    15bc:	a90153f3 	stp	x19, x20, [sp, #16]
    15c0:	aa0203f3 	mov	x19, x2
    15c4:	aa0303f4 	mov	x20, x3
    15c8:	a9025bf5 	stp	x21, x22, [sp, #32]
    15cc:	aa0103f6 	mov	x22, x1
/home/zrz0517/study/TEE/RT-TEE/optee_os/lib/libutee/tee_api_arith_mpi.c:371
    15d0:	52800041 	mov	w1, #0x2                   	// #2
/home/zrz0517/study/TEE/RT-TEE/optee_os/lib/libutee/tee_api_arith_mpi.c:370
    15d4:	a90363f7 	stp	x23, x24, [sp, #48]
    15d8:	aa0003f7 	mov	x23, x0
/home/zrz0517/study/TEE/RT-TEE/optee_os/lib/libutee/tee_api_arith_mpi.c:371
    15dc:	aa0303e0 	mov	x0, x3
/home/zrz0517/study/TEE/RT-TEE/optee_os/lib/libutee/tee_api_arith_mpi.c:370
    15e0:	a9046bf9 	stp	x25, x26, [sp, #64]
    15e4:	aa0403fa 	mov	x26, x4
/home/zrz0517/study/TEE/RT-TEE/optee_os/lib/libutee/tee_api_arith_mpi.c:371
    15e8:	97ffffe1 	bl	156c <TEE_BigIntCmpS32>
    15ec:	36f80100 	tbz	w0, #31, 160c <bigint_binary_mod+0x58>
/home/zrz0517/study/TEE/RT-TEE/optee_os/lib/libutee/tee_api_arith_mpi.c:372
    15f0:	90000040 	adrp	x0, 9000 <__text_end+0xd6c>
    15f4:	913c3400 	add	x0, x0, #0xf0d
    15f8:	b0000042 	adrp	x2, a000 <__func__.4888+0x13>
    15fc:	52802e81 	mov	w1, #0x174                 	// #372
    1600:	91031c42 	add	x2, x2, #0xc7
    1604:	9101f800 	add	x0, x0, #0x7e
    1608:	97fffd30 	bl	ac8 <api_panic>
/home/zrz0517/study/TEE/RT-TEE/optee_os/lib/libutee/tee_api_arith_mpi.c:382
    160c:	910143f5 	add	x21, sp, #0x50
    1610:	aa1703e1 	mov	x1, x23
    1614:	aa1503e0 	mov	x0, x21
/home/zrz0517/study/TEE/RT-TEE/optee_os/lib/libutee/tee_api_arith_mpi.c:383
    1618:	910203f9 	add	x25, sp, #0x80
/home/zrz0517/study/TEE/RT-TEE/optee_os/lib/libutee/tee_api_arith_mpi.c:382
    161c:	97fffd78 	bl	bfc <get_mpi>
/home/zrz0517/study/TEE/RT-TEE/optee_os/lib/libutee/tee_api_arith_mpi.c:383
    1620:	910183f8 	add	x24, sp, #0x60
    1624:	aa1403e1 	mov	x1, x20
    1628:	aa1903e0 	mov	x0, x25
    162c:	97fffd3f 	bl	b28 <get_const_mpi>
/home/zrz0517/study/TEE/RT-TEE/optee_os/lib/libutee/tee_api_arith_mpi.c:385
    1630:	eb1602ff 	cmp	x23, x22
    1634:	54000380 	b.eq	16a4 <bigint_binary_mod+0xf0>  // b.none
/home/zrz0517/study/TEE/RT-TEE/optee_os/lib/libutee/tee_api_arith_mpi.c:378
    1638:	aa1803f4 	mov	x20, x24
/home/zrz0517/study/TEE/RT-TEE/optee_os/lib/libutee/tee_api_arith_mpi.c:388
    163c:	aa1603e1 	mov	x1, x22
    1640:	aa1803e0 	mov	x0, x24
    1644:	97fffd39 	bl	b28 <get_const_mpi>
/home/zrz0517/study/TEE/RT-TEE/optee_os/lib/libutee/tee_api_arith_mpi.c:390
    1648:	eb1302ff 	cmp	x23, x19
    164c:	9101c3f7 	add	x23, sp, #0x70
    1650:	540002e0 	b.eq	16ac <bigint_binary_mod+0xf8>  // b.none
/home/zrz0517/study/TEE/RT-TEE/optee_os/lib/libutee/tee_api_arith_mpi.c:392
    1654:	eb1302df 	cmp	x22, x19
    1658:	540002e0 	b.eq	16b4 <bigint_binary_mod+0x100>  // b.none
/home/zrz0517/study/TEE/RT-TEE/optee_os/lib/libutee/tee_api_arith_mpi.c:395
    165c:	aa1303e1 	mov	x1, x19
/home/zrz0517/study/TEE/RT-TEE/optee_os/lib/libutee/tee_api_arith_mpi.c:379
    1660:	aa1703f3 	mov	x19, x23
/home/zrz0517/study/TEE/RT-TEE/optee_os/lib/libutee/tee_api_arith_mpi.c:395
    1664:	aa1703e0 	mov	x0, x23
    1668:	97fffd30 	bl	b28 <get_const_mpi>
get_mpi():
/home/zrz0517/study/TEE/RT-TEE/optee_os/lib/libutee/tee_api_arith_mpi.c:99
    166c:	910243f6 	add	x22, sp, #0x90
    1670:	aa1603e0 	mov	x0, x22
    1674:	940004c0 	bl	2974 <mbedtls_mpi_init_mempool>
bigint_binary_mod():
/home/zrz0517/study/TEE/RT-TEE/optee_os/lib/libutee/tee_api_arith_mpi.c:399
    1678:	aa1303e2 	mov	x2, x19
    167c:	aa1403e1 	mov	x1, x20
    1680:	aa1603e0 	mov	x0, x22
    1684:	d63f0340 	blr	x26
    1688:	340001a0 	cbz	w0, 16bc <bigint_binary_mod+0x108>
/home/zrz0517/study/TEE/RT-TEE/optee_os/lib/libutee/tee_api_arith_mpi.c:399 (discriminator 1)
    168c:	2a0003e2 	mov	w2, w0
    1690:	528031e1 	mov	w1, #0x18f                 	// #399
/home/zrz0517/study/TEE/RT-TEE/optee_os/lib/libutee/tee_api_arith_mpi.c:400 (discriminator 1)
    1694:	90000040 	adrp	x0, 9000 <__text_end+0xd6c>
    1698:	913c3400 	add	x0, x0, #0xf0d
    169c:	9101f800 	add	x0, x0, #0x7e
    16a0:	97fffd16 	bl	af8 <mpi_panic>
/home/zrz0517/study/TEE/RT-TEE/optee_os/lib/libutee/tee_api_arith_mpi.c:386
    16a4:	aa1503f4 	mov	x20, x21
    16a8:	17ffffe8 	b	1648 <bigint_binary_mod+0x94>
/home/zrz0517/study/TEE/RT-TEE/optee_os/lib/libutee/tee_api_arith_mpi.c:391
    16ac:	aa1503f3 	mov	x19, x21
    16b0:	17ffffef 	b	166c <bigint_binary_mod+0xb8>
/home/zrz0517/study/TEE/RT-TEE/optee_os/lib/libutee/tee_api_arith_mpi.c:393
    16b4:	aa1403f3 	mov	x19, x20
    16b8:	17ffffed 	b	166c <bigint_binary_mod+0xb8>
/home/zrz0517/study/TEE/RT-TEE/optee_os/lib/libutee/tee_api_arith_mpi.c:400
    16bc:	aa1903e2 	mov	x2, x25
    16c0:	aa1603e1 	mov	x1, x22
    16c4:	aa1503e0 	mov	x0, x21
    16c8:	94000ae8 	bl	4268 <mbedtls_mpi_mod_mpi>
    16cc:	34000080 	cbz	w0, 16dc <bigint_binary_mod+0x128>
/home/zrz0517/study/TEE/RT-TEE/optee_os/lib/libutee/tee_api_arith_mpi.c:400 (discriminator 1)
    16d0:	2a0003e2 	mov	w2, w0
    16d4:	52803201 	mov	w1, #0x190                 	// #400
    16d8:	17ffffef 	b	1694 <bigint_binary_mod+0xe0>
/home/zrz0517/study/TEE/RT-TEE/optee_os/lib/libutee/tee_api_arith_mpi.c:402
    16dc:	aa1503e0 	mov	x0, x21
    16e0:	97fffd3c 	bl	bd0 <put_mpi>
/home/zrz0517/study/TEE/RT-TEE/optee_os/lib/libutee/tee_api_arith_mpi.c:403
    16e4:	eb18029f 	cmp	x20, x24
    16e8:	54000061 	b.ne	16f4 <bigint_binary_mod+0x140>  // b.any
/home/zrz0517/study/TEE/RT-TEE/optee_os/lib/libutee/tee_api_arith_mpi.c:404
    16ec:	aa1403e0 	mov	x0, x20
    16f0:	97fffd38 	bl	bd0 <put_mpi>
/home/zrz0517/study/TEE/RT-TEE/optee_os/lib/libutee/tee_api_arith_mpi.c:405
    16f4:	eb17027f 	cmp	x19, x23
    16f8:	54000061 	b.ne	1704 <bigint_binary_mod+0x150>  // b.any
/home/zrz0517/study/TEE/RT-TEE/optee_os/lib/libutee/tee_api_arith_mpi.c:406
    16fc:	aa1303e0 	mov	x0, x19
    1700:	97fffd34 	bl	bd0 <put_mpi>
/home/zrz0517/study/TEE/RT-TEE/optee_os/lib/libutee/tee_api_arith_mpi.c:407
    1704:	aa1603e0 	mov	x0, x22
    1708:	97fffd32 	bl	bd0 <put_mpi>
/home/zrz0517/study/TEE/RT-TEE/optee_os/lib/libutee/tee_api_arith_mpi.c:408
    170c:	a94153f3 	ldp	x19, x20, [sp, #16]
    1710:	a9425bf5 	ldp	x21, x22, [sp, #32]
    1714:	a94363f7 	ldp	x23, x24, [sp, #48]
    1718:	a9446bf9 	ldp	x25, x26, [sp, #64]
    171c:	a8ca7bfd 	ldp	x29, x30, [sp], #160
    1720:	d65f03c0 	ret

0000000000001724 <TEE_BigIntShiftRight>:
TEE_BigIntShiftRight():
/home/zrz0517/study/TEE/RT-TEE/optee_os/lib/libutee/tee_api_arith_mpi.c:265
    1724:	a9ba7bfd 	stp	x29, x30, [sp, #-96]!
    1728:	910003fd 	mov	x29, sp
    172c:	a90153f3 	stp	x19, x20, [sp, #16]
/home/zrz0517/study/TEE/RT-TEE/optee_os/lib/libutee/tee_api_arith_mpi.c:269
    1730:	9100c3f3 	add	x19, sp, #0x30
/home/zrz0517/study/TEE/RT-TEE/optee_os/lib/libutee/tee_api_arith_mpi.c:265
    1734:	aa0003f4 	mov	x20, x0
    1738:	a9025bf5 	stp	x21, x22, [sp, #32]
    173c:	aa0103f5 	mov	x21, x1
    1740:	aa0203f6 	mov	x22, x2
/home/zrz0517/study/TEE/RT-TEE/optee_os/lib/libutee/tee_api_arith_mpi.c:269
    1744:	aa0003e1 	mov	x1, x0
    1748:	aa1303e0 	mov	x0, x19
    174c:	97fffd2c 	bl	bfc <get_mpi>
/home/zrz0517/study/TEE/RT-TEE/optee_os/lib/libutee/tee_api_arith_mpi.c:271
    1750:	eb15029f 	cmp	x20, x21
    1754:	54000161 	b.ne	1780 <TEE_BigIntShiftRight+0x5c>  // b.any
/home/zrz0517/study/TEE/RT-TEE/optee_os/lib/libutee/tee_api_arith_mpi.c:272
    1758:	aa1603e1 	mov	x1, x22
    175c:	aa1303e0 	mov	x0, x19
    1760:	9400070f 	bl	339c <mbedtls_mpi_shift_r>
    1764:	34000780 	cbz	w0, 1854 <TEE_BigIntShiftRight+0x130>
/home/zrz0517/study/TEE/RT-TEE/optee_os/lib/libutee/tee_api_arith_mpi.c:272 (discriminator 1)
    1768:	2a0003e2 	mov	w2, w0
    176c:	52802201 	mov	w1, #0x110                 	// #272
/home/zrz0517/study/TEE/RT-TEE/optee_os/lib/libutee/tee_api_arith_mpi.c:279 (discriminator 1)
    1770:	90000040 	adrp	x0, 9000 <__text_end+0xd6c>
    1774:	913c3400 	add	x0, x0, #0xf0d
    1778:	91024000 	add	x0, x0, #0x90
    177c:	97fffcdf 	bl	af8 <mpi_panic>
/home/zrz0517/study/TEE/RT-TEE/optee_os/lib/libutee/tee_api_arith_mpi.c:276
    1780:	aa1503e1 	mov	x1, x21
    1784:	910103f4 	add	x20, sp, #0x40
    1788:	aa1403e0 	mov	x0, x20
    178c:	97fffce7 	bl	b28 <get_const_mpi>
/home/zrz0517/study/TEE/RT-TEE/optee_os/lib/libutee/tee_api_arith_mpi.c:278
    1790:	aa1303e0 	mov	x0, x19
    1794:	9400066e 	bl	314c <mbedtls_mpi_size>
    1798:	aa0003f5 	mov	x21, x0
    179c:	aa1403e0 	mov	x0, x20
    17a0:	9400066b 	bl	314c <mbedtls_mpi_size>
    17a4:	eb0002bf 	cmp	x21, x0
    17a8:	540001e3 	b.cc	17e4 <TEE_BigIntShiftRight+0xc0>  // b.lo, b.ul, b.last
/home/zrz0517/study/TEE/RT-TEE/optee_os/lib/libutee/tee_api_arith_mpi.c:279
    17ac:	aa1403e1 	mov	x1, x20
    17b0:	aa1303e0 	mov	x0, x19
    17b4:	94000544 	bl	2cc4 <mbedtls_mpi_copy>
    17b8:	34000080 	cbz	w0, 17c8 <TEE_BigIntShiftRight+0xa4>
/home/zrz0517/study/TEE/RT-TEE/optee_os/lib/libutee/tee_api_arith_mpi.c:279 (discriminator 1)
    17bc:	2a0003e2 	mov	w2, w0
    17c0:	528022e1 	mov	w1, #0x117                 	// #279
    17c4:	17ffffeb 	b	1770 <TEE_BigIntShiftRight+0x4c>
/home/zrz0517/study/TEE/RT-TEE/optee_os/lib/libutee/tee_api_arith_mpi.c:280
    17c8:	aa1603e1 	mov	x1, x22
    17cc:	aa1303e0 	mov	x0, x19
    17d0:	940006f3 	bl	339c <mbedtls_mpi_shift_r>
    17d4:	340003c0 	cbz	w0, 184c <TEE_BigIntShiftRight+0x128>
/home/zrz0517/study/TEE/RT-TEE/optee_os/lib/libutee/tee_api_arith_mpi.c:280 (discriminator 1)
    17d8:	2a0003e2 	mov	w2, w0
    17dc:	52802301 	mov	w1, #0x118                 	// #280
    17e0:	17ffffe4 	b	1770 <TEE_BigIntShiftRight+0x4c>
get_mpi():
/home/zrz0517/study/TEE/RT-TEE/optee_os/lib/libutee/tee_api_arith_mpi.c:99
    17e4:	910143f5 	add	x21, sp, #0x50
    17e8:	aa1503e0 	mov	x0, x21
    17ec:	94000462 	bl	2974 <mbedtls_mpi_init_mempool>
TEE_BigIntShiftRight():
/home/zrz0517/study/TEE/RT-TEE/optee_os/lib/libutee/tee_api_arith_mpi.c:291
    17f0:	aa1403e1 	mov	x1, x20
    17f4:	aa1503e0 	mov	x0, x21
    17f8:	94000533 	bl	2cc4 <mbedtls_mpi_copy>
    17fc:	34000080 	cbz	w0, 180c <TEE_BigIntShiftRight+0xe8>
/home/zrz0517/study/TEE/RT-TEE/optee_os/lib/libutee/tee_api_arith_mpi.c:291 (discriminator 1)
    1800:	2a0003e2 	mov	w2, w0
    1804:	52802461 	mov	w1, #0x123                 	// #291
    1808:	17ffffda 	b	1770 <TEE_BigIntShiftRight+0x4c>
/home/zrz0517/study/TEE/RT-TEE/optee_os/lib/libutee/tee_api_arith_mpi.c:292
    180c:	aa1603e1 	mov	x1, x22
    1810:	aa1503e0 	mov	x0, x21
    1814:	940006e2 	bl	339c <mbedtls_mpi_shift_r>
    1818:	34000080 	cbz	w0, 1828 <TEE_BigIntShiftRight+0x104>
/home/zrz0517/study/TEE/RT-TEE/optee_os/lib/libutee/tee_api_arith_mpi.c:292 (discriminator 1)
    181c:	2a0003e2 	mov	w2, w0
    1820:	52802481 	mov	w1, #0x124                 	// #292
    1824:	17ffffd3 	b	1770 <TEE_BigIntShiftRight+0x4c>
/home/zrz0517/study/TEE/RT-TEE/optee_os/lib/libutee/tee_api_arith_mpi.c:293
    1828:	aa1503e1 	mov	x1, x21
    182c:	aa1303e0 	mov	x0, x19
    1830:	94000525 	bl	2cc4 <mbedtls_mpi_copy>
    1834:	34000080 	cbz	w0, 1844 <TEE_BigIntShiftRight+0x120>
/home/zrz0517/study/TEE/RT-TEE/optee_os/lib/libutee/tee_api_arith_mpi.c:293 (discriminator 1)
    1838:	2a0003e2 	mov	w2, w0
    183c:	528024a1 	mov	w1, #0x125                 	// #293
    1840:	17ffffcc 	b	1770 <TEE_BigIntShiftRight+0x4c>
/home/zrz0517/study/TEE/RT-TEE/optee_os/lib/libutee/tee_api_arith_mpi.c:295
    1844:	aa1503e0 	mov	x0, x21
    1848:	97fffce2 	bl	bd0 <put_mpi>
/home/zrz0517/study/TEE/RT-TEE/optee_os/lib/libutee/tee_api_arith_mpi.c:298
    184c:	aa1403e0 	mov	x0, x20
    1850:	97fffce0 	bl	bd0 <put_mpi>
/home/zrz0517/study/TEE/RT-TEE/optee_os/lib/libutee/tee_api_arith_mpi.c:301
    1854:	aa1303e0 	mov	x0, x19
    1858:	97fffcde 	bl	bd0 <put_mpi>
/home/zrz0517/study/TEE/RT-TEE/optee_os/lib/libutee/tee_api_arith_mpi.c:302
    185c:	a94153f3 	ldp	x19, x20, [sp, #16]
    1860:	a9425bf5 	ldp	x21, x22, [sp, #32]
    1864:	a8c67bfd 	ldp	x29, x30, [sp], #96
    1868:	d65f03c0 	ret

000000000000186c <TEE_BigIntGetBit>:
TEE_BigIntGetBit():
/home/zrz0517/study/TEE/RT-TEE/optee_os/lib/libutee/tee_api_arith_mpi.c:305
    186c:	a9bd7bfd 	stp	x29, x30, [sp, #-48]!
    1870:	910003fd 	mov	x29, sp
    1874:	a90153f3 	stp	x19, x20, [sp, #16]
/home/zrz0517/study/TEE/RT-TEE/optee_os/lib/libutee/tee_api_arith_mpi.c:309
    1878:	910083f3 	add	x19, sp, #0x20
/home/zrz0517/study/TEE/RT-TEE/optee_os/lib/libutee/tee_api_arith_mpi.c:305
    187c:	2a0103f4 	mov	w20, w1
/home/zrz0517/study/TEE/RT-TEE/optee_os/lib/libutee/tee_api_arith_mpi.c:309
    1880:	aa0003e1 	mov	x1, x0
    1884:	aa1303e0 	mov	x0, x19
    1888:	97fffca8 	bl	b28 <get_const_mpi>
/home/zrz0517/study/TEE/RT-TEE/optee_os/lib/libutee/tee_api_arith_mpi.c:311
    188c:	2a1403e1 	mov	w1, w20
    1890:	aa1303e0 	mov	x0, x19
    1894:	940005d2 	bl	2fdc <mbedtls_mpi_get_bit>
    1898:	2a0003f4 	mov	w20, w0
/home/zrz0517/study/TEE/RT-TEE/optee_os/lib/libutee/tee_api_arith_mpi.c:313
    189c:	aa1303e0 	mov	x0, x19
    18a0:	97fffccc 	bl	bd0 <put_mpi>
/home/zrz0517/study/TEE/RT-TEE/optee_os/lib/libutee/tee_api_arith_mpi.c:311
    18a4:	7100029f 	cmp	w20, #0x0
/home/zrz0517/study/TEE/RT-TEE/optee_os/lib/libutee/tee_api_arith_mpi.c:316
    18a8:	1a9f07e0 	cset	w0, ne  // ne = any
    18ac:	a94153f3 	ldp	x19, x20, [sp, #16]
    18b0:	a8c37bfd 	ldp	x29, x30, [sp], #48
    18b4:	d65f03c0 	ret

00000000000018b8 <TEE_BigIntGetBitCount>:
TEE_BigIntGetBitCount():
/home/zrz0517/study/TEE/RT-TEE/optee_os/lib/libutee/tee_api_arith_mpi.c:319
    18b8:	a9bd7bfd 	stp	x29, x30, [sp, #-48]!
/home/zrz0517/study/TEE/RT-TEE/optee_os/lib/libutee/tee_api_arith_mpi.c:323
    18bc:	aa0003e1 	mov	x1, x0
/home/zrz0517/study/TEE/RT-TEE/optee_os/lib/libutee/tee_api_arith_mpi.c:319
    18c0:	910003fd 	mov	x29, sp
    18c4:	a90153f3 	stp	x19, x20, [sp, #16]
/home/zrz0517/study/TEE/RT-TEE/optee_os/lib/libutee/tee_api_arith_mpi.c:323
    18c8:	910083f3 	add	x19, sp, #0x20
    18cc:	aa1303e0 	mov	x0, x19
    18d0:	97fffc96 	bl	b28 <get_const_mpi>
/home/zrz0517/study/TEE/RT-TEE/optee_os/lib/libutee/tee_api_arith_mpi.c:325
    18d4:	aa1303e0 	mov	x0, x19
    18d8:	94000604 	bl	30e8 <mbedtls_mpi_bitlen>
    18dc:	aa0003f4 	mov	x20, x0
/home/zrz0517/study/TEE/RT-TEE/optee_os/lib/libutee/tee_api_arith_mpi.c:327
    18e0:	aa1303e0 	mov	x0, x19
    18e4:	97fffcbb 	bl	bd0 <put_mpi>
/home/zrz0517/study/TEE/RT-TEE/optee_os/lib/libutee/tee_api_arith_mpi.c:330
    18e8:	2a1403e0 	mov	w0, w20
    18ec:	a94153f3 	ldp	x19, x20, [sp, #16]
    18f0:	a8c37bfd 	ldp	x29, x30, [sp], #48
    18f4:	d65f03c0 	ret

00000000000018f8 <TEE_BigIntAdd>:
TEE_BigIntAdd():
/home/zrz0517/study/TEE/RT-TEE/optee_os/lib/libutee/tee_api_arith_mpi.c:413
    18f8:	b0000043 	adrp	x3, a000 <__func__.4888+0x13>
    18fc:	f946d063 	ldr	x3, [x3, #3488]
    1900:	17fffcc5 	b	c14 <bigint_binary>

0000000000001904 <TEE_BigIntSub>:
TEE_BigIntSub():
/home/zrz0517/study/TEE/RT-TEE/optee_os/lib/libutee/tee_api_arith_mpi.c:419
    1904:	b0000043 	adrp	x3, a000 <__func__.4888+0x13>
    1908:	f946d863 	ldr	x3, [x3, #3504]
    190c:	17fffcc2 	b	c14 <bigint_binary>

0000000000001910 <TEE_BigIntNeg>:
TEE_BigIntNeg():
/home/zrz0517/study/TEE/RT-TEE/optee_os/lib/libutee/tee_api_arith_mpi.c:423
    1910:	a9bb7bfd 	stp	x29, x30, [sp, #-80]!
    1914:	910003fd 	mov	x29, sp
    1918:	a90153f3 	stp	x19, x20, [sp, #16]
/home/zrz0517/study/TEE/RT-TEE/optee_os/lib/libutee/tee_api_arith_mpi.c:426
    191c:	9100c3f3 	add	x19, sp, #0x30
/home/zrz0517/study/TEE/RT-TEE/optee_os/lib/libutee/tee_api_arith_mpi.c:423
    1920:	aa0003f4 	mov	x20, x0
    1924:	f90013f5 	str	x21, [sp, #32]
    1928:	aa0103f5 	mov	x21, x1
/home/zrz0517/study/TEE/RT-TEE/optee_os/lib/libutee/tee_api_arith_mpi.c:426
    192c:	aa0003e1 	mov	x1, x0
    1930:	aa1303e0 	mov	x0, x19
    1934:	97fffcb2 	bl	bfc <get_mpi>
/home/zrz0517/study/TEE/RT-TEE/optee_os/lib/libutee/tee_api_arith_mpi.c:428
    1938:	eb15029f 	cmp	x20, x21
    193c:	54000220 	b.eq	1980 <TEE_BigIntNeg+0x70>  // b.none
/home/zrz0517/study/TEE/RT-TEE/optee_os/lib/libutee/tee_api_arith_mpi.c:431
    1940:	910103f4 	add	x20, sp, #0x40
    1944:	aa1503e1 	mov	x1, x21
    1948:	aa1403e0 	mov	x0, x20
    194c:	97fffc77 	bl	b28 <get_const_mpi>
/home/zrz0517/study/TEE/RT-TEE/optee_os/lib/libutee/tee_api_arith_mpi.c:433
    1950:	aa1403e1 	mov	x1, x20
    1954:	aa1303e0 	mov	x0, x19
    1958:	940004db 	bl	2cc4 <mbedtls_mpi_copy>
    195c:	340000e0 	cbz	w0, 1978 <TEE_BigIntNeg+0x68>
/home/zrz0517/study/TEE/RT-TEE/optee_os/lib/libutee/tee_api_arith_mpi.c:433 (discriminator 1)
    1960:	2a0003e2 	mov	w2, w0
    1964:	90000040 	adrp	x0, 9000 <__text_end+0xd6c>
    1968:	913c3400 	add	x0, x0, #0xf0d
    196c:	52803621 	mov	w1, #0x1b1                 	// #433
    1970:	91029400 	add	x0, x0, #0xa5
    1974:	97fffc61 	bl	af8 <mpi_panic>
/home/zrz0517/study/TEE/RT-TEE/optee_os/lib/libutee/tee_api_arith_mpi.c:435
    1978:	aa1403e0 	mov	x0, x20
    197c:	97fffc95 	bl	bd0 <put_mpi>
/home/zrz0517/study/TEE/RT-TEE/optee_os/lib/libutee/tee_api_arith_mpi.c:438
    1980:	3940c3e0 	ldrb	w0, [sp, #48]
    1984:	4b0003e0 	neg	w0, w0
    1988:	3900c3e0 	strb	w0, [sp, #48]
/home/zrz0517/study/TEE/RT-TEE/optee_os/lib/libutee/tee_api_arith_mpi.c:440
    198c:	aa1303e0 	mov	x0, x19
    1990:	97fffc90 	bl	bd0 <put_mpi>
/home/zrz0517/study/TEE/RT-TEE/optee_os/lib/libutee/tee_api_arith_mpi.c:441
    1994:	a94153f3 	ldp	x19, x20, [sp, #16]
    1998:	f94013f5 	ldr	x21, [sp, #32]
    199c:	a8c57bfd 	ldp	x29, x30, [sp], #80
    19a0:	d65f03c0 	ret

00000000000019a4 <TEE_BigIntMul>:
TEE_BigIntMul():
/home/zrz0517/study/TEE/RT-TEE/optee_os/lib/libutee/tee_api_arith_mpi.c:445
    19a4:	a9ba7bfd 	stp	x29, x30, [sp, #-96]!
    19a8:	910003fd 	mov	x29, sp
    19ac:	a90153f3 	stp	x19, x20, [sp, #16]
    19b0:	a9025bf5 	stp	x21, x22, [sp, #32]
/home/zrz0517/study/TEE/RT-TEE/optee_os/lib/libutee/tee_api_arith_mpi.c:452
    19b4:	b0000056 	adrp	x22, a000 <__func__.4888+0x13>
    19b8:	aa1603f5 	mov	x21, x22
/home/zrz0517/study/TEE/RT-TEE/optee_os/lib/libutee/tee_api_arith_mpi.c:445
    19bc:	a90363f7 	stp	x23, x24, [sp, #48]
    19c0:	aa0203f8 	mov	x24, x2
    19c4:	aa0103f7 	mov	x23, x1
    19c8:	f90023f9 	str	x25, [sp, #64]
    19cc:	aa0003f9 	mov	x25, x0
/home/zrz0517/study/TEE/RT-TEE/optee_os/lib/libutee/tee_api_arith_mpi.c:446
    19d0:	aa0103e0 	mov	x0, x1
    19d4:	97ffffb9 	bl	18b8 <TEE_BigIntGetBitCount>
    19d8:	2a0003f3 	mov	w19, w0
/home/zrz0517/study/TEE/RT-TEE/optee_os/lib/libutee/tee_api_arith_mpi.c:447
    19dc:	aa1803e0 	mov	x0, x24
    19e0:	97ffffb6 	bl	18b8 <TEE_BigIntGetBitCount>
    19e4:	2a0003e0 	mov	w0, w0
/home/zrz0517/study/TEE/RT-TEE/optee_os/lib/libutee/tee_api_arith_mpi.c:448
    19e8:	91007c00 	add	x0, x0, #0x1f
    19ec:	91007e73 	add	x19, x19, #0x1f
/home/zrz0517/study/TEE/RT-TEE/optee_os/lib/libutee/tee_api_arith_mpi.c:449
    19f0:	f9002bff 	str	xzr, [sp, #80]
/home/zrz0517/study/TEE/RT-TEE/optee_os/lib/libutee/tee_api_arith_mpi.c:448
    19f4:	d345fc00 	lsr	x0, x0, #5
/home/zrz0517/study/TEE/RT-TEE/optee_os/lib/libutee/tee_api_arith_mpi.c:449
    19f8:	b9005bff 	str	wzr, [sp, #88]
/home/zrz0517/study/TEE/RT-TEE/optee_os/lib/libutee/tee_api_arith_mpi.c:448
    19fc:	8b531413 	add	x19, x0, x19, lsr #5
/home/zrz0517/study/TEE/RT-TEE/optee_os/lib/libutee/tee_api_arith_mpi.c:452
    1a00:	f946eec0 	ldr	x0, [x22, #3544]
/home/zrz0517/study/TEE/RT-TEE/optee_os/lib/libutee/tee_api_arith_mpi.c:448
    1a04:	91001273 	add	x19, x19, #0x4
/home/zrz0517/study/TEE/RT-TEE/optee_os/lib/libutee/tee_api_arith_mpi.c:452
    1a08:	d37ef661 	lsl	x1, x19, #2
    1a0c:	f9400000 	ldr	x0, [x0]
    1a10:	940019b0 	bl	80d0 <mempool_alloc>
    1a14:	aa0003f4 	mov	x20, x0
/home/zrz0517/study/TEE/RT-TEE/optee_os/lib/libutee/tee_api_arith_mpi.c:453
    1a18:	b5000060 	cbnz	x0, 1a24 <TEE_BigIntMul+0x80>
/home/zrz0517/study/TEE/RT-TEE/optee_os/lib/libutee/tee_api_arith_mpi.c:454
    1a1c:	129ffe60 	mov	w0, #0xffff000c            	// #-65524
    1a20:	97fffc28 	bl	ac0 <TEE_Panic>
/home/zrz0517/study/TEE/RT-TEE/optee_os/lib/libutee/tee_api_arith_mpi.c:456
    1a24:	2a1303e1 	mov	w1, w19
    1a28:	aa1403e0 	mov	x0, x20
/home/zrz0517/study/TEE/RT-TEE/optee_os/lib/libutee/tee_api_arith_mpi.c:457
    1a2c:	910143f3 	add	x19, sp, #0x50
/home/zrz0517/study/TEE/RT-TEE/optee_os/lib/libutee/tee_api_arith_mpi.c:456
    1a30:	97fffe1f 	bl	12ac <TEE_BigIntInit>
/home/zrz0517/study/TEE/RT-TEE/optee_os/lib/libutee/tee_api_arith_mpi.c:457
    1a34:	aa1303e0 	mov	x0, x19
    1a38:	52800061 	mov	w1, #0x3                   	// #3
    1a3c:	97fffe1c 	bl	12ac <TEE_BigIntInit>
/home/zrz0517/study/TEE/RT-TEE/optee_os/lib/libutee/tee_api_arith_mpi.c:459
    1a40:	f946cea3 	ldr	x3, [x21, #3480]
    1a44:	aa1803e2 	mov	x2, x24
    1a48:	aa1703e1 	mov	x1, x23
    1a4c:	aa1403e0 	mov	x0, x20
    1a50:	97fffc71 	bl	c14 <bigint_binary>
/home/zrz0517/study/TEE/RT-TEE/optee_os/lib/libutee/tee_api_arith_mpi.c:461
    1a54:	aa1303e2 	mov	x2, x19
    1a58:	aa1403e1 	mov	x1, x20
    1a5c:	aa1903e0 	mov	x0, x25
    1a60:	97ffffa6 	bl	18f8 <TEE_BigIntAdd>
/home/zrz0517/study/TEE/RT-TEE/optee_os/lib/libutee/tee_api_arith_mpi.c:463
    1a64:	f946eeb5 	ldr	x21, [x21, #3544]
    1a68:	aa1403e1 	mov	x1, x20
    1a6c:	f94002a0 	ldr	x0, [x21]
    1a70:	940019d7 	bl	81cc <mempool_free>
/home/zrz0517/study/TEE/RT-TEE/optee_os/lib/libutee/tee_api_arith_mpi.c:464
    1a74:	a94153f3 	ldp	x19, x20, [sp, #16]
    1a78:	a9425bf5 	ldp	x21, x22, [sp, #32]
    1a7c:	a94363f7 	ldp	x23, x24, [sp, #48]
    1a80:	f94023f9 	ldr	x25, [sp, #64]
    1a84:	a8c67bfd 	ldp	x29, x30, [sp], #96
    1a88:	d65f03c0 	ret

0000000000001a8c <TEE_BigIntSquare>:
TEE_BigIntSquare():
/home/zrz0517/study/TEE/RT-TEE/optee_os/lib/libutee/tee_api_arith_mpi.c:468
    1a8c:	aa0103e2 	mov	x2, x1
    1a90:	17ffffc5 	b	19a4 <TEE_BigIntMul>

0000000000001a94 <TEE_BigIntDiv>:
TEE_BigIntDiv():
/home/zrz0517/study/TEE/RT-TEE/optee_os/lib/libutee/tee_api_arith_mpi.c:473
    1a94:	a9b77bfd 	stp	x29, x30, [sp, #-144]!
    1a98:	910003fd 	mov	x29, sp
    1a9c:	a9025bf5 	stp	x21, x22, [sp, #32]
/home/zrz0517/study/TEE/RT-TEE/optee_os/lib/libutee/tee_api_arith_mpi.c:481
    1aa0:	910143f6 	add	x22, sp, #0x50
/home/zrz0517/study/TEE/RT-TEE/optee_os/lib/libutee/tee_api_arith_mpi.c:482
    1aa4:	910183f5 	add	x21, sp, #0x60
/home/zrz0517/study/TEE/RT-TEE/optee_os/lib/libutee/tee_api_arith_mpi.c:473
    1aa8:	a90153f3 	stp	x19, x20, [sp, #16]
    1aac:	aa0303f3 	mov	x19, x3
    1ab0:	a90363f7 	stp	x23, x24, [sp, #48]
    1ab4:	aa0203f7 	mov	x23, x2
    1ab8:	aa0003f8 	mov	x24, x0
    1abc:	a9046bf9 	stp	x25, x26, [sp, #64]
    1ac0:	aa0103fa 	mov	x26, x1
/home/zrz0517/study/TEE/RT-TEE/optee_os/lib/libutee/tee_api_arith_mpi.c:481
    1ac4:	aa0003e1 	mov	x1, x0
    1ac8:	aa1603e0 	mov	x0, x22
    1acc:	97fffc4c 	bl	bfc <get_mpi>
/home/zrz0517/study/TEE/RT-TEE/optee_os/lib/libutee/tee_api_arith_mpi.c:482
    1ad0:	aa1a03e1 	mov	x1, x26
    1ad4:	aa1503e0 	mov	x0, x21
    1ad8:	97fffc49 	bl	bfc <get_mpi>
/home/zrz0517/study/TEE/RT-TEE/optee_os/lib/libutee/tee_api_arith_mpi.c:484
    1adc:	9101c3f9 	add	x25, sp, #0x70
    1ae0:	eb17031f 	cmp	x24, x23
    1ae4:	540003c0 	b.eq	1b5c <TEE_BigIntDiv+0xc8>  // b.none
/home/zrz0517/study/TEE/RT-TEE/optee_os/lib/libutee/tee_api_arith_mpi.c:486
    1ae8:	eb17035f 	cmp	x26, x23
    1aec:	540003c0 	b.eq	1b64 <TEE_BigIntDiv+0xd0>  // b.none
/home/zrz0517/study/TEE/RT-TEE/optee_os/lib/libutee/tee_api_arith_mpi.c:478
    1af0:	aa1903f4 	mov	x20, x25
/home/zrz0517/study/TEE/RT-TEE/optee_os/lib/libutee/tee_api_arith_mpi.c:489
    1af4:	aa1703e1 	mov	x1, x23
    1af8:	aa1903e0 	mov	x0, x25
    1afc:	97fffc0b 	bl	b28 <get_const_mpi>
/home/zrz0517/study/TEE/RT-TEE/optee_os/lib/libutee/tee_api_arith_mpi.c:491
    1b00:	eb13031f 	cmp	x24, x19
    1b04:	910203f8 	add	x24, sp, #0x80
    1b08:	54000320 	b.eq	1b6c <TEE_BigIntDiv+0xd8>  // b.none
/home/zrz0517/study/TEE/RT-TEE/optee_os/lib/libutee/tee_api_arith_mpi.c:493
    1b0c:	eb13035f 	cmp	x26, x19
    1b10:	54000320 	b.eq	1b74 <TEE_BigIntDiv+0xe0>  // b.none
/home/zrz0517/study/TEE/RT-TEE/optee_os/lib/libutee/tee_api_arith_mpi.c:495
    1b14:	eb1302ff 	cmp	x23, x19
    1b18:	54000320 	b.eq	1b7c <TEE_BigIntDiv+0xe8>  // b.none
/home/zrz0517/study/TEE/RT-TEE/optee_os/lib/libutee/tee_api_arith_mpi.c:498
    1b1c:	aa1303e1 	mov	x1, x19
/home/zrz0517/study/TEE/RT-TEE/optee_os/lib/libutee/tee_api_arith_mpi.c:479
    1b20:	aa1803f3 	mov	x19, x24
/home/zrz0517/study/TEE/RT-TEE/optee_os/lib/libutee/tee_api_arith_mpi.c:498
    1b24:	aa1803e0 	mov	x0, x24
    1b28:	97fffc00 	bl	b28 <get_const_mpi>
/home/zrz0517/study/TEE/RT-TEE/optee_os/lib/libutee/tee_api_arith_mpi.c:500
    1b2c:	aa1303e3 	mov	x3, x19
    1b30:	aa1403e2 	mov	x2, x20
    1b34:	aa1503e1 	mov	x1, x21
    1b38:	aa1603e0 	mov	x0, x22
    1b3c:	9400086f 	bl	3cf8 <mbedtls_mpi_div_mpi>
    1b40:	34000220 	cbz	w0, 1b84 <TEE_BigIntDiv+0xf0>
/home/zrz0517/study/TEE/RT-TEE/optee_os/lib/libutee/tee_api_arith_mpi.c:500 (discriminator 1)
    1b44:	2a0003e2 	mov	w2, w0
    1b48:	90000040 	adrp	x0, 9000 <__text_end+0xd6c>
    1b4c:	913c3400 	add	x0, x0, #0xf0d
    1b50:	52803e81 	mov	w1, #0x1f4                 	// #500
    1b54:	9102cc00 	add	x0, x0, #0xb3
    1b58:	97fffbe8 	bl	af8 <mpi_panic>
/home/zrz0517/study/TEE/RT-TEE/optee_os/lib/libutee/tee_api_arith_mpi.c:485
    1b5c:	aa1603f4 	mov	x20, x22
    1b60:	17ffffe8 	b	1b00 <TEE_BigIntDiv+0x6c>
/home/zrz0517/study/TEE/RT-TEE/optee_os/lib/libutee/tee_api_arith_mpi.c:487
    1b64:	aa1503f4 	mov	x20, x21
    1b68:	17ffffe6 	b	1b00 <TEE_BigIntDiv+0x6c>
/home/zrz0517/study/TEE/RT-TEE/optee_os/lib/libutee/tee_api_arith_mpi.c:492
    1b6c:	aa1603f3 	mov	x19, x22
    1b70:	17ffffef 	b	1b2c <TEE_BigIntDiv+0x98>
/home/zrz0517/study/TEE/RT-TEE/optee_os/lib/libutee/tee_api_arith_mpi.c:494
    1b74:	aa1503f3 	mov	x19, x21
    1b78:	17ffffed 	b	1b2c <TEE_BigIntDiv+0x98>
/home/zrz0517/study/TEE/RT-TEE/optee_os/lib/libutee/tee_api_arith_mpi.c:496
    1b7c:	aa1403f3 	mov	x19, x20
    1b80:	17ffffeb 	b	1b2c <TEE_BigIntDiv+0x98>
/home/zrz0517/study/TEE/RT-TEE/optee_os/lib/libutee/tee_api_arith_mpi.c:502
    1b84:	aa1603e0 	mov	x0, x22
    1b88:	97fffc12 	bl	bd0 <put_mpi>
/home/zrz0517/study/TEE/RT-TEE/optee_os/lib/libutee/tee_api_arith_mpi.c:503
    1b8c:	aa1503e0 	mov	x0, x21
    1b90:	97fffc10 	bl	bd0 <put_mpi>
/home/zrz0517/study/TEE/RT-TEE/optee_os/lib/libutee/tee_api_arith_mpi.c:504
    1b94:	eb19029f 	cmp	x20, x25
    1b98:	54000061 	b.ne	1ba4 <TEE_BigIntDiv+0x110>  // b.any
/home/zrz0517/study/TEE/RT-TEE/optee_os/lib/libutee/tee_api_arith_mpi.c:505
    1b9c:	aa1403e0 	mov	x0, x20
    1ba0:	97fffc0c 	bl	bd0 <put_mpi>
/home/zrz0517/study/TEE/RT-TEE/optee_os/lib/libutee/tee_api_arith_mpi.c:506
    1ba4:	eb18027f 	cmp	x19, x24
    1ba8:	54000061 	b.ne	1bb4 <TEE_BigIntDiv+0x120>  // b.any
/home/zrz0517/study/TEE/RT-TEE/optee_os/lib/libutee/tee_api_arith_mpi.c:507
    1bac:	aa1303e0 	mov	x0, x19
    1bb0:	97fffc08 	bl	bd0 <put_mpi>
/home/zrz0517/study/TEE/RT-TEE/optee_os/lib/libutee/tee_api_arith_mpi.c:508
    1bb4:	a94153f3 	ldp	x19, x20, [sp, #16]
    1bb8:	a9425bf5 	ldp	x21, x22, [sp, #32]
    1bbc:	a94363f7 	ldp	x23, x24, [sp, #48]
    1bc0:	a9446bf9 	ldp	x25, x26, [sp, #64]
    1bc4:	a8c97bfd 	ldp	x29, x30, [sp], #144
    1bc8:	d65f03c0 	ret

0000000000001bcc <TEE_BigIntMod>:
TEE_BigIntMod():
/home/zrz0517/study/TEE/RT-TEE/optee_os/lib/libutee/tee_api_arith_mpi.c:511
    1bcc:	a9bd7bfd 	stp	x29, x30, [sp, #-48]!
    1bd0:	910003fd 	mov	x29, sp
    1bd4:	a90153f3 	stp	x19, x20, [sp, #16]
    1bd8:	aa0003f3 	mov	x19, x0
    1bdc:	aa0103f4 	mov	x20, x1
/home/zrz0517/study/TEE/RT-TEE/optee_os/lib/libutee/tee_api_arith_mpi.c:512
    1be0:	aa0203e0 	mov	x0, x2
    1be4:	52800041 	mov	w1, #0x2                   	// #2
    1be8:	f90017e2 	str	x2, [sp, #40]
    1bec:	97fffe60 	bl	156c <TEE_BigIntCmpS32>
    1bf0:	f94017e2 	ldr	x2, [sp, #40]
    1bf4:	36f80100 	tbz	w0, #31, 1c14 <TEE_BigIntMod+0x48>
/home/zrz0517/study/TEE/RT-TEE/optee_os/lib/libutee/tee_api_arith_mpi.c:513
    1bf8:	90000040 	adrp	x0, 9000 <__text_end+0xd6c>
    1bfc:	913c3400 	add	x0, x0, #0xf0d
    1c00:	b0000042 	adrp	x2, a000 <__func__.4888+0x13>
    1c04:	52804021 	mov	w1, #0x201                 	// #513
    1c08:	91031c42 	add	x2, x2, #0xc7
    1c0c:	91030400 	add	x0, x0, #0xc1
    1c10:	97fffbae 	bl	ac8 <api_panic>
/home/zrz0517/study/TEE/RT-TEE/optee_os/lib/libutee/tee_api_arith_mpi.c:515
    1c14:	b0000043 	adrp	x3, a000 <__func__.4888+0x13>
    1c18:	aa1403e1 	mov	x1, x20
    1c1c:	aa1303e0 	mov	x0, x19
    1c20:	f946e063 	ldr	x3, [x3, #3520]
/home/zrz0517/study/TEE/RT-TEE/optee_os/lib/libutee/tee_api_arith_mpi.c:516
    1c24:	a94153f3 	ldp	x19, x20, [sp, #16]
    1c28:	a8c37bfd 	ldp	x29, x30, [sp], #48
/home/zrz0517/study/TEE/RT-TEE/optee_os/lib/libutee/tee_api_arith_mpi.c:515
    1c2c:	17fffbfa 	b	c14 <bigint_binary>

0000000000001c30 <TEE_BigIntAddMod>:
TEE_BigIntAddMod():
/home/zrz0517/study/TEE/RT-TEE/optee_os/lib/libutee/tee_api_arith_mpi.c:521
    1c30:	b0000044 	adrp	x4, a000 <__func__.4888+0x13>
    1c34:	f946d084 	ldr	x4, [x4, #3488]
    1c38:	17fffe5f 	b	15b4 <bigint_binary_mod>

0000000000001c3c <TEE_BigIntSubMod>:
TEE_BigIntSubMod():
/home/zrz0517/study/TEE/RT-TEE/optee_os/lib/libutee/tee_api_arith_mpi.c:527
    1c3c:	b0000044 	adrp	x4, a000 <__func__.4888+0x13>
    1c40:	f946d884 	ldr	x4, [x4, #3504]
    1c44:	17fffe5c 	b	15b4 <bigint_binary_mod>

0000000000001c48 <TEE_BigIntMulMod>:
TEE_BigIntMulMod():
/home/zrz0517/study/TEE/RT-TEE/optee_os/lib/libutee/tee_api_arith_mpi.c:533
    1c48:	b0000044 	adrp	x4, a000 <__func__.4888+0x13>
    1c4c:	f946cc84 	ldr	x4, [x4, #3480]
    1c50:	17fffe59 	b	15b4 <bigint_binary_mod>

0000000000001c54 <TEE_BigIntSquareMod>:
TEE_BigIntSquareMod():
/home/zrz0517/study/TEE/RT-TEE/optee_os/lib/libutee/tee_api_arith_mpi.c:539
    1c54:	aa0203e3 	mov	x3, x2
    1c58:	aa0103e2 	mov	x2, x1
    1c5c:	17fffffb 	b	1c48 <TEE_BigIntMulMod>

0000000000001c60 <TEE_BigIntInvMod>:
TEE_BigIntInvMod():
/home/zrz0517/study/TEE/RT-TEE/optee_os/lib/libutee/tee_api_arith_mpi.c:544
    1c60:	a9b97bfd 	stp	x29, x30, [sp, #-112]!
    1c64:	910003fd 	mov	x29, sp
    1c68:	a90153f3 	stp	x19, x20, [sp, #16]
    1c6c:	aa0103f3 	mov	x19, x1
/home/zrz0517/study/TEE/RT-TEE/optee_os/lib/libutee/tee_api_arith_mpi.c:545
    1c70:	52800041 	mov	w1, #0x2                   	// #2
/home/zrz0517/study/TEE/RT-TEE/optee_os/lib/libutee/tee_api_arith_mpi.c:544
    1c74:	a9025bf5 	stp	x21, x22, [sp, #32]
    1c78:	aa0003f5 	mov	x21, x0
/home/zrz0517/study/TEE/RT-TEE/optee_os/lib/libutee/tee_api_arith_mpi.c:545
    1c7c:	aa0203e0 	mov	x0, x2
/home/zrz0517/study/TEE/RT-TEE/optee_os/lib/libutee/tee_api_arith_mpi.c:544
    1c80:	f9001bf7 	str	x23, [sp, #48]
    1c84:	aa0203f7 	mov	x23, x2
/home/zrz0517/study/TEE/RT-TEE/optee_os/lib/libutee/tee_api_arith_mpi.c:545
    1c88:	97fffe39 	bl	156c <TEE_BigIntCmpS32>
    1c8c:	36f80100 	tbz	w0, #31, 1cac <TEE_BigIntInvMod+0x4c>
/home/zrz0517/study/TEE/RT-TEE/optee_os/lib/libutee/tee_api_arith_mpi.c:546
    1c90:	90000040 	adrp	x0, 9000 <__text_end+0xd6c>
    1c94:	913c3400 	add	x0, x0, #0xf0d
    1c98:	b0000042 	adrp	x2, a000 <__func__.4888+0x13>
    1c9c:	52804441 	mov	w1, #0x222                 	// #546
    1ca0:	91037042 	add	x2, x2, #0xdc
    1ca4:	91033c00 	add	x0, x0, #0xcf
    1ca8:	97fffb88 	bl	ac8 <api_panic>
/home/zrz0517/study/TEE/RT-TEE/optee_os/lib/libutee/tee_api_arith_mpi.c:545 (discriminator 1)
    1cac:	52800001 	mov	w1, #0x0                   	// #0
    1cb0:	aa1303e0 	mov	x0, x19
    1cb4:	97fffe2e 	bl	156c <TEE_BigIntCmpS32>
    1cb8:	34fffec0 	cbz	w0, 1c90 <TEE_BigIntInvMod+0x30>
/home/zrz0517/study/TEE/RT-TEE/optee_os/lib/libutee/tee_api_arith_mpi.c:553
    1cbc:	910103f4 	add	x20, sp, #0x40
    1cc0:	aa1503e1 	mov	x1, x21
    1cc4:	aa1403e0 	mov	x0, x20
/home/zrz0517/study/TEE/RT-TEE/optee_os/lib/libutee/tee_api_arith_mpi.c:554
    1cc8:	910183f6 	add	x22, sp, #0x60
/home/zrz0517/study/TEE/RT-TEE/optee_os/lib/libutee/tee_api_arith_mpi.c:553
    1ccc:	97fffbcc 	bl	bfc <get_mpi>
/home/zrz0517/study/TEE/RT-TEE/optee_os/lib/libutee/tee_api_arith_mpi.c:554
    1cd0:	aa1703e1 	mov	x1, x23
    1cd4:	aa1603e0 	mov	x0, x22
    1cd8:	97fffb94 	bl	b28 <get_const_mpi>
/home/zrz0517/study/TEE/RT-TEE/optee_os/lib/libutee/tee_api_arith_mpi.c:556
    1cdc:	eb15027f 	cmp	x19, x21
    1ce0:	910143f5 	add	x21, sp, #0x50
    1ce4:	54000200 	b.eq	1d24 <TEE_BigIntInvMod+0xc4>  // b.none
/home/zrz0517/study/TEE/RT-TEE/optee_os/lib/libutee/tee_api_arith_mpi.c:559
    1ce8:	aa1303e1 	mov	x1, x19
/home/zrz0517/study/TEE/RT-TEE/optee_os/lib/libutee/tee_api_arith_mpi.c:551
    1cec:	aa1503f3 	mov	x19, x21
/home/zrz0517/study/TEE/RT-TEE/optee_os/lib/libutee/tee_api_arith_mpi.c:559
    1cf0:	aa1503e0 	mov	x0, x21
    1cf4:	97fffb8d 	bl	b28 <get_const_mpi>
/home/zrz0517/study/TEE/RT-TEE/optee_os/lib/libutee/tee_api_arith_mpi.c:561
    1cf8:	aa1603e2 	mov	x2, x22
    1cfc:	aa1303e1 	mov	x1, x19
    1d00:	aa1403e0 	mov	x0, x20
    1d04:	94000dba 	bl	53ec <mbedtls_mpi_inv_mod>
    1d08:	34000120 	cbz	w0, 1d2c <TEE_BigIntInvMod+0xcc>
/home/zrz0517/study/TEE/RT-TEE/optee_os/lib/libutee/tee_api_arith_mpi.c:561 (discriminator 1)
    1d0c:	2a0003e2 	mov	w2, w0
    1d10:	90000040 	adrp	x0, 9000 <__text_end+0xd6c>
    1d14:	913c3400 	add	x0, x0, #0xf0d
    1d18:	52804621 	mov	w1, #0x231                 	// #561
    1d1c:	91033c00 	add	x0, x0, #0xcf
    1d20:	97fffb76 	bl	af8 <mpi_panic>
/home/zrz0517/study/TEE/RT-TEE/optee_os/lib/libutee/tee_api_arith_mpi.c:557
    1d24:	aa1403f3 	mov	x19, x20
    1d28:	17fffff4 	b	1cf8 <TEE_BigIntInvMod+0x98>
/home/zrz0517/study/TEE/RT-TEE/optee_os/lib/libutee/tee_api_arith_mpi.c:563
    1d2c:	aa1403e0 	mov	x0, x20
    1d30:	97fffba8 	bl	bd0 <put_mpi>
/home/zrz0517/study/TEE/RT-TEE/optee_os/lib/libutee/tee_api_arith_mpi.c:564
    1d34:	aa1603e0 	mov	x0, x22
    1d38:	97fffba6 	bl	bd0 <put_mpi>
/home/zrz0517/study/TEE/RT-TEE/optee_os/lib/libutee/tee_api_arith_mpi.c:565
    1d3c:	eb15027f 	cmp	x19, x21
    1d40:	54000061 	b.ne	1d4c <TEE_BigIntInvMod+0xec>  // b.any
/home/zrz0517/study/TEE/RT-TEE/optee_os/lib/libutee/tee_api_arith_mpi.c:566
    1d44:	aa1303e0 	mov	x0, x19
    1d48:	97fffba2 	bl	bd0 <put_mpi>
/home/zrz0517/study/TEE/RT-TEE/optee_os/lib/libutee/tee_api_arith_mpi.c:567
    1d4c:	a94153f3 	ldp	x19, x20, [sp, #16]
    1d50:	a9425bf5 	ldp	x21, x22, [sp, #32]
    1d54:	f9401bf7 	ldr	x23, [sp, #48]
    1d58:	a8c77bfd 	ldp	x29, x30, [sp], #112
    1d5c:	d65f03c0 	ret

0000000000001d60 <TEE_BigIntRelativePrime>:
TEE_BigIntRelativePrime():
/home/zrz0517/study/TEE/RT-TEE/optee_os/lib/libutee/tee_api_arith_mpi.c:570
    1d60:	a9b97bfd 	stp	x29, x30, [sp, #-112]!
    1d64:	910003fd 	mov	x29, sp
    1d68:	a90153f3 	stp	x19, x20, [sp, #16]
/home/zrz0517/study/TEE/RT-TEE/optee_os/lib/libutee/tee_api_arith_mpi.c:577
    1d6c:	910103f4 	add	x20, sp, #0x40
/home/zrz0517/study/TEE/RT-TEE/optee_os/lib/libutee/tee_api_arith_mpi.c:570
    1d70:	aa0003f3 	mov	x19, x0
    1d74:	a9025bf5 	stp	x21, x22, [sp, #32]
    1d78:	aa0103f5 	mov	x21, x1
/home/zrz0517/study/TEE/RT-TEE/optee_os/lib/libutee/tee_api_arith_mpi.c:577
    1d7c:	aa0003e1 	mov	x1, x0
    1d80:	aa1403e0 	mov	x0, x20
/home/zrz0517/study/TEE/RT-TEE/optee_os/lib/libutee/tee_api_arith_mpi.c:570
    1d84:	f9001bf7 	str	x23, [sp, #48]
/home/zrz0517/study/TEE/RT-TEE/optee_os/lib/libutee/tee_api_arith_mpi.c:577
    1d88:	97fffb68 	bl	b28 <get_const_mpi>
/home/zrz0517/study/TEE/RT-TEE/optee_os/lib/libutee/tee_api_arith_mpi.c:579
    1d8c:	eb15027f 	cmp	x19, x21
    1d90:	910143f3 	add	x19, sp, #0x50
    1d94:	54000260 	b.eq	1de0 <TEE_BigIntRelativePrime+0x80>  // b.none
/home/zrz0517/study/TEE/RT-TEE/optee_os/lib/libutee/tee_api_arith_mpi.c:574
    1d98:	aa1303f6 	mov	x22, x19
/home/zrz0517/study/TEE/RT-TEE/optee_os/lib/libutee/tee_api_arith_mpi.c:582
    1d9c:	aa1503e1 	mov	x1, x21
    1da0:	aa1303e0 	mov	x0, x19
    1da4:	97fffb61 	bl	b28 <get_const_mpi>
get_mpi():
/home/zrz0517/study/TEE/RT-TEE/optee_os/lib/libutee/tee_api_arith_mpi.c:99
    1da8:	910183f5 	add	x21, sp, #0x60
    1dac:	aa1503e0 	mov	x0, x21
    1db0:	940002f1 	bl	2974 <mbedtls_mpi_init_mempool>
TEE_BigIntRelativePrime():
/home/zrz0517/study/TEE/RT-TEE/optee_os/lib/libutee/tee_api_arith_mpi.c:586
    1db4:	aa1303e2 	mov	x2, x19
    1db8:	aa1403e1 	mov	x1, x20
    1dbc:	aa1503e0 	mov	x0, x21
    1dc0:	94000c30 	bl	4e80 <mbedtls_mpi_gcd>
    1dc4:	34000120 	cbz	w0, 1de8 <TEE_BigIntRelativePrime+0x88>
/home/zrz0517/study/TEE/RT-TEE/optee_os/lib/libutee/tee_api_arith_mpi.c:586 (discriminator 1)
    1dc8:	2a0003e2 	mov	w2, w0
    1dcc:	90000040 	adrp	x0, 9000 <__text_end+0xd6c>
    1dd0:	913c3400 	add	x0, x0, #0xf0d
    1dd4:	52804941 	mov	w1, #0x24a                 	// #586
    1dd8:	91038000 	add	x0, x0, #0xe0
    1ddc:	97fffb47 	bl	af8 <mpi_panic>
/home/zrz0517/study/TEE/RT-TEE/optee_os/lib/libutee/tee_api_arith_mpi.c:580
    1de0:	aa1403f6 	mov	x22, x20
    1de4:	17fffff1 	b	1da8 <TEE_BigIntRelativePrime+0x48>
/home/zrz0517/study/TEE/RT-TEE/optee_os/lib/libutee/tee_api_arith_mpi.c:588
    1de8:	52800021 	mov	w1, #0x1                   	// #1
    1dec:	aa1503e0 	mov	x0, x21
    1df0:	940005f9 	bl	35d4 <mbedtls_mpi_cmp_int>
    1df4:	7100001f 	cmp	w0, #0x0
    1df8:	1a9f17f7 	cset	w23, eq  // eq = none
/home/zrz0517/study/TEE/RT-TEE/optee_os/lib/libutee/tee_api_arith_mpi.c:590
    1dfc:	aa1503e0 	mov	x0, x21
    1e00:	97fffb74 	bl	bd0 <put_mpi>
/home/zrz0517/study/TEE/RT-TEE/optee_os/lib/libutee/tee_api_arith_mpi.c:591
    1e04:	aa1403e0 	mov	x0, x20
    1e08:	97fffb72 	bl	bd0 <put_mpi>
/home/zrz0517/study/TEE/RT-TEE/optee_os/lib/libutee/tee_api_arith_mpi.c:592
    1e0c:	eb1302df 	cmp	x22, x19
    1e10:	54000061 	b.ne	1e1c <TEE_BigIntRelativePrime+0xbc>  // b.any
/home/zrz0517/study/TEE/RT-TEE/optee_os/lib/libutee/tee_api_arith_mpi.c:593
    1e14:	aa1603e0 	mov	x0, x22
    1e18:	97fffb6e 	bl	bd0 <put_mpi>
/home/zrz0517/study/TEE/RT-TEE/optee_os/lib/libutee/tee_api_arith_mpi.c:596
    1e1c:	2a1703e0 	mov	w0, w23
    1e20:	a94153f3 	ldp	x19, x20, [sp, #16]
    1e24:	a9425bf5 	ldp	x21, x22, [sp, #32]
    1e28:	f9401bf7 	ldr	x23, [sp, #48]
    1e2c:	a8c77bfd 	ldp	x29, x30, [sp], #112
    1e30:	d65f03c0 	ret

0000000000001e34 <TEE_BigIntComputeExtendedGcd>:
TEE_BigIntComputeExtendedGcd():
/home/zrz0517/study/TEE/RT-TEE/optee_os/lib/libutee/tee_api_arith_mpi.c:707
    1e34:	a9b57bfd 	stp	x29, x30, [sp, #-176]!
    1e38:	910003fd 	mov	x29, sp
    1e3c:	a9025bf5 	stp	x21, x22, [sp, #32]
/home/zrz0517/study/TEE/RT-TEE/optee_os/lib/libutee/tee_api_arith_mpi.c:713
    1e40:	910183f5 	add	x21, sp, #0x60
/home/zrz0517/study/TEE/RT-TEE/optee_os/lib/libutee/tee_api_arith_mpi.c:707
    1e44:	aa0103f6 	mov	x22, x1
/home/zrz0517/study/TEE/RT-TEE/optee_os/lib/libutee/tee_api_arith_mpi.c:713
    1e48:	aa0003e1 	mov	x1, x0
/home/zrz0517/study/TEE/RT-TEE/optee_os/lib/libutee/tee_api_arith_mpi.c:707
    1e4c:	a90153f3 	stp	x19, x20, [sp, #16]
    1e50:	aa0403f3 	mov	x19, x4
/home/zrz0517/study/TEE/RT-TEE/optee_os/lib/libutee/tee_api_arith_mpi.c:714
    1e54:	9101c3f4 	add	x20, sp, #0x70
/home/zrz0517/study/TEE/RT-TEE/optee_os/lib/libutee/tee_api_arith_mpi.c:707
    1e58:	a90363f7 	stp	x23, x24, [sp, #48]
    1e5c:	aa0303f8 	mov	x24, x3
    1e60:	aa0003f7 	mov	x23, x0
/home/zrz0517/study/TEE/RT-TEE/optee_os/lib/libutee/tee_api_arith_mpi.c:713
    1e64:	aa1503e0 	mov	x0, x21
/home/zrz0517/study/TEE/RT-TEE/optee_os/lib/libutee/tee_api_arith_mpi.c:707
    1e68:	a9046bf9 	stp	x25, x26, [sp, #64]
    1e6c:	f9002bfb 	str	x27, [sp, #80]
    1e70:	aa0203fb 	mov	x27, x2
/home/zrz0517/study/TEE/RT-TEE/optee_os/lib/libutee/tee_api_arith_mpi.c:713
    1e74:	97fffb62 	bl	bfc <get_mpi>
/home/zrz0517/study/TEE/RT-TEE/optee_os/lib/libutee/tee_api_arith_mpi.c:714
    1e78:	aa1803e1 	mov	x1, x24
    1e7c:	aa1403e0 	mov	x0, x20
    1e80:	97fffb2a 	bl	b28 <get_const_mpi>
/home/zrz0517/study/TEE/RT-TEE/optee_os/lib/libutee/tee_api_arith_mpi.c:716
    1e84:	eb13031f 	cmp	x24, x19
    1e88:	910203f8 	add	x24, sp, #0x80
    1e8c:	54000260 	b.eq	1ed8 <TEE_BigIntComputeExtendedGcd+0xa4>  // b.none
/home/zrz0517/study/TEE/RT-TEE/optee_os/lib/libutee/tee_api_arith_mpi.c:719
    1e90:	aa1303e1 	mov	x1, x19
/home/zrz0517/study/TEE/RT-TEE/optee_os/lib/libutee/tee_api_arith_mpi.c:711
    1e94:	aa1803f3 	mov	x19, x24
/home/zrz0517/study/TEE/RT-TEE/optee_os/lib/libutee/tee_api_arith_mpi.c:719
    1e98:	aa1803e0 	mov	x0, x24
    1e9c:	97fffb23 	bl	b28 <get_const_mpi>
/home/zrz0517/study/TEE/RT-TEE/optee_os/lib/libutee/tee_api_arith_mpi.c:721
    1ea0:	aa1b02c0 	orr	x0, x22, x27
    1ea4:	b50001e0 	cbnz	x0, 1ee0 <TEE_BigIntComputeExtendedGcd+0xac>
/home/zrz0517/study/TEE/RT-TEE/optee_os/lib/libutee/tee_api_arith_mpi.c:722
    1ea8:	b40008d7 	cbz	x23, 1fc0 <TEE_BigIntComputeExtendedGcd+0x18c>
/home/zrz0517/study/TEE/RT-TEE/optee_os/lib/libutee/tee_api_arith_mpi.c:723
    1eac:	aa1303e2 	mov	x2, x19
    1eb0:	aa1403e1 	mov	x1, x20
    1eb4:	aa1503e0 	mov	x0, x21
    1eb8:	94000bf2 	bl	4e80 <mbedtls_mpi_gcd>
    1ebc:	34000820 	cbz	w0, 1fc0 <TEE_BigIntComputeExtendedGcd+0x18c>
/home/zrz0517/study/TEE/RT-TEE/optee_os/lib/libutee/tee_api_arith_mpi.c:723 (discriminator 1)
    1ec0:	2a0003e2 	mov	w2, w0
    1ec4:	52805a81 	mov	w1, #0x2d4                 	// #724
/home/zrz0517/study/TEE/RT-TEE/optee_os/lib/libutee/tee_api_arith_mpi.c:740 (discriminator 1)
    1ec8:	90000040 	adrp	x0, 9000 <__text_end+0xd6c>
    1ecc:	913c3400 	add	x0, x0, #0xf0d
    1ed0:	9103e000 	add	x0, x0, #0xf8
    1ed4:	97fffb09 	bl	af8 <mpi_panic>
/home/zrz0517/study/TEE/RT-TEE/optee_os/lib/libutee/tee_api_arith_mpi.c:717
    1ed8:	aa1403f3 	mov	x19, x20
    1edc:	17fffff1 	b	1ea0 <TEE_BigIntComputeExtendedGcd+0x6c>
/home/zrz0517/study/TEE/RT-TEE/optee_os/lib/libutee/tee_api_arith_mpi.c:728
    1ee0:	39c1c3fa 	ldrsb	w26, [sp, #112]
/home/zrz0517/study/TEE/RT-TEE/optee_os/lib/libutee/tee_api_arith_mpi.c:732
    1ee4:	52800020 	mov	w0, #0x1                   	// #1
/home/zrz0517/study/TEE/RT-TEE/optee_os/lib/libutee/tee_api_arith_mpi.c:729
    1ee8:	39c00279 	ldrsb	w25, [x19]
/home/zrz0517/study/TEE/RT-TEE/optee_os/lib/libutee/tee_api_arith_mpi.c:735
    1eec:	910243f7 	add	x23, sp, #0x90
/home/zrz0517/study/TEE/RT-TEE/optee_os/lib/libutee/tee_api_arith_mpi.c:732
    1ef0:	3901c3e0 	strb	w0, [sp, #112]
/home/zrz0517/study/TEE/RT-TEE/optee_os/lib/libutee/tee_api_arith_mpi.c:735
    1ef4:	aa1603e1 	mov	x1, x22
/home/zrz0517/study/TEE/RT-TEE/optee_os/lib/libutee/tee_api_arith_mpi.c:733
    1ef8:	39000260 	strb	w0, [x19]
/home/zrz0517/study/TEE/RT-TEE/optee_os/lib/libutee/tee_api_arith_mpi.c:736
    1efc:	910283f6 	add	x22, sp, #0xa0
/home/zrz0517/study/TEE/RT-TEE/optee_os/lib/libutee/tee_api_arith_mpi.c:735
    1f00:	aa1703e0 	mov	x0, x23
    1f04:	97fffb3e 	bl	bfc <get_mpi>
/home/zrz0517/study/TEE/RT-TEE/optee_os/lib/libutee/tee_api_arith_mpi.c:736
    1f08:	aa1b03e1 	mov	x1, x27
    1f0c:	aa1603e0 	mov	x0, x22
    1f10:	97fffb3b 	bl	bfc <get_mpi>
/home/zrz0517/study/TEE/RT-TEE/optee_os/lib/libutee/tee_api_arith_mpi.c:738
    1f14:	aa1303e1 	mov	x1, x19
    1f18:	aa1403e0 	mov	x0, x20
    1f1c:	94000552 	bl	3464 <mbedtls_mpi_cmp_abs>
/home/zrz0517/study/TEE/RT-TEE/optee_os/lib/libutee/tee_api_arith_mpi.c:739
    1f20:	7100001f 	cmp	w0, #0x0
    1f24:	540002c1 	b.ne	1f7c <TEE_BigIntComputeExtendedGcd+0x148>  // b.any
/home/zrz0517/study/TEE/RT-TEE/optee_os/lib/libutee/tee_api_arith_mpi.c:740
    1f28:	aa1403e1 	mov	x1, x20
    1f2c:	aa1503e0 	mov	x0, x21
    1f30:	94000365 	bl	2cc4 <mbedtls_mpi_copy>
    1f34:	34000080 	cbz	w0, 1f44 <TEE_BigIntComputeExtendedGcd+0x110>
/home/zrz0517/study/TEE/RT-TEE/optee_os/lib/libutee/tee_api_arith_mpi.c:740 (discriminator 1)
    1f38:	2a0003e2 	mov	w2, w0
    1f3c:	52805c81 	mov	w1, #0x2e4                 	// #740
    1f40:	17ffffe2 	b	1ec8 <TEE_BigIntComputeExtendedGcd+0x94>
/home/zrz0517/study/TEE/RT-TEE/optee_os/lib/libutee/tee_api_arith_mpi.c:741
    1f44:	52800021 	mov	w1, #0x1                   	// #1
    1f48:	aa1703e0 	mov	x0, x23
    1f4c:	94000409 	bl	2f70 <mbedtls_mpi_lset>
    1f50:	34000080 	cbz	w0, 1f60 <TEE_BigIntComputeExtendedGcd+0x12c>
/home/zrz0517/study/TEE/RT-TEE/optee_os/lib/libutee/tee_api_arith_mpi.c:741 (discriminator 1)
    1f54:	2a0003e2 	mov	w2, w0
    1f58:	52805ca1 	mov	w1, #0x2e5                 	// #741
    1f5c:	17ffffdb 	b	1ec8 <TEE_BigIntComputeExtendedGcd+0x94>
/home/zrz0517/study/TEE/RT-TEE/optee_os/lib/libutee/tee_api_arith_mpi.c:742
    1f60:	52800001 	mov	w1, #0x0                   	// #0
    1f64:	aa1603e0 	mov	x0, x22
    1f68:	94000402 	bl	2f70 <mbedtls_mpi_lset>
    1f6c:	34000160 	cbz	w0, 1f98 <TEE_BigIntComputeExtendedGcd+0x164>
/home/zrz0517/study/TEE/RT-TEE/optee_os/lib/libutee/tee_api_arith_mpi.c:742 (discriminator 1)
    1f70:	2a0003e2 	mov	w2, w0
    1f74:	52805cc1 	mov	w1, #0x2e6                 	// #742
    1f78:	17ffffd4 	b	1ec8 <TEE_BigIntComputeExtendedGcd+0x94>
/home/zrz0517/study/TEE/RT-TEE/optee_os/lib/libutee/tee_api_arith_mpi.c:743
    1f7c:	5400040d 	b.le	1ffc <TEE_BigIntComputeExtendedGcd+0x1c8>
/home/zrz0517/study/TEE/RT-TEE/optee_os/lib/libutee/tee_api_arith_mpi.c:744
    1f80:	aa1303e4 	mov	x4, x19
    1f84:	aa1403e3 	mov	x3, x20
    1f88:	aa1603e2 	mov	x2, x22
    1f8c:	aa1703e1 	mov	x1, x23
/home/zrz0517/study/TEE/RT-TEE/optee_os/lib/libutee/tee_api_arith_mpi.c:746
    1f90:	aa1503e0 	mov	x0, x21
    1f94:	97fffb5f 	bl	d10 <mpi_egcd>
/home/zrz0517/study/TEE/RT-TEE/optee_os/lib/libutee/tee_api_arith_mpi.c:749 (discriminator 1)
    1f98:	394243e0 	ldrb	w0, [sp, #144]
    1f9c:	1b007f5a 	mul	w26, w26, w0
/home/zrz0517/study/TEE/RT-TEE/optee_os/lib/libutee/tee_api_arith_mpi.c:750 (discriminator 1)
    1fa0:	394283e0 	ldrb	w0, [sp, #160]
/home/zrz0517/study/TEE/RT-TEE/optee_os/lib/libutee/tee_api_arith_mpi.c:749 (discriminator 1)
    1fa4:	390243fa 	strb	w26, [sp, #144]
/home/zrz0517/study/TEE/RT-TEE/optee_os/lib/libutee/tee_api_arith_mpi.c:750 (discriminator 1)
    1fa8:	1b007f39 	mul	w25, w25, w0
/home/zrz0517/study/TEE/RT-TEE/optee_os/lib/libutee/tee_api_arith_mpi.c:752 (discriminator 1)
    1fac:	aa1703e0 	mov	x0, x23
/home/zrz0517/study/TEE/RT-TEE/optee_os/lib/libutee/tee_api_arith_mpi.c:750 (discriminator 1)
    1fb0:	390283f9 	strb	w25, [sp, #160]
/home/zrz0517/study/TEE/RT-TEE/optee_os/lib/libutee/tee_api_arith_mpi.c:752 (discriminator 1)
    1fb4:	97fffb07 	bl	bd0 <put_mpi>
/home/zrz0517/study/TEE/RT-TEE/optee_os/lib/libutee/tee_api_arith_mpi.c:753 (discriminator 1)
    1fb8:	aa1603e0 	mov	x0, x22
    1fbc:	97fffb05 	bl	bd0 <put_mpi>
/home/zrz0517/study/TEE/RT-TEE/optee_os/lib/libutee/tee_api_arith_mpi.c:756
    1fc0:	aa1503e0 	mov	x0, x21
    1fc4:	97fffb03 	bl	bd0 <put_mpi>
/home/zrz0517/study/TEE/RT-TEE/optee_os/lib/libutee/tee_api_arith_mpi.c:757
    1fc8:	aa1403e0 	mov	x0, x20
    1fcc:	97fffb01 	bl	bd0 <put_mpi>
/home/zrz0517/study/TEE/RT-TEE/optee_os/lib/libutee/tee_api_arith_mpi.c:758
    1fd0:	eb18027f 	cmp	x19, x24
    1fd4:	54000061 	b.ne	1fe0 <TEE_BigIntComputeExtendedGcd+0x1ac>  // b.any
/home/zrz0517/study/TEE/RT-TEE/optee_os/lib/libutee/tee_api_arith_mpi.c:759
    1fd8:	aa1303e0 	mov	x0, x19
    1fdc:	97fffafd 	bl	bd0 <put_mpi>
/home/zrz0517/study/TEE/RT-TEE/optee_os/lib/libutee/tee_api_arith_mpi.c:760
    1fe0:	a94153f3 	ldp	x19, x20, [sp, #16]
    1fe4:	a9425bf5 	ldp	x21, x22, [sp, #32]
    1fe8:	a94363f7 	ldp	x23, x24, [sp, #48]
    1fec:	a9446bf9 	ldp	x25, x26, [sp, #64]
    1ff0:	f9402bfb 	ldr	x27, [sp, #80]
    1ff4:	a8cb7bfd 	ldp	x29, x30, [sp], #176
    1ff8:	d65f03c0 	ret
/home/zrz0517/study/TEE/RT-TEE/optee_os/lib/libutee/tee_api_arith_mpi.c:746
    1ffc:	aa1403e4 	mov	x4, x20
    2000:	aa1303e3 	mov	x3, x19
    2004:	aa1703e2 	mov	x2, x23
    2008:	aa1603e1 	mov	x1, x22
    200c:	17ffffe1 	b	1f90 <TEE_BigIntComputeExtendedGcd+0x15c>

0000000000002010 <TEE_BigIntIsProbablePrime>:
TEE_BigIntIsProbablePrime():
/home/zrz0517/study/TEE/RT-TEE/optee_os/lib/libutee/tee_api_arith_mpi.c:771
    2010:	a9bd7bfd 	stp	x29, x30, [sp, #-48]!
/home/zrz0517/study/TEE/RT-TEE/optee_os/lib/libutee/tee_api_arith_mpi.c:775
    2014:	aa0003e1 	mov	x1, x0
/home/zrz0517/study/TEE/RT-TEE/optee_os/lib/libutee/tee_api_arith_mpi.c:771
    2018:	910003fd 	mov	x29, sp
    201c:	a90153f3 	stp	x19, x20, [sp, #16]
/home/zrz0517/study/TEE/RT-TEE/optee_os/lib/libutee/tee_api_arith_mpi.c:775
    2020:	910083f3 	add	x19, sp, #0x20
    2024:	aa1303e0 	mov	x0, x19
    2028:	97fffac0 	bl	b28 <get_const_mpi>
/home/zrz0517/study/TEE/RT-TEE/optee_os/lib/libutee/tee_api_arith_mpi.c:777
    202c:	d0ffffe1 	adrp	x1, 0 <ta_head>
    2030:	912ea021 	add	x1, x1, #0xba8
    2034:	d2800002 	mov	x2, #0x0                   	// #0
    2038:	aa1303e0 	mov	x0, x19
    203c:	94000dfa 	bl	5824 <mbedtls_mpi_is_prime>
    2040:	2a0003f4 	mov	w20, w0
/home/zrz0517/study/TEE/RT-TEE/optee_os/lib/libutee/tee_api_arith_mpi.c:779
    2044:	aa1303e0 	mov	x0, x19
    2048:	97fffae2 	bl	bd0 <put_mpi>
/home/zrz0517/study/TEE/RT-TEE/optee_os/lib/libutee/tee_api_arith_mpi.c:781
    204c:	7100029f 	cmp	w20, #0x0
/home/zrz0517/study/TEE/RT-TEE/optee_os/lib/libutee/tee_api_arith_mpi.c:785
    2050:	1a9f17e0 	cset	w0, eq  // eq = none
    2054:	a94153f3 	ldp	x19, x20, [sp, #16]
    2058:	a8c37bfd 	ldp	x29, x30, [sp], #48
    205c:	d65f03c0 	ret

0000000000002060 <TEE_BigIntInitFMM>:
TEE_BigIntInitFMM():
/home/zrz0517/study/TEE/RT-TEE/optee_os/lib/libutee/tee_api_arith_mpi.c:797
    2060:	17fffc93 	b	12ac <TEE_BigIntInit>

0000000000002064 <TEE_BigIntInitFMMContext>:
TEE_BigIntInitFMMContext():
/home/zrz0517/study/TEE/RT-TEE/optee_os/lib/libutee/tee_api_arith_mpi.c:804
    2064:	d65f03c0 	ret

0000000000002068 <TEE_BigIntFMMSizeInU32>:
TEE_BigIntFMMSizeInU32():
/home/zrz0517/study/TEE/RT-TEE/optee_os/lib/libutee/tee_api_arith_mpi.c:808
    2068:	11007c00 	add	w0, w0, #0x1f
    206c:	53057c00 	lsr	w0, w0, #5
/home/zrz0517/study/TEE/RT-TEE/optee_os/lib/libutee/tee_api_arith_mpi.c:809
    2070:	11000800 	add	w0, w0, #0x2
    2074:	d65f03c0 	ret

0000000000002078 <TEE_BigIntFMMContextSizeInU32>:
TEE_BigIntFMMContextSizeInU32():
/home/zrz0517/study/TEE/RT-TEE/optee_os/lib/libutee/tee_api_arith_mpi.c:815
    2078:	52800020 	mov	w0, #0x1                   	// #1
    207c:	d65f03c0 	ret

0000000000002080 <TEE_BigIntConvertToFMM>:
TEE_BigIntConvertToFMM():
/home/zrz0517/study/TEE/RT-TEE/optee_os/lib/libutee/tee_api_arith_mpi.c:821
    2080:	17fffed3 	b	1bcc <TEE_BigIntMod>

0000000000002084 <TEE_BigIntConvertFromFMM>:
TEE_BigIntConvertFromFMM():
/home/zrz0517/study/TEE/RT-TEE/optee_os/lib/libutee/tee_api_arith_mpi.c:827
    2084:	a9bb7bfd 	stp	x29, x30, [sp, #-80]!
    2088:	910003fd 	mov	x29, sp
    208c:	a90153f3 	stp	x19, x20, [sp, #16]
/home/zrz0517/study/TEE/RT-TEE/optee_os/lib/libutee/tee_api_arith_mpi.c:831
    2090:	9100c3f4 	add	x20, sp, #0x30
/home/zrz0517/study/TEE/RT-TEE/optee_os/lib/libutee/tee_api_arith_mpi.c:832
    2094:	910103f3 	add	x19, sp, #0x40
/home/zrz0517/study/TEE/RT-TEE/optee_os/lib/libutee/tee_api_arith_mpi.c:827
    2098:	f90013f5 	str	x21, [sp, #32]
    209c:	aa0103f5 	mov	x21, x1
/home/zrz0517/study/TEE/RT-TEE/optee_os/lib/libutee/tee_api_arith_mpi.c:831
    20a0:	aa0003e1 	mov	x1, x0
    20a4:	aa1403e0 	mov	x0, x20
    20a8:	97fffad5 	bl	bfc <get_mpi>
/home/zrz0517/study/TEE/RT-TEE/optee_os/lib/libutee/tee_api_arith_mpi.c:832
    20ac:	aa1503e1 	mov	x1, x21
    20b0:	aa1303e0 	mov	x0, x19
    20b4:	97fffa9d 	bl	b28 <get_const_mpi>
/home/zrz0517/study/TEE/RT-TEE/optee_os/lib/libutee/tee_api_arith_mpi.c:834
    20b8:	aa1303e1 	mov	x1, x19
    20bc:	aa1403e0 	mov	x0, x20
    20c0:	94000301 	bl	2cc4 <mbedtls_mpi_copy>
    20c4:	340000e0 	cbz	w0, 20e0 <TEE_BigIntConvertFromFMM+0x5c>
/home/zrz0517/study/TEE/RT-TEE/optee_os/lib/libutee/tee_api_arith_mpi.c:834 (discriminator 1)
    20c8:	2a0003e2 	mov	w2, w0
    20cc:	f0000020 	adrp	x0, 9000 <__text_end+0xd6c>
    20d0:	913c3400 	add	x0, x0, #0xf0d
    20d4:	52806841 	mov	w1, #0x342                 	// #834
    20d8:	91045400 	add	x0, x0, #0x115
    20dc:	97fffa87 	bl	af8 <mpi_panic>
/home/zrz0517/study/TEE/RT-TEE/optee_os/lib/libutee/tee_api_arith_mpi.c:836
    20e0:	aa1403e0 	mov	x0, x20
    20e4:	97fffabb 	bl	bd0 <put_mpi>
/home/zrz0517/study/TEE/RT-TEE/optee_os/lib/libutee/tee_api_arith_mpi.c:837
    20e8:	aa1303e0 	mov	x0, x19
    20ec:	97fffab9 	bl	bd0 <put_mpi>
/home/zrz0517/study/TEE/RT-TEE/optee_os/lib/libutee/tee_api_arith_mpi.c:838
    20f0:	a94153f3 	ldp	x19, x20, [sp, #16]
    20f4:	f94013f5 	ldr	x21, [sp, #32]
    20f8:	a8c57bfd 	ldp	x29, x30, [sp], #80
    20fc:	d65f03c0 	ret

0000000000002100 <TEE_BigIntComputeFMM>:
TEE_BigIntComputeFMM():
/home/zrz0517/study/TEE/RT-TEE/optee_os/lib/libutee/tee_api_arith_mpi.c:843
    2100:	a9b67bfd 	stp	x29, x30, [sp, #-160]!
    2104:	910003fd 	mov	x29, sp
    2108:	a90153f3 	stp	x19, x20, [sp, #16]
/home/zrz0517/study/TEE/RT-TEE/optee_os/lib/libutee/tee_api_arith_mpi.c:850
    210c:	910143f4 	add	x20, sp, #0x50
/home/zrz0517/study/TEE/RT-TEE/optee_os/lib/libutee/tee_api_arith_mpi.c:843
    2110:	aa0103f3 	mov	x19, x1
/home/zrz0517/study/TEE/RT-TEE/optee_os/lib/libutee/tee_api_arith_mpi.c:850
    2114:	aa0003e1 	mov	x1, x0
    2118:	aa1403e0 	mov	x0, x20
/home/zrz0517/study/TEE/RT-TEE/optee_os/lib/libutee/tee_api_arith_mpi.c:843
    211c:	a9025bf5 	stp	x21, x22, [sp, #32]
/home/zrz0517/study/TEE/RT-TEE/optee_os/lib/libutee/tee_api_arith_mpi.c:851
    2120:	910183f5 	add	x21, sp, #0x60
/home/zrz0517/study/TEE/RT-TEE/optee_os/lib/libutee/tee_api_arith_mpi.c:852
    2124:	9101c3f6 	add	x22, sp, #0x70
/home/zrz0517/study/TEE/RT-TEE/optee_os/lib/libutee/tee_api_arith_mpi.c:843
    2128:	f9001bf7 	str	x23, [sp, #48]
/home/zrz0517/study/TEE/RT-TEE/optee_os/lib/libutee/tee_api_arith_mpi.c:853
    212c:	910203f7 	add	x23, sp, #0x80
/home/zrz0517/study/TEE/RT-TEE/optee_os/lib/libutee/tee_api_arith_mpi.c:843
    2130:	a9040be3 	stp	x3, x2, [sp, #64]
/home/zrz0517/study/TEE/RT-TEE/optee_os/lib/libutee/tee_api_arith_mpi.c:850
    2134:	97fffab2 	bl	bfc <get_mpi>
/home/zrz0517/study/TEE/RT-TEE/optee_os/lib/libutee/tee_api_arith_mpi.c:851
    2138:	aa1303e1 	mov	x1, x19
    213c:	aa1503e0 	mov	x0, x21
    2140:	97fffa7a 	bl	b28 <get_const_mpi>
/home/zrz0517/study/TEE/RT-TEE/optee_os/lib/libutee/tee_api_arith_mpi.c:852
    2144:	f94027e2 	ldr	x2, [sp, #72]
    2148:	aa1603e0 	mov	x0, x22
get_mpi():
/home/zrz0517/study/TEE/RT-TEE/optee_os/lib/libutee/tee_api_arith_mpi.c:99
    214c:	910243f3 	add	x19, sp, #0x90
TEE_BigIntComputeFMM():
/home/zrz0517/study/TEE/RT-TEE/optee_os/lib/libutee/tee_api_arith_mpi.c:852
    2150:	aa0203e1 	mov	x1, x2
    2154:	97fffa75 	bl	b28 <get_const_mpi>
/home/zrz0517/study/TEE/RT-TEE/optee_os/lib/libutee/tee_api_arith_mpi.c:853
    2158:	f94023e3 	ldr	x3, [sp, #64]
    215c:	aa1703e0 	mov	x0, x23
    2160:	aa0303e1 	mov	x1, x3
    2164:	97fffa71 	bl	b28 <get_const_mpi>
get_mpi():
/home/zrz0517/study/TEE/RT-TEE/optee_os/lib/libutee/tee_api_arith_mpi.c:99
    2168:	aa1303e0 	mov	x0, x19
    216c:	94000202 	bl	2974 <mbedtls_mpi_init_mempool>
TEE_BigIntComputeFMM():
/home/zrz0517/study/TEE/RT-TEE/optee_os/lib/libutee/tee_api_arith_mpi.c:856
    2170:	aa1603e2 	mov	x2, x22
    2174:	aa1503e1 	mov	x1, x21
    2178:	aa1303e0 	mov	x0, x19
    217c:	94000605 	bl	3990 <mbedtls_mpi_mul_mpi>
    2180:	340000e0 	cbz	w0, 219c <TEE_BigIntComputeFMM+0x9c>
/home/zrz0517/study/TEE/RT-TEE/optee_os/lib/libutee/tee_api_arith_mpi.c:856 (discriminator 1)
    2184:	2a0003e2 	mov	w2, w0
    2188:	52806b01 	mov	w1, #0x358                 	// #856
/home/zrz0517/study/TEE/RT-TEE/optee_os/lib/libutee/tee_api_arith_mpi.c:857 (discriminator 1)
    218c:	f0000020 	adrp	x0, 9000 <__text_end+0xd6c>
    2190:	913c3400 	add	x0, x0, #0xf0d
    2194:	9104b800 	add	x0, x0, #0x12e
    2198:	97fffa58 	bl	af8 <mpi_panic>
/home/zrz0517/study/TEE/RT-TEE/optee_os/lib/libutee/tee_api_arith_mpi.c:857
    219c:	aa1703e2 	mov	x2, x23
    21a0:	aa1303e1 	mov	x1, x19
    21a4:	aa1403e0 	mov	x0, x20
    21a8:	94000830 	bl	4268 <mbedtls_mpi_mod_mpi>
    21ac:	34000080 	cbz	w0, 21bc <TEE_BigIntComputeFMM+0xbc>
/home/zrz0517/study/TEE/RT-TEE/optee_os/lib/libutee/tee_api_arith_mpi.c:857 (discriminator 1)
    21b0:	2a0003e2 	mov	w2, w0
    21b4:	52806b21 	mov	w1, #0x359                 	// #857
    21b8:	17fffff5 	b	218c <TEE_BigIntComputeFMM+0x8c>
/home/zrz0517/study/TEE/RT-TEE/optee_os/lib/libutee/tee_api_arith_mpi.c:859
    21bc:	aa1303e0 	mov	x0, x19
    21c0:	97fffa84 	bl	bd0 <put_mpi>
/home/zrz0517/study/TEE/RT-TEE/optee_os/lib/libutee/tee_api_arith_mpi.c:860
    21c4:	aa1703e0 	mov	x0, x23
    21c8:	97fffa82 	bl	bd0 <put_mpi>
/home/zrz0517/study/TEE/RT-TEE/optee_os/lib/libutee/tee_api_arith_mpi.c:861
    21cc:	aa1603e0 	mov	x0, x22
    21d0:	97fffa80 	bl	bd0 <put_mpi>
/home/zrz0517/study/TEE/RT-TEE/optee_os/lib/libutee/tee_api_arith_mpi.c:862
    21d4:	aa1503e0 	mov	x0, x21
    21d8:	97fffa7e 	bl	bd0 <put_mpi>
/home/zrz0517/study/TEE/RT-TEE/optee_os/lib/libutee/tee_api_arith_mpi.c:863
    21dc:	aa1403e0 	mov	x0, x20
    21e0:	97fffa7c 	bl	bd0 <put_mpi>
/home/zrz0517/study/TEE/RT-TEE/optee_os/lib/libutee/tee_api_arith_mpi.c:864
    21e4:	a94153f3 	ldp	x19, x20, [sp, #16]
    21e8:	a9425bf5 	ldp	x21, x22, [sp, #32]
    21ec:	f9401bf7 	ldr	x23, [sp, #48]
    21f0:	a8ca7bfd 	ldp	x29, x30, [sp], #160
    21f4:	d65f03c0 	ret

00000000000021f8 <trace_ext_puts>:
trace_ext_puts():
/home/zrz0517/study/TEE/RT-TEE/optee_os/lib/libutee/trace_ext.c:17
    21f8:	a9be7bfd 	stp	x29, x30, [sp, #-32]!
    21fc:	910003fd 	mov	x29, sp
    2200:	f9000bf3 	str	x19, [sp, #16]
    2204:	aa0003f3 	mov	x19, x0
/home/zrz0517/study/TEE/RT-TEE/optee_os/lib/libutee/trace_ext.c:18
    2208:	940013b8 	bl	70e8 <strlen>
    220c:	aa0003e1 	mov	x1, x0
    2210:	aa1303e0 	mov	x0, x19
/home/zrz0517/study/TEE/RT-TEE/optee_os/lib/libutee/trace_ext.c:19
    2214:	f9400bf3 	ldr	x19, [sp, #16]
    2218:	a8c27bfd 	ldp	x29, x30, [sp], #32
/home/zrz0517/study/TEE/RT-TEE/optee_os/lib/libutee/trace_ext.c:18
    221c:	17fff84f 	b	358 <utee_log>

0000000000002220 <trace_ext_get_thread_id>:
trace_ext_get_thread_id():
/home/zrz0517/study/TEE/RT-TEE/optee_os/lib/libutee/trace_ext.c:24
    2220:	12800000 	mov	w0, #0xffffffff            	// #-1
    2224:	d65f03c0 	ret

0000000000002228 <printf>:
printf():
/home/zrz0517/study/TEE/RT-TEE/optee_os/lib/libutee/trace_ext.c:32
    2228:	d10883ff 	sub	sp, sp, #0x220
    222c:	a9007bfd 	stp	x29, x30, [sp]
    2230:	910003fd 	mov	x29, sp
    2234:	a90153f3 	stp	x19, x20, [sp, #16]
    2238:	aa0003f3 	mov	x19, x0
    223c:	3d805be0 	str	q0, [sp, #352]
    2240:	3d805fe1 	str	q1, [sp, #368]
    2244:	3d8063e2 	str	q2, [sp, #384]
    2248:	3d8067e3 	str	q3, [sp, #400]
    224c:	3d806be4 	str	q4, [sp, #416]
    2250:	3d806fe5 	str	q5, [sp, #432]
    2254:	3d8073e6 	str	q6, [sp, #448]
    2258:	3d8077e7 	str	q7, [sp, #464]
    225c:	a91e8be1 	stp	x1, x2, [sp, #488]
    2260:	a91f93e3 	stp	x3, x4, [sp, #504]
    2264:	f90107e5 	str	x5, [sp, #520]
    2268:	f9010be6 	str	x6, [sp, #528]
    226c:	f9010fe7 	str	x7, [sp, #536]
/home/zrz0517/study/TEE/RT-TEE/optee_os/lib/libutee/trace_ext.c:37
    2270:	940016eb 	bl	7e1c <trace_get_level>
    2274:	7100001f 	cmp	w0, #0x0
    2278:	5400038d 	b.le	22e8 <printf+0xc0>
/home/zrz0517/study/TEE/RT-TEE/optee_os/lib/libutee/trace_ext.c:40
    227c:	910883e0 	add	x0, sp, #0x220
    2280:	a90403e0 	stp	x0, x0, [sp, #64]
    2284:	910783e0 	add	x0, sp, #0x1e0
    2288:	f9002be0 	str	x0, [sp, #80]
    228c:	128006e0 	mov	w0, #0xffffffc8            	// #-56
    2290:	b9005be0 	str	w0, [sp, #88]
    2294:	12800fe0 	mov	w0, #0xffffff80            	// #-128
    2298:	b9005fe0 	str	w0, [sp, #92]
/home/zrz0517/study/TEE/RT-TEE/optee_os/lib/libutee/trace_ext.c:41
    229c:	910183f4 	add	x20, sp, #0x60
    22a0:	a94407e0 	ldp	x0, x1, [sp, #64]
    22a4:	a90207e0 	stp	x0, x1, [sp, #32]
    22a8:	aa1303e2 	mov	x2, x19
    22ac:	a94507e0 	ldp	x0, x1, [sp, #80]
    22b0:	910083e3 	add	x3, sp, #0x20
    22b4:	a90307e0 	stp	x0, x1, [sp, #48]
    22b8:	aa1403e0 	mov	x0, x20
    22bc:	d2802001 	mov	x1, #0x100                 	// #256
    22c0:	94001342 	bl	6fc8 <vsnprintf>
    22c4:	2a0003f3 	mov	w19, w0
/home/zrz0517/study/TEE/RT-TEE/optee_os/lib/libutee/trace_ext.c:44
    22c8:	37f80060 	tbnz	w0, #31, 22d4 <printf+0xac>
/home/zrz0517/study/TEE/RT-TEE/optee_os/lib/libutee/trace_ext.c:47
    22cc:	aa1403e0 	mov	x0, x20
    22d0:	97ffffca 	bl	21f8 <trace_ext_puts>
/home/zrz0517/study/TEE/RT-TEE/optee_os/lib/libutee/trace_ext.c:50
    22d4:	2a1303e0 	mov	w0, w19
    22d8:	a9407bfd 	ldp	x29, x30, [sp]
    22dc:	a94153f3 	ldp	x19, x20, [sp, #16]
    22e0:	910883ff 	add	sp, sp, #0x220
    22e4:	d65f03c0 	ret
/home/zrz0517/study/TEE/RT-TEE/optee_os/lib/libutee/trace_ext.c:38
    22e8:	52800013 	mov	w19, #0x0                   	// #0
    22ec:	17fffffa 	b	22d4 <printf+0xac>

00000000000022f0 <puts>:
puts():
/home/zrz0517/study/TEE/RT-TEE/optee_os/lib/libutee/trace_ext.c:53
    22f0:	a9be7bfd 	stp	x29, x30, [sp, #-32]!
    22f4:	910003fd 	mov	x29, sp
    22f8:	f9000bf3 	str	x19, [sp, #16]
    22fc:	aa0003f3 	mov	x19, x0
/home/zrz0517/study/TEE/RT-TEE/optee_os/lib/libutee/trace_ext.c:54
    2300:	940016c7 	bl	7e1c <trace_get_level>
    2304:	7100001f 	cmp	w0, #0x0
    2308:	540000cd 	b.le	2320 <puts+0x30>
/home/zrz0517/study/TEE/RT-TEE/optee_os/lib/libutee/trace_ext.c:55
    230c:	aa1303e0 	mov	x0, x19
    2310:	97ffffba 	bl	21f8 <trace_ext_puts>
/home/zrz0517/study/TEE/RT-TEE/optee_os/lib/libutee/trace_ext.c:56
    2314:	90000040 	adrp	x0, a000 <__func__.4888+0x13>
    2318:	91158800 	add	x0, x0, #0x562
    231c:	97ffffb7 	bl	21f8 <trace_ext_puts>
/home/zrz0517/study/TEE/RT-TEE/optee_os/lib/libutee/trace_ext.c:59
    2320:	52800020 	mov	w0, #0x1                   	// #1
    2324:	f9400bf3 	ldr	x19, [sp, #16]
    2328:	a8c27bfd 	ldp	x29, x30, [sp], #32
    232c:	d65f03c0 	ret

0000000000002330 <putchar>:
putchar():
/home/zrz0517/study/TEE/RT-TEE/optee_os/lib/libutee/trace_ext.c:62
    2330:	a9bd7bfd 	stp	x29, x30, [sp, #-48]!
    2334:	910003fd 	mov	x29, sp
    2338:	f9000bf3 	str	x19, [sp, #16]
    233c:	2a0003f3 	mov	w19, w0
/home/zrz0517/study/TEE/RT-TEE/optee_os/lib/libutee/trace_ext.c:63
    2340:	3900a3e0 	strb	w0, [sp, #40]
    2344:	3900a7ff 	strb	wzr, [sp, #41]
/home/zrz0517/study/TEE/RT-TEE/optee_os/lib/libutee/trace_ext.c:65
    2348:	940016b5 	bl	7e1c <trace_get_level>
    234c:	7100001f 	cmp	w0, #0x0
    2350:	5400006d 	b.le	235c <putchar+0x2c>
/home/zrz0517/study/TEE/RT-TEE/optee_os/lib/libutee/trace_ext.c:66
    2354:	9100a3e0 	add	x0, sp, #0x28
    2358:	97ffffa8 	bl	21f8 <trace_ext_puts>
/home/zrz0517/study/TEE/RT-TEE/optee_os/lib/libutee/trace_ext.c:73
    235c:	12001e60 	and	w0, w19, #0xff
    2360:	f9400bf3 	ldr	x19, [sp, #16]
    2364:	a8c37bfd 	ldp	x29, x30, [sp], #48
    2368:	d65f03c0 	ret

000000000000236c <mpi_get_digit>:
mpi_get_digit():
/home/zrz0517/study/TEE/RT-TEE/optee_os/lib/libmbedtls/mbedtls/library/bignum.c:485
    236c:	12001c42 	and	w2, w2, #0xff
/home/zrz0517/study/TEE/RT-TEE/optee_os/lib/libmbedtls/mbedtls/library/bignum.c:488
    2370:	5100c043 	sub	w3, w2, #0x30
    2374:	12001c64 	and	w4, w3, #0xff
    2378:	7100249f 	cmp	w4, #0x9
    237c:	540000e8 	b.hi	2398 <mpi_get_digit+0x2c>  // b.pmore
/home/zrz0517/study/TEE/RT-TEE/optee_os/lib/libmbedtls/mbedtls/library/bignum.c:488 (discriminator 1)
    2380:	b9000003 	str	w3, [x0]
/home/zrz0517/study/TEE/RT-TEE/optee_os/lib/libmbedtls/mbedtls/library/bignum.c:492
    2384:	b9400000 	ldr	w0, [x0]
/home/zrz0517/study/TEE/RT-TEE/optee_os/lib/libmbedtls/mbedtls/library/bignum.c:493
    2388:	6b01001f 	cmp	w0, w1
/home/zrz0517/study/TEE/RT-TEE/optee_os/lib/libmbedtls/mbedtls/library/bignum.c:496
    238c:	128000a0 	mov	w0, #0xfffffffa            	// #-6
    2390:	1a9f2000 	csel	w0, w0, wzr, cs  // cs = hs, nlast
    2394:	d65f03c0 	ret
/home/zrz0517/study/TEE/RT-TEE/optee_os/lib/libmbedtls/mbedtls/library/bignum.c:489
    2398:	51010443 	sub	w3, w2, #0x41
    239c:	12001c63 	and	w3, w3, #0xff
    23a0:	7100147f 	cmp	w3, #0x5
    23a4:	54000088 	b.hi	23b4 <mpi_get_digit+0x48>  // b.pmore
/home/zrz0517/study/TEE/RT-TEE/optee_os/lib/libmbedtls/mbedtls/library/bignum.c:489 (discriminator 1)
    23a8:	5100dc42 	sub	w2, w2, #0x37
/home/zrz0517/study/TEE/RT-TEE/optee_os/lib/libmbedtls/mbedtls/library/bignum.c:490
    23ac:	b9000002 	str	w2, [x0]
    23b0:	17fffff5 	b	2384 <mpi_get_digit+0x18>
    23b4:	51018443 	sub	w3, w2, #0x61
    23b8:	51015c42 	sub	w2, w2, #0x57
    23bc:	12001c63 	and	w3, w3, #0xff
    23c0:	7100187f 	cmp	w3, #0x6
    23c4:	52801fe3 	mov	w3, #0xff                  	// #255
    23c8:	1a833042 	csel	w2, w2, w3, cc  // cc = lo, ul, last
    23cc:	17fffff8 	b	23ac <mpi_get_digit+0x40>

00000000000023d0 <mpi_sub_hlp>:
mpi_sub_hlp():
/home/zrz0517/study/TEE/RT-TEE/optee_os/lib/libmbedtls/mbedtls/library/bignum.c:1025
    23d0:	52800005 	mov	w5, #0x0                   	// #0
    23d4:	d2800003 	mov	x3, #0x0                   	// #0
/home/zrz0517/study/TEE/RT-TEE/optee_os/lib/libmbedtls/mbedtls/library/bignum.c:1025 (discriminator 1)
    23d8:	eb00007f 	cmp	x3, x0
    23dc:	54000081 	b.ne	23ec <mpi_sub_hlp+0x1c>  // b.any
    23e0:	8b030843 	add	x3, x2, x3, lsl #2
/home/zrz0517/study/TEE/RT-TEE/optee_os/lib/libmbedtls/mbedtls/library/bignum.c:1031
    23e4:	350001c5 	cbnz	w5, 241c <mpi_sub_hlp+0x4c>
/home/zrz0517/study/TEE/RT-TEE/optee_os/lib/libmbedtls/mbedtls/library/bignum.c:1036
    23e8:	d65f03c0 	ret
/home/zrz0517/study/TEE/RT-TEE/optee_os/lib/libmbedtls/mbedtls/library/bignum.c:1027 (discriminator 3)
    23ec:	b8637844 	ldr	w4, [x2, x3, lsl #2]
    23f0:	6b05009f 	cmp	w4, w5
    23f4:	4b050084 	sub	w4, w4, w5
    23f8:	b8237844 	str	w4, [x2, x3, lsl #2]
    23fc:	1a9f27e7 	cset	w7, cc  // cc = lo, ul, last
/home/zrz0517/study/TEE/RT-TEE/optee_os/lib/libmbedtls/mbedtls/library/bignum.c:1028 (discriminator 3)
    2400:	b8637826 	ldr	w6, [x1, x3, lsl #2]
    2404:	6b06009f 	cmp	w4, w6
    2408:	4b060084 	sub	w4, w4, w6
    240c:	1a8724e5 	cinc	w5, w7, cc  // cc = lo, ul, last
    2410:	b8237844 	str	w4, [x2, x3, lsl #2]
/home/zrz0517/study/TEE/RT-TEE/optee_os/lib/libmbedtls/mbedtls/library/bignum.c:1025 (discriminator 3)
    2414:	91000463 	add	x3, x3, #0x1
    2418:	17fffff0 	b	23d8 <mpi_sub_hlp+0x8>
/home/zrz0517/study/TEE/RT-TEE/optee_os/lib/libmbedtls/mbedtls/library/bignum.c:1033
    241c:	b9400060 	ldr	w0, [x3]
    2420:	6b050005 	subs	w5, w0, w5
    2424:	b8004465 	str	w5, [x3], #4
/home/zrz0517/study/TEE/RT-TEE/optee_os/lib/libmbedtls/mbedtls/library/bignum.c:1034
    2428:	1a9f27e5 	cset	w5, cc  // cc = lo, ul, last
    242c:	17ffffee 	b	23e4 <mpi_sub_hlp+0x14>

0000000000002430 <mpi_mul_hlp>:
mpi_mul_hlp():
/home/zrz0517/study/TEE/RT-TEE/optee_os/lib/libmbedtls/mbedtls/library/bignum.c:1205
    2430:	aa0203e4 	mov	x4, x2
    2434:	aa0103e6 	mov	x6, x1
    2438:	aa0003e8 	mov	x8, x0
/home/zrz0517/study/TEE/RT-TEE/optee_os/lib/libmbedtls/mbedtls/library/bignum.c:1188
    243c:	52800005 	mov	w5, #0x0                   	// #0
/home/zrz0517/study/TEE/RT-TEE/optee_os/lib/libmbedtls/mbedtls/library/bignum.c:1205 (discriminator 1)
    2440:	f1003d1f 	cmp	x8, #0xf
    2444:	b940008a 	ldr	w10, [x4]
    2448:	54000dc8 	b.hi	2600 <mpi_mul_hlp+0x1d0>  // b.pmore
    244c:	d344fc07 	lsr	x7, x0, #4
    2450:	928001e4 	mov	x4, #0xfffffffffffffff0    	// #-16
    2454:	9b0400e0 	madd	x0, x7, x4, x0
    2458:	d37ae4e7 	lsl	x7, x7, #6
    245c:	8b070026 	add	x6, x1, x7
    2460:	8b070044 	add	x4, x2, x7
/home/zrz0517/study/TEE/RT-TEE/optee_os/lib/libmbedtls/mbedtls/library/bignum.c:1220
    2464:	f1001c1f 	cmp	x0, #0x7
    2468:	54000b69 	b.ls	25d4 <mpi_mul_hlp+0x1a4>  // b.plast
/home/zrz0517/study/TEE/RT-TEE/optee_os/lib/libmbedtls/mbedtls/library/bignum.c:1223
    246c:	b8676821 	ldr	w1, [x1, x7]
/home/zrz0517/study/TEE/RT-TEE/optee_os/lib/libmbedtls/mbedtls/library/bignum.c:1220
    2470:	d1002000 	sub	x0, x0, #0x8
/home/zrz0517/study/TEE/RT-TEE/optee_os/lib/libmbedtls/mbedtls/library/bignum.c:1227
    2474:	910080c6 	add	x6, x6, #0x20
    2478:	91008084 	add	x4, x4, #0x20
/home/zrz0517/study/TEE/RT-TEE/optee_os/lib/libmbedtls/mbedtls/library/bignum.c:1223
    247c:	9ba17c61 	umull	x1, w3, w1
    2480:	d360fc28 	lsr	x8, x1, #32
    2484:	0b0100a1 	add	w1, w5, w1
    2488:	6b0100bf 	cmp	w5, w1
    248c:	0b010141 	add	w1, w10, w1
    2490:	b8276841 	str	w1, [x2, x7]
    2494:	1a889508 	cinc	w8, w8, hi  // hi = pmore
    2498:	6b01015f 	cmp	w10, w1
    249c:	b85e40c1 	ldur	w1, [x6, #-28]
    24a0:	1a889508 	cinc	w8, w8, hi  // hi = pmore
    24a4:	b85e4082 	ldur	w2, [x4, #-28]
    24a8:	9ba17c61 	umull	x1, w3, w1
    24ac:	d360fc25 	lsr	x5, x1, #32
    24b0:	0b010101 	add	w1, w8, w1
    24b4:	6b01011f 	cmp	w8, w1
    24b8:	0b020021 	add	w1, w1, w2
    24bc:	b81e4081 	stur	w1, [x4, #-28]
    24c0:	1a8594a5 	cinc	w5, w5, hi  // hi = pmore
    24c4:	6b01005f 	cmp	w2, w1
/home/zrz0517/study/TEE/RT-TEE/optee_os/lib/libmbedtls/mbedtls/library/bignum.c:1224
    24c8:	b85e80c1 	ldur	w1, [x6, #-24]
/home/zrz0517/study/TEE/RT-TEE/optee_os/lib/libmbedtls/mbedtls/library/bignum.c:1223
    24cc:	1a8594a5 	cinc	w5, w5, hi  // hi = pmore
/home/zrz0517/study/TEE/RT-TEE/optee_os/lib/libmbedtls/mbedtls/library/bignum.c:1224
    24d0:	9ba17c61 	umull	x1, w3, w1
    24d4:	d360fc22 	lsr	x2, x1, #32
    24d8:	0b0100a1 	add	w1, w5, w1
    24dc:	6b0100bf 	cmp	w5, w1
    24e0:	b85e8085 	ldur	w5, [x4, #-24]
    24e4:	1a829442 	cinc	w2, w2, hi  // hi = pmore
    24e8:	0b050021 	add	w1, w1, w5
    24ec:	b81e8081 	stur	w1, [x4, #-24]
    24f0:	6b0100bf 	cmp	w5, w1
    24f4:	b85ec0c1 	ldur	w1, [x6, #-20]
    24f8:	1a829442 	cinc	w2, w2, hi  // hi = pmore
    24fc:	9ba17c61 	umull	x1, w3, w1
    2500:	d360fc25 	lsr	x5, x1, #32
    2504:	0b010041 	add	w1, w2, w1
    2508:	6b01005f 	cmp	w2, w1
    250c:	b85ec082 	ldur	w2, [x4, #-20]
    2510:	1a8594a5 	cinc	w5, w5, hi  // hi = pmore
    2514:	0b020021 	add	w1, w1, w2
    2518:	b81ec081 	stur	w1, [x4, #-20]
    251c:	6b01005f 	cmp	w2, w1
/home/zrz0517/study/TEE/RT-TEE/optee_os/lib/libmbedtls/mbedtls/library/bignum.c:1226
    2520:	b85f00c1 	ldur	w1, [x6, #-16]
/home/zrz0517/study/TEE/RT-TEE/optee_os/lib/libmbedtls/mbedtls/library/bignum.c:1224
    2524:	1a8594a5 	cinc	w5, w5, hi  // hi = pmore
/home/zrz0517/study/TEE/RT-TEE/optee_os/lib/libmbedtls/mbedtls/library/bignum.c:1226
    2528:	9ba17c61 	umull	x1, w3, w1
    252c:	d360fc22 	lsr	x2, x1, #32
    2530:	0b0100a1 	add	w1, w5, w1
    2534:	6b0100bf 	cmp	w5, w1
    2538:	b85f0085 	ldur	w5, [x4, #-16]
    253c:	1a829442 	cinc	w2, w2, hi  // hi = pmore
    2540:	0b050021 	add	w1, w1, w5
    2544:	b81f0081 	stur	w1, [x4, #-16]
    2548:	6b0100bf 	cmp	w5, w1
    254c:	b85f40c1 	ldur	w1, [x6, #-12]
    2550:	1a829442 	cinc	w2, w2, hi  // hi = pmore
    2554:	9ba17c61 	umull	x1, w3, w1
    2558:	d360fc25 	lsr	x5, x1, #32
    255c:	0b010041 	add	w1, w2, w1
    2560:	6b01005f 	cmp	w2, w1
    2564:	b85f4082 	ldur	w2, [x4, #-12]
    2568:	1a8594a5 	cinc	w5, w5, hi  // hi = pmore
    256c:	0b020021 	add	w1, w1, w2
    2570:	b81f4081 	stur	w1, [x4, #-12]
    2574:	6b01005f 	cmp	w2, w1
/home/zrz0517/study/TEE/RT-TEE/optee_os/lib/libmbedtls/mbedtls/library/bignum.c:1227
    2578:	b85f80c1 	ldur	w1, [x6, #-8]
/home/zrz0517/study/TEE/RT-TEE/optee_os/lib/libmbedtls/mbedtls/library/bignum.c:1226
    257c:	1a8594a5 	cinc	w5, w5, hi  // hi = pmore
/home/zrz0517/study/TEE/RT-TEE/optee_os/lib/libmbedtls/mbedtls/library/bignum.c:1227
    2580:	9ba17c61 	umull	x1, w3, w1
    2584:	d360fc22 	lsr	x2, x1, #32
    2588:	0b0100a1 	add	w1, w5, w1
    258c:	6b0100bf 	cmp	w5, w1
    2590:	b85f8085 	ldur	w5, [x4, #-8]
    2594:	1a829442 	cinc	w2, w2, hi  // hi = pmore
    2598:	0b050021 	add	w1, w1, w5
    259c:	b81f8081 	stur	w1, [x4, #-8]
    25a0:	6b0100bf 	cmp	w5, w1
    25a4:	b85fc0c1 	ldur	w1, [x6, #-4]
    25a8:	1a829442 	cinc	w2, w2, hi  // hi = pmore
    25ac:	9ba17c61 	umull	x1, w3, w1
    25b0:	d360fc25 	lsr	x5, x1, #32
    25b4:	0b010041 	add	w1, w2, w1
    25b8:	6b01005f 	cmp	w2, w1
    25bc:	b85fc082 	ldur	w2, [x4, #-4]
    25c0:	1a8594a5 	cinc	w5, w5, hi  // hi = pmore
    25c4:	0b020021 	add	w1, w1, w2
    25c8:	b81fc081 	stur	w1, [x4, #-4]
    25cc:	6b01005f 	cmp	w2, w1
    25d0:	1a8594a5 	cinc	w5, w5, hi  // hi = pmore
/home/zrz0517/study/TEE/RT-TEE/optee_os/lib/libmbedtls/mbedtls/library/bignum.c:1227 (discriminator 1)
    25d4:	d2800001 	mov	x1, #0x0                   	// #0
    25d8:	b8617888 	ldr	w8, [x4, x1, lsl #2]
/home/zrz0517/study/TEE/RT-TEE/optee_os/lib/libmbedtls/mbedtls/library/bignum.c:1231 (discriminator 1)
    25dc:	eb00003f 	cmp	x1, x0
    25e0:	54001761 	b.ne	28cc <mpi_mul_hlp+0x49c>  // b.any
    25e4:	8b010884 	add	x4, x4, x1, lsl #2
/home/zrz0517/study/TEE/RT-TEE/optee_os/lib/libmbedtls/mbedtls/library/bignum.c:1242 (discriminator 1)
    25e8:	b9400080 	ldr	w0, [x4]
    25ec:	0b0000a0 	add	w0, w5, w0
    25f0:	b8004480 	str	w0, [x4], #4
/home/zrz0517/study/TEE/RT-TEE/optee_os/lib/libmbedtls/mbedtls/library/bignum.c:1244 (discriminator 1)
    25f4:	6b05001f 	cmp	w0, w5
    25f8:	54001823 	b.cc	28fc <mpi_mul_hlp+0x4cc>  // b.lo, b.ul, b.last
/home/zrz0517/study/TEE/RT-TEE/optee_os/lib/libmbedtls/mbedtls/library/bignum.c:1245
    25fc:	d65f03c0 	ret
/home/zrz0517/study/TEE/RT-TEE/optee_os/lib/libmbedtls/mbedtls/library/bignum.c:1208 (discriminator 2)
    2600:	b94000c7 	ldr	w7, [x6]
    2604:	910100c6 	add	x6, x6, #0x40
    2608:	91010084 	add	x4, x4, #0x40
/home/zrz0517/study/TEE/RT-TEE/optee_os/lib/libmbedtls/mbedtls/library/bignum.c:1205 (discriminator 2)
    260c:	d1004108 	sub	x8, x8, #0x10
/home/zrz0517/study/TEE/RT-TEE/optee_os/lib/libmbedtls/mbedtls/library/bignum.c:1208 (discriminator 2)
    2610:	9ba77c67 	umull	x7, w3, w7
    2614:	d360fce9 	lsr	x9, x7, #32
    2618:	0b0700a7 	add	w7, w5, w7
    261c:	6b0700bf 	cmp	w5, w7
    2620:	0b0a00e5 	add	w5, w7, w10
    2624:	b81c0085 	stur	w5, [x4, #-64]
    2628:	1a899529 	cinc	w9, w9, hi  // hi = pmore
    262c:	6b0a00bf 	cmp	w5, w10
    2630:	b85c40c5 	ldur	w5, [x6, #-60]
    2634:	1a892529 	cinc	w9, w9, cc  // cc = lo, ul, last
    2638:	9ba57c65 	umull	x5, w3, w5
    263c:	d360fca7 	lsr	x7, x5, #32
    2640:	0b050125 	add	w5, w9, w5
    2644:	6b05013f 	cmp	w9, w5
    2648:	b85c4089 	ldur	w9, [x4, #-60]
    264c:	1a8794e7 	cinc	w7, w7, hi  // hi = pmore
    2650:	0b050125 	add	w5, w9, w5
    2654:	b81c4085 	stur	w5, [x4, #-60]
    2658:	6b05013f 	cmp	w9, w5
/home/zrz0517/study/TEE/RT-TEE/optee_os/lib/libmbedtls/mbedtls/library/bignum.c:1209 (discriminator 2)
    265c:	b85c80c5 	ldur	w5, [x6, #-56]
/home/zrz0517/study/TEE/RT-TEE/optee_os/lib/libmbedtls/mbedtls/library/bignum.c:1208 (discriminator 2)
    2660:	1a8794e7 	cinc	w7, w7, hi  // hi = pmore
/home/zrz0517/study/TEE/RT-TEE/optee_os/lib/libmbedtls/mbedtls/library/bignum.c:1209 (discriminator 2)
    2664:	9ba57c65 	umull	x5, w3, w5
    2668:	d360fca9 	lsr	x9, x5, #32
    266c:	0b0500e5 	add	w5, w7, w5
    2670:	6b0500ff 	cmp	w7, w5
    2674:	b85c8087 	ldur	w7, [x4, #-56]
    2678:	1a899529 	cinc	w9, w9, hi  // hi = pmore
    267c:	0b0500e5 	add	w5, w7, w5
    2680:	b81c8085 	stur	w5, [x4, #-56]
    2684:	6b0500ff 	cmp	w7, w5
    2688:	b85cc0c5 	ldur	w5, [x6, #-52]
    268c:	1a899529 	cinc	w9, w9, hi  // hi = pmore
    2690:	9ba57c65 	umull	x5, w3, w5
    2694:	d360fca7 	lsr	x7, x5, #32
    2698:	0b050125 	add	w5, w9, w5
    269c:	6b05013f 	cmp	w9, w5
    26a0:	b85cc089 	ldur	w9, [x4, #-52]
    26a4:	1a8794e7 	cinc	w7, w7, hi  // hi = pmore
    26a8:	0b050125 	add	w5, w9, w5
    26ac:	b81cc085 	stur	w5, [x4, #-52]
    26b0:	6b05013f 	cmp	w9, w5
/home/zrz0517/study/TEE/RT-TEE/optee_os/lib/libmbedtls/mbedtls/library/bignum.c:1210 (discriminator 2)
    26b4:	b85d00c5 	ldur	w5, [x6, #-48]
/home/zrz0517/study/TEE/RT-TEE/optee_os/lib/libmbedtls/mbedtls/library/bignum.c:1209 (discriminator 2)
    26b8:	1a8794e7 	cinc	w7, w7, hi  // hi = pmore
/home/zrz0517/study/TEE/RT-TEE/optee_os/lib/libmbedtls/mbedtls/library/bignum.c:1210 (discriminator 2)
    26bc:	9ba57c65 	umull	x5, w3, w5
    26c0:	d360fca9 	lsr	x9, x5, #32
    26c4:	0b0500e5 	add	w5, w7, w5
    26c8:	6b0500ff 	cmp	w7, w5
    26cc:	b85d0087 	ldur	w7, [x4, #-48]
    26d0:	1a899529 	cinc	w9, w9, hi  // hi = pmore
    26d4:	0b0500e5 	add	w5, w7, w5
    26d8:	b81d0085 	stur	w5, [x4, #-48]
    26dc:	6b0500ff 	cmp	w7, w5
    26e0:	b85d40c5 	ldur	w5, [x6, #-44]
    26e4:	1a899529 	cinc	w9, w9, hi  // hi = pmore
    26e8:	9ba57c65 	umull	x5, w3, w5
    26ec:	d360fca7 	lsr	x7, x5, #32
    26f0:	0b050125 	add	w5, w9, w5
    26f4:	6b05013f 	cmp	w9, w5
    26f8:	b85d4089 	ldur	w9, [x4, #-44]
    26fc:	1a8794e7 	cinc	w7, w7, hi  // hi = pmore
    2700:	0b050125 	add	w5, w9, w5
    2704:	b81d4085 	stur	w5, [x4, #-44]
    2708:	6b05013f 	cmp	w9, w5
/home/zrz0517/study/TEE/RT-TEE/optee_os/lib/libmbedtls/mbedtls/library/bignum.c:1211 (discriminator 2)
    270c:	b85d80c5 	ldur	w5, [x6, #-40]
/home/zrz0517/study/TEE/RT-TEE/optee_os/lib/libmbedtls/mbedtls/library/bignum.c:1210 (discriminator 2)
    2710:	1a8794e7 	cinc	w7, w7, hi  // hi = pmore
/home/zrz0517/study/TEE/RT-TEE/optee_os/lib/libmbedtls/mbedtls/library/bignum.c:1211 (discriminator 2)
    2714:	9ba57c65 	umull	x5, w3, w5
    2718:	d360fca9 	lsr	x9, x5, #32
    271c:	0b0500e5 	add	w5, w7, w5
    2720:	6b0500ff 	cmp	w7, w5
    2724:	b85d8087 	ldur	w7, [x4, #-40]
    2728:	1a899529 	cinc	w9, w9, hi  // hi = pmore
    272c:	0b0500e5 	add	w5, w7, w5
    2730:	b81d8085 	stur	w5, [x4, #-40]
    2734:	6b0500ff 	cmp	w7, w5
    2738:	b85dc0c5 	ldur	w5, [x6, #-36]
    273c:	1a899529 	cinc	w9, w9, hi  // hi = pmore
    2740:	9ba57c65 	umull	x5, w3, w5
    2744:	d360fca7 	lsr	x7, x5, #32
    2748:	0b050125 	add	w5, w9, w5
    274c:	6b05013f 	cmp	w9, w5
    2750:	b85dc089 	ldur	w9, [x4, #-36]
    2754:	1a8794e7 	cinc	w7, w7, hi  // hi = pmore
    2758:	0b050125 	add	w5, w9, w5
    275c:	b81dc085 	stur	w5, [x4, #-36]
    2760:	6b05013f 	cmp	w9, w5
/home/zrz0517/study/TEE/RT-TEE/optee_os/lib/libmbedtls/mbedtls/library/bignum.c:1213 (discriminator 2)
    2764:	b85e00c5 	ldur	w5, [x6, #-32]
/home/zrz0517/study/TEE/RT-TEE/optee_os/lib/libmbedtls/mbedtls/library/bignum.c:1211 (discriminator 2)
    2768:	1a8794e7 	cinc	w7, w7, hi  // hi = pmore
/home/zrz0517/study/TEE/RT-TEE/optee_os/lib/libmbedtls/mbedtls/library/bignum.c:1213 (discriminator 2)
    276c:	9ba57c65 	umull	x5, w3, w5
    2770:	d360fca9 	lsr	x9, x5, #32
    2774:	0b0500e5 	add	w5, w7, w5
    2778:	6b0500ff 	cmp	w7, w5
    277c:	b85e0087 	ldur	w7, [x4, #-32]
    2780:	1a899529 	cinc	w9, w9, hi  // hi = pmore
    2784:	0b0500e5 	add	w5, w7, w5
    2788:	b81e0085 	stur	w5, [x4, #-32]
    278c:	6b0500ff 	cmp	w7, w5
    2790:	b85e40c5 	ldur	w5, [x6, #-28]
    2794:	1a899529 	cinc	w9, w9, hi  // hi = pmore
    2798:	9ba57c65 	umull	x5, w3, w5
    279c:	d360fca7 	lsr	x7, x5, #32
    27a0:	0b050125 	add	w5, w9, w5
    27a4:	6b05013f 	cmp	w9, w5
    27a8:	b85e4089 	ldur	w9, [x4, #-28]
    27ac:	1a8794e7 	cinc	w7, w7, hi  // hi = pmore
    27b0:	0b050125 	add	w5, w9, w5
    27b4:	b81e4085 	stur	w5, [x4, #-28]
    27b8:	6b05013f 	cmp	w9, w5
/home/zrz0517/study/TEE/RT-TEE/optee_os/lib/libmbedtls/mbedtls/library/bignum.c:1214 (discriminator 2)
    27bc:	b85e80c5 	ldur	w5, [x6, #-24]
/home/zrz0517/study/TEE/RT-TEE/optee_os/lib/libmbedtls/mbedtls/library/bignum.c:1213 (discriminator 2)
    27c0:	1a8794e7 	cinc	w7, w7, hi  // hi = pmore
/home/zrz0517/study/TEE/RT-TEE/optee_os/lib/libmbedtls/mbedtls/library/bignum.c:1214 (discriminator 2)
    27c4:	9ba57c65 	umull	x5, w3, w5
    27c8:	d360fca9 	lsr	x9, x5, #32
    27cc:	0b0500e5 	add	w5, w7, w5
    27d0:	6b0500ff 	cmp	w7, w5
    27d4:	b85e8087 	ldur	w7, [x4, #-24]
    27d8:	1a899529 	cinc	w9, w9, hi  // hi = pmore
    27dc:	0b0500e5 	add	w5, w7, w5
    27e0:	b81e8085 	stur	w5, [x4, #-24]
    27e4:	6b0500ff 	cmp	w7, w5
    27e8:	b85ec0c5 	ldur	w5, [x6, #-20]
    27ec:	1a899529 	cinc	w9, w9, hi  // hi = pmore
    27f0:	9ba57c65 	umull	x5, w3, w5
    27f4:	d360fca7 	lsr	x7, x5, #32
    27f8:	0b050125 	add	w5, w9, w5
    27fc:	6b05013f 	cmp	w9, w5
    2800:	b85ec089 	ldur	w9, [x4, #-20]
    2804:	1a8794e7 	cinc	w7, w7, hi  // hi = pmore
    2808:	0b050125 	add	w5, w9, w5
    280c:	b81ec085 	stur	w5, [x4, #-20]
    2810:	6b05013f 	cmp	w9, w5
/home/zrz0517/study/TEE/RT-TEE/optee_os/lib/libmbedtls/mbedtls/library/bignum.c:1215 (discriminator 2)
    2814:	b85f00c5 	ldur	w5, [x6, #-16]
/home/zrz0517/study/TEE/RT-TEE/optee_os/lib/libmbedtls/mbedtls/library/bignum.c:1214 (discriminator 2)
    2818:	1a8794e7 	cinc	w7, w7, hi  // hi = pmore
/home/zrz0517/study/TEE/RT-TEE/optee_os/lib/libmbedtls/mbedtls/library/bignum.c:1215 (discriminator 2)
    281c:	9ba57c65 	umull	x5, w3, w5
    2820:	d360fca9 	lsr	x9, x5, #32
    2824:	0b0500e5 	add	w5, w7, w5
    2828:	6b0500ff 	cmp	w7, w5
    282c:	b85f0087 	ldur	w7, [x4, #-16]
    2830:	1a899529 	cinc	w9, w9, hi  // hi = pmore
    2834:	0b0500e5 	add	w5, w7, w5
    2838:	b81f0085 	stur	w5, [x4, #-16]
    283c:	6b0500ff 	cmp	w7, w5
    2840:	b85f40c5 	ldur	w5, [x6, #-12]
    2844:	1a899529 	cinc	w9, w9, hi  // hi = pmore
    2848:	9ba57c65 	umull	x5, w3, w5
    284c:	d360fca7 	lsr	x7, x5, #32
    2850:	0b050125 	add	w5, w9, w5
    2854:	6b05013f 	cmp	w9, w5
    2858:	b85f4089 	ldur	w9, [x4, #-12]
    285c:	1a8794e7 	cinc	w7, w7, hi  // hi = pmore
    2860:	0b050125 	add	w5, w9, w5
    2864:	b81f4085 	stur	w5, [x4, #-12]
    2868:	6b05013f 	cmp	w9, w5
/home/zrz0517/study/TEE/RT-TEE/optee_os/lib/libmbedtls/mbedtls/library/bignum.c:1216 (discriminator 2)
    286c:	b85f80c5 	ldur	w5, [x6, #-8]
/home/zrz0517/study/TEE/RT-TEE/optee_os/lib/libmbedtls/mbedtls/library/bignum.c:1215 (discriminator 2)
    2870:	1a8794e7 	cinc	w7, w7, hi  // hi = pmore
/home/zrz0517/study/TEE/RT-TEE/optee_os/lib/libmbedtls/mbedtls/library/bignum.c:1216 (discriminator 2)
    2874:	9ba57c65 	umull	x5, w3, w5
    2878:	d360fca9 	lsr	x9, x5, #32
    287c:	0b0500e5 	add	w5, w7, w5
    2880:	6b0500ff 	cmp	w7, w5
    2884:	b85f8087 	ldur	w7, [x4, #-8]
    2888:	1a899529 	cinc	w9, w9, hi  // hi = pmore
    288c:	0b0500e5 	add	w5, w7, w5
    2890:	b81f8085 	stur	w5, [x4, #-8]
    2894:	6b0500ff 	cmp	w7, w5
    2898:	b85fc0c7 	ldur	w7, [x6, #-4]
    289c:	1a899529 	cinc	w9, w9, hi  // hi = pmore
    28a0:	9ba77c67 	umull	x7, w3, w7
    28a4:	d360fce5 	lsr	x5, x7, #32
    28a8:	0b070127 	add	w7, w9, w7
    28ac:	6b07013f 	cmp	w9, w7
    28b0:	b85fc089 	ldur	w9, [x4, #-4]
    28b4:	1a8594a5 	cinc	w5, w5, hi  // hi = pmore
    28b8:	0b070127 	add	w7, w9, w7
    28bc:	b81fc087 	stur	w7, [x4, #-4]
    28c0:	6b07013f 	cmp	w9, w7
    28c4:	1a8594a5 	cinc	w5, w5, hi  // hi = pmore
    28c8:	17fffede 	b	2440 <mpi_mul_hlp+0x10>
/home/zrz0517/study/TEE/RT-TEE/optee_os/lib/libmbedtls/mbedtls/library/bignum.c:1234 (discriminator 2)
    28cc:	b86178c2 	ldr	w2, [x6, x1, lsl #2]
    28d0:	9ba27c62 	umull	x2, w3, w2
    28d4:	d360fc47 	lsr	x7, x2, #32
    28d8:	0b0200a2 	add	w2, w5, w2
    28dc:	6b0200bf 	cmp	w5, w2
    28e0:	0b020102 	add	w2, w8, w2
    28e4:	1a8794e5 	cinc	w5, w7, hi  // hi = pmore
    28e8:	6b02011f 	cmp	w8, w2
    28ec:	1a8594a5 	cinc	w5, w5, hi  // hi = pmore
    28f0:	b8217882 	str	w2, [x4, x1, lsl #2]
    28f4:	91000421 	add	x1, x1, #0x1
    28f8:	17ffff38 	b	25d8 <mpi_mul_hlp+0x1a8>
/home/zrz0517/study/TEE/RT-TEE/optee_os/lib/libmbedtls/mbedtls/library/bignum.c:1242
    28fc:	52800025 	mov	w5, #0x1                   	// #1
    2900:	17ffff3a 	b	25e8 <mpi_mul_hlp+0x1b8>

0000000000002904 <mbedtls_mpi_mod_int.part.3>:
mbedtls_mpi_mod_int():
/home/zrz0517/study/TEE/RT-TEE/optee_os/lib/libmbedtls/mbedtls/library/bignum.c:1583
    2904:	79400825 	ldrh	w5, [x1, #4]
    2908:	52800003 	mov	w3, #0x0                   	// #0
    290c:	d10004a5 	sub	x5, x5, #0x1
    2910:	b10004bf 	cmn	x5, #0x1
    2914:	54000101 	b.ne	2934 <mbedtls_mpi_mod_int.part.3+0x30>  // b.any
/home/zrz0517/study/TEE/RT-TEE/optee_os/lib/libmbedtls/mbedtls/library/bignum.c:1600
    2918:	39c00021 	ldrsb	w1, [x1]
    291c:	36f80061 	tbz	w1, #31, 2928 <mbedtls_mpi_mod_int.part.3+0x24>
    2920:	34000043 	cbz	w3, 2928 <mbedtls_mpi_mod_int.part.3+0x24>
/home/zrz0517/study/TEE/RT-TEE/optee_os/lib/libmbedtls/mbedtls/library/bignum.c:1601
    2924:	4b030043 	sub	w3, w2, w3
/home/zrz0517/study/TEE/RT-TEE/optee_os/lib/libmbedtls/mbedtls/library/bignum.c:1603
    2928:	b9000003 	str	w3, [x0]
/home/zrz0517/study/TEE/RT-TEE/optee_os/lib/libmbedtls/mbedtls/library/bignum.c:1606
    292c:	52800000 	mov	w0, #0x0                   	// #0
    2930:	d65f03c0 	ret
/home/zrz0517/study/TEE/RT-TEE/optee_os/lib/libmbedtls/mbedtls/library/bignum.c:1585
    2934:	f9400424 	ldr	x4, [x1, #8]
    2938:	b8657886 	ldr	w6, [x4, x5, lsl #2]
/home/zrz0517/study/TEE/RT-TEE/optee_os/lib/libmbedtls/mbedtls/library/bignum.c:1586
    293c:	13864063 	extr	w3, w3, w6, #16
/home/zrz0517/study/TEE/RT-TEE/optee_os/lib/libmbedtls/mbedtls/library/bignum.c:1591
    2940:	1ac20864 	udiv	w4, w3, w2
    2944:	1b028c83 	msub	w3, w4, w2, w3
    2948:	12003cc4 	and	w4, w6, #0xffff
    294c:	2a034084 	orr	w4, w4, w3, lsl #16
    2950:	1ac20883 	udiv	w3, w4, w2
    2954:	1b029063 	msub	w3, w3, w2, w4
    2958:	17ffffed 	b	290c <mbedtls_mpi_mod_int.part.3+0x8>

000000000000295c <mbedtls_mpi_init>:
mpi_init():
/home/zrz0517/study/TEE/RT-TEE/optee_os/lib/libmbedtls/mbedtls/library/bignum.c:90
    295c:	b40000a0 	cbz	x0, 2970 <mbedtls_mpi_init+0x14>
/home/zrz0517/study/TEE/RT-TEE/optee_os/lib/libmbedtls/mbedtls/library/bignum.c:93
    2960:	52800021 	mov	w1, #0x1                   	// #1
    2964:	b9000001 	str	w1, [x0]
/home/zrz0517/study/TEE/RT-TEE/optee_os/lib/libmbedtls/mbedtls/library/bignum.c:96
    2968:	7900081f 	strh	wzr, [x0, #4]
/home/zrz0517/study/TEE/RT-TEE/optee_os/lib/libmbedtls/mbedtls/library/bignum.c:97
    296c:	f900041f 	str	xzr, [x0, #8]
mbedtls_mpi_init():
/home/zrz0517/study/TEE/RT-TEE/optee_os/lib/libmbedtls/mbedtls/library/bignum.c:103
    2970:	d65f03c0 	ret

0000000000002974 <mbedtls_mpi_init_mempool>:
mbedtls_mpi_init_mempool():
/home/zrz0517/study/TEE/RT-TEE/optee_os/lib/libmbedtls/mbedtls/library/bignum.c:107
    2974:	90000042 	adrp	x2, a000 <__func__.4888+0x13>
/home/zrz0517/study/TEE/RT-TEE/optee_os/lib/libmbedtls/mbedtls/library/bignum.c:106
    2978:	aa0003e1 	mov	x1, x0
/home/zrz0517/study/TEE/RT-TEE/optee_os/lib/libmbedtls/mbedtls/library/bignum.c:107
    297c:	f946ec42 	ldr	x2, [x2, #3544]
    2980:	f9400042 	ldr	x2, [x2]
    2984:	b40000e2 	cbz	x2, 29a0 <mbedtls_mpi_init_mempool+0x2c>
mpi_init():
/home/zrz0517/study/TEE/RT-TEE/optee_os/lib/libmbedtls/mbedtls/library/bignum.c:90
    2988:	b40000a0 	cbz	x0, 299c <mbedtls_mpi_init_mempool+0x28>
/home/zrz0517/study/TEE/RT-TEE/optee_os/lib/libmbedtls/mbedtls/library/bignum.c:93
    298c:	52802020 	mov	w0, #0x101                 	// #257
    2990:	b9000020 	str	w0, [x1]
/home/zrz0517/study/TEE/RT-TEE/optee_os/lib/libmbedtls/mbedtls/library/bignum.c:96
    2994:	7900083f 	strh	wzr, [x1, #4]
/home/zrz0517/study/TEE/RT-TEE/optee_os/lib/libmbedtls/mbedtls/library/bignum.c:97
    2998:	f900043f 	str	xzr, [x1, #8]
mbedtls_mpi_init_mempool():
/home/zrz0517/study/TEE/RT-TEE/optee_os/lib/libmbedtls/mbedtls/library/bignum.c:111
    299c:	d65f03c0 	ret
/home/zrz0517/study/TEE/RT-TEE/optee_os/lib/libmbedtls/mbedtls/library/bignum.c:110
    29a0:	17ffffef 	b	295c <mbedtls_mpi_init>

00000000000029a4 <mbedtls_mpi_init_static>:
mpi_init():
/home/zrz0517/study/TEE/RT-TEE/optee_os/lib/libmbedtls/mbedtls/library/bignum.c:90
    29a4:	b40000e0 	cbz	x0, 29c0 <mbedtls_mpi_init_static+0x1c>
/home/zrz0517/study/TEE/RT-TEE/optee_os/lib/libmbedtls/mbedtls/library/bignum.c:93
    29a8:	39000002 	strb	w2, [x0]
/home/zrz0517/study/TEE/RT-TEE/optee_os/lib/libmbedtls/mbedtls/library/bignum.c:94
    29ac:	52800042 	mov	w2, #0x2                   	// #2
    29b0:	39000402 	strb	w2, [x0, #1]
/home/zrz0517/study/TEE/RT-TEE/optee_os/lib/libmbedtls/mbedtls/library/bignum.c:95
    29b4:	79000403 	strh	w3, [x0, #2]
/home/zrz0517/study/TEE/RT-TEE/optee_os/lib/libmbedtls/mbedtls/library/bignum.c:96
    29b8:	79000804 	strh	w4, [x0, #4]
/home/zrz0517/study/TEE/RT-TEE/optee_os/lib/libmbedtls/mbedtls/library/bignum.c:97
    29bc:	f9000401 	str	x1, [x0, #8]
mbedtls_mpi_init_static():
/home/zrz0517/study/TEE/RT-TEE/optee_os/lib/libmbedtls/mbedtls/library/bignum.c:117
    29c0:	d65f03c0 	ret

00000000000029c4 <mbedtls_mpi_free>:
mbedtls_mpi_free():
/home/zrz0517/study/TEE/RT-TEE/optee_os/lib/libmbedtls/mbedtls/library/bignum.c:124
    29c4:	b4000420 	cbz	x0, 2a48 <mbedtls_mpi_free+0x84>
/home/zrz0517/study/TEE/RT-TEE/optee_os/lib/libmbedtls/mbedtls/library/bignum.c:123
    29c8:	a9be7bfd 	stp	x29, x30, [sp, #-32]!
    29cc:	910003fd 	mov	x29, sp
    29d0:	f9000bf3 	str	x19, [sp, #16]
    29d4:	aa0003f3 	mov	x19, x0
/home/zrz0517/study/TEE/RT-TEE/optee_os/lib/libmbedtls/mbedtls/library/bignum.c:127
    29d8:	f9400400 	ldr	x0, [x0, #8]
    29dc:	b4000140 	cbz	x0, 2a04 <mbedtls_mpi_free+0x40>
/home/zrz0517/study/TEE/RT-TEE/optee_os/lib/libmbedtls/mbedtls/library/bignum.c:129
    29e0:	79400a61 	ldrh	w1, [x19, #4]
    29e4:	aa0003e2 	mov	x2, x0
mbedtls_mpi_zeroize():
/home/zrz0517/study/TEE/RT-TEE/optee_os/lib/libmbedtls/mbedtls/library/bignum.c:65
    29e8:	d1000421 	sub	x1, x1, #0x1
    29ec:	b100043f 	cmn	x1, #0x1
    29f0:	54000161 	b.ne	2a1c <mbedtls_mpi_free+0x58>  // b.any
mbedtls_mpi_free():
/home/zrz0517/study/TEE/RT-TEE/optee_os/lib/libmbedtls/mbedtls/library/bignum.c:130
    29f4:	39400661 	ldrb	w1, [x19, #1]
    29f8:	34000161 	cbz	w1, 2a24 <mbedtls_mpi_free+0x60>
    29fc:	7100043f 	cmp	w1, #0x1
    2a00:	54000180 	b.eq	2a30 <mbedtls_mpi_free+0x6c>  // b.none
/home/zrz0517/study/TEE/RT-TEE/optee_os/lib/libmbedtls/mbedtls/library/bignum.c:144
    2a04:	52800020 	mov	w0, #0x1                   	// #1
    2a08:	39000260 	strb	w0, [x19]
/home/zrz0517/study/TEE/RT-TEE/optee_os/lib/libmbedtls/mbedtls/library/bignum.c:145
    2a0c:	79000a7f 	strh	wzr, [x19, #4]
/home/zrz0517/study/TEE/RT-TEE/optee_os/lib/libmbedtls/mbedtls/library/bignum.c:146
    2a10:	f9400bf3 	ldr	x19, [sp, #16]
    2a14:	a8c27bfd 	ldp	x29, x30, [sp], #32
    2a18:	d65f03c0 	ret
mbedtls_mpi_zeroize():
/home/zrz0517/study/TEE/RT-TEE/optee_os/lib/libmbedtls/mbedtls/library/bignum.c:65
    2a1c:	b800445f 	str	wzr, [x2], #4
    2a20:	17fffff2 	b	29e8 <mbedtls_mpi_free+0x24>
mbedtls_mpi_free():
/home/zrz0517/study/TEE/RT-TEE/optee_os/lib/libmbedtls/mbedtls/library/bignum.c:132
    2a24:	94000f5d 	bl	6798 <free>
/home/zrz0517/study/TEE/RT-TEE/optee_os/lib/libmbedtls/mbedtls/library/bignum.c:137
    2a28:	f900067f 	str	xzr, [x19, #8]
/home/zrz0517/study/TEE/RT-TEE/optee_os/lib/libmbedtls/mbedtls/library/bignum.c:138
    2a2c:	17fffff6 	b	2a04 <mbedtls_mpi_free+0x40>
/home/zrz0517/study/TEE/RT-TEE/optee_os/lib/libmbedtls/mbedtls/library/bignum.c:136
    2a30:	90000042 	adrp	x2, a000 <__func__.4888+0x13>
    2a34:	aa0003e1 	mov	x1, x0
    2a38:	f946ec42 	ldr	x2, [x2, #3544]
    2a3c:	f9400040 	ldr	x0, [x2]
    2a40:	940015e3 	bl	81cc <mempool_free>
    2a44:	17fffff9 	b	2a28 <mbedtls_mpi_free+0x64>
    2a48:	d65f03c0 	ret

0000000000002a4c <mbedtls_mpi_grow>:
mbedtls_mpi_grow():
/home/zrz0517/study/TEE/RT-TEE/optee_os/lib/libmbedtls/mbedtls/library/bignum.c:155
    2a4c:	d284e202 	mov	x2, #0x2710                	// #10000
    2a50:	eb02003f 	cmp	x1, x2
    2a54:	54000109 	b.ls	2a74 <mbedtls_mpi_grow+0x28>  // b.plast
/home/zrz0517/study/TEE/RT-TEE/optee_os/lib/libmbedtls/mbedtls/library/bignum.c:156
    2a58:	128001e0 	mov	w0, #0xfffffff0            	// #-16
/home/zrz0517/study/TEE/RT-TEE/optee_os/lib/libmbedtls/mbedtls/library/bignum.c:196
    2a5c:	d65f03c0 	ret
/home/zrz0517/study/TEE/RT-TEE/optee_os/lib/libmbedtls/mbedtls/library/bignum.c:156
    2a60:	128001e0 	mov	w0, #0xfffffff0            	// #-16
/home/zrz0517/study/TEE/RT-TEE/optee_os/lib/libmbedtls/mbedtls/library/bignum.c:196
    2a64:	a94153f3 	ldp	x19, x20, [sp, #16]
    2a68:	f94013f5 	ldr	x21, [sp, #32]
    2a6c:	a8c37bfd 	ldp	x29, x30, [sp], #48
    2a70:	d65f03c0 	ret
/home/zrz0517/study/TEE/RT-TEE/optee_os/lib/libmbedtls/mbedtls/library/bignum.c:152
    2a74:	a9bd7bfd 	stp	x29, x30, [sp, #-48]!
    2a78:	910003fd 	mov	x29, sp
/home/zrz0517/study/TEE/RT-TEE/optee_os/lib/libmbedtls/mbedtls/library/bignum.c:158
    2a7c:	79400804 	ldrh	w4, [x0, #4]
/home/zrz0517/study/TEE/RT-TEE/optee_os/lib/libmbedtls/mbedtls/library/bignum.c:152
    2a80:	a90153f3 	stp	x19, x20, [sp, #16]
    2a84:	aa0103f4 	mov	x20, x1
/home/zrz0517/study/TEE/RT-TEE/optee_os/lib/libmbedtls/mbedtls/library/bignum.c:158
    2a88:	92403c82 	and	x2, x4, #0xffff
/home/zrz0517/study/TEE/RT-TEE/optee_os/lib/libmbedtls/mbedtls/library/bignum.c:152
    2a8c:	f90013f5 	str	x21, [sp, #32]
/home/zrz0517/study/TEE/RT-TEE/optee_os/lib/libmbedtls/mbedtls/library/bignum.c:158
    2a90:	eb01005f 	cmp	x2, x1
    2a94:	54000542 	b.cs	2b3c <mbedtls_mpi_grow+0xf0>  // b.hs, b.nlast
/home/zrz0517/study/TEE/RT-TEE/optee_os/lib/libmbedtls/mbedtls/library/bignum.c:161
    2a98:	39400403 	ldrb	w3, [x0, #1]
    2a9c:	aa0003f3 	mov	x19, x0
    2aa0:	7100047f 	cmp	w3, #0x1
    2aa4:	540002c0 	b.eq	2afc <mbedtls_mpi_grow+0xb0>  // b.none
    2aa8:	340000a3 	cbz	w3, 2abc <mbedtls_mpi_grow+0x70>
    2aac:	7100087f 	cmp	w3, #0x2
    2ab0:	54000320 	b.eq	2b14 <mbedtls_mpi_grow+0xc8>  // b.none
/home/zrz0517/study/TEE/RT-TEE/optee_os/lib/libmbedtls/mbedtls/library/bignum.c:174
    2ab4:	12800060 	mov	w0, #0xfffffffc            	// #-4
    2ab8:	17ffffeb 	b	2a64 <mbedtls_mpi_grow+0x18>
/home/zrz0517/study/TEE/RT-TEE/optee_os/lib/libmbedtls/mbedtls/library/bignum.c:163
    2abc:	d2800081 	mov	x1, #0x4                   	// #4
    2ac0:	aa1403e0 	mov	x0, x20
    2ac4:	94000f3a 	bl	67ac <calloc>
/home/zrz0517/study/TEE/RT-TEE/optee_os/lib/libmbedtls/mbedtls/library/bignum.c:166
    2ac8:	aa0003f5 	mov	x21, x0
/home/zrz0517/study/TEE/RT-TEE/optee_os/lib/libmbedtls/mbedtls/library/bignum.c:177
    2acc:	b4fffca0 	cbz	x0, 2a60 <mbedtls_mpi_grow+0x14>
/home/zrz0517/study/TEE/RT-TEE/optee_os/lib/libmbedtls/mbedtls/library/bignum.c:180
    2ad0:	f9400661 	ldr	x1, [x19, #8]
    2ad4:	b5000381 	cbnz	x1, 2b44 <mbedtls_mpi_grow+0xf8>
/home/zrz0517/study/TEE/RT-TEE/optee_os/lib/libmbedtls/mbedtls/library/bignum.c:186
    2ad8:	39400661 	ldrb	w1, [x19, #1]
    2adc:	f9400660 	ldr	x0, [x19, #8]
    2ae0:	34000461 	cbz	w1, 2b6c <mbedtls_mpi_grow+0x120>
/home/zrz0517/study/TEE/RT-TEE/optee_os/lib/libmbedtls/mbedtls/library/bignum.c:189
    2ae4:	90000043 	adrp	x3, a000 <__func__.4888+0x13>
    2ae8:	aa0003e1 	mov	x1, x0
    2aec:	f946ec63 	ldr	x3, [x3, #3544]
    2af0:	f9400060 	ldr	x0, [x3]
    2af4:	940015b6 	bl	81cc <mempool_free>
    2af8:	1400001e 	b	2b70 <mbedtls_mpi_grow+0x124>
/home/zrz0517/study/TEE/RT-TEE/optee_os/lib/libmbedtls/mbedtls/library/bignum.c:166
    2afc:	90000043 	adrp	x3, a000 <__func__.4888+0x13>
    2b00:	d2800082 	mov	x2, #0x4                   	// #4
    2b04:	f946ec63 	ldr	x3, [x3, #3544]
    2b08:	f9400060 	ldr	x0, [x3]
    2b0c:	9400159c 	bl	817c <mempool_calloc>
    2b10:	17ffffee 	b	2ac8 <mbedtls_mpi_grow+0x7c>
/home/zrz0517/study/TEE/RT-TEE/optee_os/lib/libmbedtls/mbedtls/library/bignum.c:169
    2b14:	79400400 	ldrh	w0, [x0, #2]
    2b18:	eb01001f 	cmp	x0, x1
    2b1c:	54fffa23 	b.cc	2a60 <mbedtls_mpi_grow+0x14>  // b.lo, b.ul, b.last
/home/zrz0517/study/TEE/RT-TEE/optee_os/lib/libmbedtls/mbedtls/library/bignum.c:171
    2b20:	f9400660 	ldr	x0, [x19, #8]
    2b24:	cb020022 	sub	x2, x1, x2
    2b28:	52800001 	mov	w1, #0x0                   	// #0
    2b2c:	d37ef442 	lsl	x2, x2, #2
    2b30:	8b242800 	add	x0, x0, w4, uxth #2
    2b34:	94001166 	bl	70cc <memset>
/home/zrz0517/study/TEE/RT-TEE/optee_os/lib/libmbedtls/mbedtls/library/bignum.c:193
    2b38:	79000a74 	strh	w20, [x19, #4]
/home/zrz0517/study/TEE/RT-TEE/optee_os/lib/libmbedtls/mbedtls/library/bignum.c:159
    2b3c:	52800000 	mov	w0, #0x0                   	// #0
    2b40:	17ffffc9 	b	2a64 <mbedtls_mpi_grow+0x18>
/home/zrz0517/study/TEE/RT-TEE/optee_os/lib/libmbedtls/mbedtls/library/bignum.c:181
    2b44:	79400a62 	ldrh	w2, [x19, #4]
    2b48:	d37ef442 	lsl	x2, x2, #2
    2b4c:	94001141 	bl	7050 <memcpy>
/home/zrz0517/study/TEE/RT-TEE/optee_os/lib/libmbedtls/mbedtls/library/bignum.c:182
    2b50:	79400a61 	ldrh	w1, [x19, #4]
    2b54:	f9400660 	ldr	x0, [x19, #8]
mbedtls_mpi_zeroize():
/home/zrz0517/study/TEE/RT-TEE/optee_os/lib/libmbedtls/mbedtls/library/bignum.c:65
    2b58:	d1000421 	sub	x1, x1, #0x1
    2b5c:	b100043f 	cmn	x1, #0x1
    2b60:	54fffbc0 	b.eq	2ad8 <mbedtls_mpi_grow+0x8c>  // b.none
    2b64:	b800441f 	str	wzr, [x0], #4
    2b68:	17fffffc 	b	2b58 <mbedtls_mpi_grow+0x10c>
mbedtls_mpi_grow():
/home/zrz0517/study/TEE/RT-TEE/optee_os/lib/libmbedtls/mbedtls/library/bignum.c:187
    2b6c:	94000f0b 	bl	6798 <free>
/home/zrz0517/study/TEE/RT-TEE/optee_os/lib/libmbedtls/mbedtls/library/bignum.c:191
    2b70:	f9000675 	str	x21, [x19, #8]
    2b74:	17fffff1 	b	2b38 <mbedtls_mpi_grow+0xec>

0000000000002b78 <mbedtls_mpi_shrink>:
mbedtls_mpi_shrink():
/home/zrz0517/study/TEE/RT-TEE/optee_os/lib/libmbedtls/mbedtls/library/bignum.c:208
    2b78:	79400802 	ldrh	w2, [x0, #4]
    2b7c:	92403c44 	and	x4, x2, #0xffff
    2b80:	eb01009f 	cmp	x4, x1
    2b84:	54000048 	b.hi	2b8c <mbedtls_mpi_shrink+0x14>  // b.pmore
/home/zrz0517/study/TEE/RT-TEE/optee_os/lib/libmbedtls/mbedtls/library/bignum.c:209
    2b88:	17ffffb1 	b	2a4c <mbedtls_mpi_grow>
/home/zrz0517/study/TEE/RT-TEE/optee_os/lib/libmbedtls/mbedtls/library/bignum.c:203
    2b8c:	a9bd7bfd 	stp	x29, x30, [sp, #-48]!
/home/zrz0517/study/TEE/RT-TEE/optee_os/lib/libmbedtls/mbedtls/library/bignum.c:211
    2b90:	51000442 	sub	w2, w2, #0x1
    2b94:	aa0103e3 	mov	x3, x1
/home/zrz0517/study/TEE/RT-TEE/optee_os/lib/libmbedtls/mbedtls/library/bignum.c:203
    2b98:	910003fd 	mov	x29, sp
/home/zrz0517/study/TEE/RT-TEE/optee_os/lib/libmbedtls/mbedtls/library/bignum.c:211
    2b9c:	93407c42 	sxtw	x2, w2
/home/zrz0517/study/TEE/RT-TEE/optee_os/lib/libmbedtls/mbedtls/library/bignum.c:203
    2ba0:	a90153f3 	stp	x19, x20, [sp, #16]
    2ba4:	aa0003f3 	mov	x19, x0
    2ba8:	f90013f5 	str	x21, [sp, #32]
/home/zrz0517/study/TEE/RT-TEE/optee_os/lib/libmbedtls/mbedtls/library/bignum.c:211 (discriminator 1)
    2bac:	b5000202 	cbnz	x2, 2bec <mbedtls_mpi_shrink+0x74>
/home/zrz0517/study/TEE/RT-TEE/optee_os/lib/libmbedtls/mbedtls/library/bignum.c:214
    2bb0:	91000442 	add	x2, x2, #0x1
/home/zrz0517/study/TEE/RT-TEE/optee_os/lib/libmbedtls/mbedtls/library/bignum.c:219
    2bb4:	39400661 	ldrb	w1, [x19, #1]
    2bb8:	eb02007f 	cmp	x3, x2
    2bbc:	aa0303e0 	mov	x0, x3
/home/zrz0517/study/TEE/RT-TEE/optee_os/lib/libmbedtls/mbedtls/library/bignum.c:216
    2bc0:	9a822074 	csel	x20, x3, x2, cs  // cs = hs, nlast
/home/zrz0517/study/TEE/RT-TEE/optee_os/lib/libmbedtls/mbedtls/library/bignum.c:219
    2bc4:	7100043f 	cmp	w1, #0x1
    2bc8:	54000400 	b.eq	2c48 <mbedtls_mpi_shrink+0xd0>  // b.none
    2bcc:	340001a1 	cbz	w1, 2c00 <mbedtls_mpi_shrink+0x88>
    2bd0:	7100083f 	cmp	w1, #0x2
    2bd4:	54000480 	b.eq	2c64 <mbedtls_mpi_shrink+0xec>  // b.none
/home/zrz0517/study/TEE/RT-TEE/optee_os/lib/libmbedtls/mbedtls/library/bignum.c:233
    2bd8:	12800060 	mov	w0, #0xfffffffc            	// #-4
/home/zrz0517/study/TEE/RT-TEE/optee_os/lib/libmbedtls/mbedtls/library/bignum.c:252
    2bdc:	a94153f3 	ldp	x19, x20, [sp, #16]
    2be0:	f94013f5 	ldr	x21, [sp, #32]
    2be4:	a8c37bfd 	ldp	x29, x30, [sp], #48
    2be8:	d65f03c0 	ret
/home/zrz0517/study/TEE/RT-TEE/optee_os/lib/libmbedtls/mbedtls/library/bignum.c:212
    2bec:	f9400660 	ldr	x0, [x19, #8]
    2bf0:	b8627800 	ldr	w0, [x0, x2, lsl #2]
    2bf4:	35fffde0 	cbnz	w0, 2bb0 <mbedtls_mpi_shrink+0x38>
/home/zrz0517/study/TEE/RT-TEE/optee_os/lib/libmbedtls/mbedtls/library/bignum.c:211 (discriminator 2)
    2bf8:	d1000442 	sub	x2, x2, #0x1
    2bfc:	17ffffec 	b	2bac <mbedtls_mpi_shrink+0x34>
/home/zrz0517/study/TEE/RT-TEE/optee_os/lib/libmbedtls/mbedtls/library/bignum.c:221
    2c00:	d2800081 	mov	x1, #0x4                   	// #4
    2c04:	94000eea 	bl	67ac <calloc>
/home/zrz0517/study/TEE/RT-TEE/optee_os/lib/libmbedtls/mbedtls/library/bignum.c:237
    2c08:	f9400661 	ldr	x1, [x19, #8]
/home/zrz0517/study/TEE/RT-TEE/optee_os/lib/libmbedtls/mbedtls/library/bignum.c:224
    2c0c:	aa0003f5 	mov	x21, x0
/home/zrz0517/study/TEE/RT-TEE/optee_os/lib/libmbedtls/mbedtls/library/bignum.c:237
    2c10:	b4000181 	cbz	x1, 2c40 <mbedtls_mpi_shrink+0xc8>
/home/zrz0517/study/TEE/RT-TEE/optee_os/lib/libmbedtls/mbedtls/library/bignum.c:239
    2c14:	d37ef682 	lsl	x2, x20, #2
    2c18:	9400110e 	bl	7050 <memcpy>
/home/zrz0517/study/TEE/RT-TEE/optee_os/lib/libmbedtls/mbedtls/library/bignum.c:240
    2c1c:	f9400660 	ldr	x0, [x19, #8]
    2c20:	79400a61 	ldrh	w1, [x19, #4]
mbedtls_mpi_zeroize():
/home/zrz0517/study/TEE/RT-TEE/optee_os/lib/libmbedtls/mbedtls/library/bignum.c:65
    2c24:	aa0003e2 	mov	x2, x0
    2c28:	d1000421 	sub	x1, x1, #0x1
    2c2c:	b100043f 	cmn	x1, #0x1
    2c30:	54000361 	b.ne	2c9c <mbedtls_mpi_shrink+0x124>  // b.any
mbedtls_mpi_shrink():
/home/zrz0517/study/TEE/RT-TEE/optee_os/lib/libmbedtls/mbedtls/library/bignum.c:241
    2c34:	39400661 	ldrb	w1, [x19, #1]
    2c38:	35000361 	cbnz	w1, 2ca4 <mbedtls_mpi_shrink+0x12c>
/home/zrz0517/study/TEE/RT-TEE/optee_os/lib/libmbedtls/mbedtls/library/bignum.c:242
    2c3c:	94000ed7 	bl	6798 <free>
/home/zrz0517/study/TEE/RT-TEE/optee_os/lib/libmbedtls/mbedtls/library/bignum.c:247
    2c40:	f9000675 	str	x21, [x19, #8]
    2c44:	14000011 	b	2c88 <mbedtls_mpi_shrink+0x110>
/home/zrz0517/study/TEE/RT-TEE/optee_os/lib/libmbedtls/mbedtls/library/bignum.c:224
    2c48:	90000043 	adrp	x3, a000 <__func__.4888+0x13>
    2c4c:	aa0003e1 	mov	x1, x0
    2c50:	d2800082 	mov	x2, #0x4                   	// #4
    2c54:	f946ec63 	ldr	x3, [x3, #3544]
    2c58:	f9400060 	ldr	x0, [x3]
    2c5c:	94001548 	bl	817c <mempool_calloc>
    2c60:	17ffffea 	b	2c08 <mbedtls_mpi_shrink+0x90>
/home/zrz0517/study/TEE/RT-TEE/optee_os/lib/libmbedtls/mbedtls/library/bignum.c:227
    2c64:	79400661 	ldrh	w1, [x19, #2]
    2c68:	eb03003f 	cmp	x1, x3
    2c6c:	54000283 	b.cc	2cbc <mbedtls_mpi_shrink+0x144>  // b.lo, b.ul, b.last
/home/zrz0517/study/TEE/RT-TEE/optee_os/lib/libmbedtls/mbedtls/library/bignum.c:229
    2c70:	f9400660 	ldr	x0, [x19, #8]
    2c74:	cb140081 	sub	x1, x4, x20
    2c78:	8b140800 	add	x0, x0, x20, lsl #2
mbedtls_mpi_zeroize():
/home/zrz0517/study/TEE/RT-TEE/optee_os/lib/libmbedtls/mbedtls/library/bignum.c:65
    2c7c:	d1000421 	sub	x1, x1, #0x1
    2c80:	b100043f 	cmn	x1, #0x1
    2c84:	54000081 	b.ne	2c94 <mbedtls_mpi_shrink+0x11c>  // b.any
mbedtls_mpi_shrink():
/home/zrz0517/study/TEE/RT-TEE/optee_os/lib/libmbedtls/mbedtls/library/bignum.c:251
    2c88:	52800000 	mov	w0, #0x0                   	// #0
/home/zrz0517/study/TEE/RT-TEE/optee_os/lib/libmbedtls/mbedtls/library/bignum.c:249
    2c8c:	79000a74 	strh	w20, [x19, #4]
/home/zrz0517/study/TEE/RT-TEE/optee_os/lib/libmbedtls/mbedtls/library/bignum.c:251
    2c90:	17ffffd3 	b	2bdc <mbedtls_mpi_shrink+0x64>
mbedtls_mpi_zeroize():
/home/zrz0517/study/TEE/RT-TEE/optee_os/lib/libmbedtls/mbedtls/library/bignum.c:65
    2c94:	b800441f 	str	wzr, [x0], #4
    2c98:	17fffff9 	b	2c7c <mbedtls_mpi_shrink+0x104>
    2c9c:	b800445f 	str	wzr, [x2], #4
    2ca0:	17ffffe2 	b	2c28 <mbedtls_mpi_shrink+0xb0>
mbedtls_mpi_shrink():
/home/zrz0517/study/TEE/RT-TEE/optee_os/lib/libmbedtls/mbedtls/library/bignum.c:244
    2ca4:	90000043 	adrp	x3, a000 <__func__.4888+0x13>
    2ca8:	aa0003e1 	mov	x1, x0
    2cac:	f946ec63 	ldr	x3, [x3, #3544]
    2cb0:	f9400060 	ldr	x0, [x3]
    2cb4:	94001546 	bl	81cc <mempool_free>
    2cb8:	17ffffe2 	b	2c40 <mbedtls_mpi_shrink+0xc8>
/home/zrz0517/study/TEE/RT-TEE/optee_os/lib/libmbedtls/mbedtls/library/bignum.c:228
    2cbc:	128001e0 	mov	w0, #0xfffffff0            	// #-16
    2cc0:	17ffffc7 	b	2bdc <mbedtls_mpi_shrink+0x64>

0000000000002cc4 <mbedtls_mpi_copy>:
mbedtls_mpi_copy():
/home/zrz0517/study/TEE/RT-TEE/optee_os/lib/libmbedtls/mbedtls/library/bignum.c:258
    2cc4:	a9bd7bfd 	stp	x29, x30, [sp, #-48]!
/home/zrz0517/study/TEE/RT-TEE/optee_os/lib/libmbedtls/mbedtls/library/bignum.c:262
    2cc8:	eb01001f 	cmp	x0, x1
/home/zrz0517/study/TEE/RT-TEE/optee_os/lib/libmbedtls/mbedtls/library/bignum.c:258
    2ccc:	910003fd 	mov	x29, sp
    2cd0:	a90153f3 	stp	x19, x20, [sp, #16]
    2cd4:	a9025bf5 	stp	x21, x22, [sp, #32]
/home/zrz0517/study/TEE/RT-TEE/optee_os/lib/libmbedtls/mbedtls/library/bignum.c:262
    2cd8:	540000a0 	b.eq	2cec <mbedtls_mpi_copy+0x28>  // b.none
    2cdc:	aa0103f5 	mov	x21, x1
/home/zrz0517/study/TEE/RT-TEE/optee_os/lib/libmbedtls/mbedtls/library/bignum.c:265
    2ce0:	f9400421 	ldr	x1, [x1, #8]
    2ce4:	b5000081 	cbnz	x1, 2cf4 <mbedtls_mpi_copy+0x30>
/home/zrz0517/study/TEE/RT-TEE/optee_os/lib/libmbedtls/mbedtls/library/bignum.c:267
    2ce8:	97ffff37 	bl	29c4 <mbedtls_mpi_free>
/home/zrz0517/study/TEE/RT-TEE/optee_os/lib/libmbedtls/mbedtls/library/bignum.c:263
    2cec:	52800016 	mov	w22, #0x0                   	// #0
    2cf0:	14000017 	b	2d4c <mbedtls_mpi_copy+0x88>
/home/zrz0517/study/TEE/RT-TEE/optee_os/lib/libmbedtls/mbedtls/library/bignum.c:271
    2cf4:	79400aa2 	ldrh	w2, [x21, #4]
    2cf8:	aa0003f4 	mov	x20, x0
    2cfc:	51000442 	sub	w2, w2, #0x1
    2d00:	93407c42 	sxtw	x2, w2
/home/zrz0517/study/TEE/RT-TEE/optee_os/lib/libmbedtls/mbedtls/library/bignum.c:271 (discriminator 1)
    2d04:	b50002e2 	cbnz	x2, 2d60 <mbedtls_mpi_copy+0x9c>
/home/zrz0517/study/TEE/RT-TEE/optee_os/lib/libmbedtls/mbedtls/library/bignum.c:276
    2d08:	39c002a0 	ldrsb	w0, [x21]
/home/zrz0517/study/TEE/RT-TEE/optee_os/lib/libmbedtls/mbedtls/library/bignum.c:274
    2d0c:	91000453 	add	x19, x2, #0x1
/home/zrz0517/study/TEE/RT-TEE/optee_os/lib/libmbedtls/mbedtls/library/bignum.c:276
    2d10:	39000280 	strb	w0, [x20]
/home/zrz0517/study/TEE/RT-TEE/optee_os/lib/libmbedtls/mbedtls/library/bignum.c:278
    2d14:	aa1303e1 	mov	x1, x19
    2d18:	aa1403e0 	mov	x0, x20
    2d1c:	97ffff4c 	bl	2a4c <mbedtls_mpi_grow>
    2d20:	2a0003f6 	mov	w22, w0
    2d24:	35000140 	cbnz	w0, 2d4c <mbedtls_mpi_copy+0x88>
/home/zrz0517/study/TEE/RT-TEE/optee_os/lib/libmbedtls/mbedtls/library/bignum.c:280
    2d28:	f9400680 	ldr	x0, [x20, #8]
    2d2c:	52800001 	mov	w1, #0x0                   	// #0
    2d30:	79400a82 	ldrh	w2, [x20, #4]
    2d34:	d37ef442 	lsl	x2, x2, #2
    2d38:	940010e5 	bl	70cc <memset>
/home/zrz0517/study/TEE/RT-TEE/optee_os/lib/libmbedtls/mbedtls/library/bignum.c:281
    2d3c:	f9400680 	ldr	x0, [x20, #8]
    2d40:	d37ef662 	lsl	x2, x19, #2
    2d44:	f94006a1 	ldr	x1, [x21, #8]
    2d48:	940010c2 	bl	7050 <memcpy>
/home/zrz0517/study/TEE/RT-TEE/optee_os/lib/libmbedtls/mbedtls/library/bignum.c:286
    2d4c:	2a1603e0 	mov	w0, w22
    2d50:	a94153f3 	ldp	x19, x20, [sp, #16]
    2d54:	a9425bf5 	ldp	x21, x22, [sp, #32]
    2d58:	a8c37bfd 	ldp	x29, x30, [sp], #48
    2d5c:	d65f03c0 	ret
/home/zrz0517/study/TEE/RT-TEE/optee_os/lib/libmbedtls/mbedtls/library/bignum.c:272
    2d60:	b8627820 	ldr	w0, [x1, x2, lsl #2]
    2d64:	35fffd20 	cbnz	w0, 2d08 <mbedtls_mpi_copy+0x44>
/home/zrz0517/study/TEE/RT-TEE/optee_os/lib/libmbedtls/mbedtls/library/bignum.c:271 (discriminator 2)
    2d68:	d1000442 	sub	x2, x2, #0x1
    2d6c:	17ffffe6 	b	2d04 <mbedtls_mpi_copy+0x40>

0000000000002d70 <mbedtls_mpi_swap>:
mbedtls_mpi_swap():
/home/zrz0517/study/TEE/RT-TEE/optee_os/lib/libmbedtls/mbedtls/library/bignum.c:292
    2d70:	a9bc7bfd 	stp	x29, x30, [sp, #-64]!
    2d74:	910003fd 	mov	x29, sp
    2d78:	a90153f3 	stp	x19, x20, [sp, #16]
/home/zrz0517/study/TEE/RT-TEE/optee_os/lib/libmbedtls/mbedtls/library/bignum.c:295
    2d7c:	9100c3f3 	add	x19, sp, #0x30
    2d80:	d2800214 	mov	x20, #0x10                  	// #16
    2d84:	aa1403e2 	mov	x2, x20
/home/zrz0517/study/TEE/RT-TEE/optee_os/lib/libmbedtls/mbedtls/library/bignum.c:292
    2d88:	a9025bf5 	stp	x21, x22, [sp, #32]
    2d8c:	aa0103f5 	mov	x21, x1
    2d90:	aa0003f6 	mov	x22, x0
/home/zrz0517/study/TEE/RT-TEE/optee_os/lib/libmbedtls/mbedtls/library/bignum.c:295
    2d94:	aa0003e1 	mov	x1, x0
    2d98:	aa1303e0 	mov	x0, x19
    2d9c:	940010ad 	bl	7050 <memcpy>
/home/zrz0517/study/TEE/RT-TEE/optee_os/lib/libmbedtls/mbedtls/library/bignum.c:296
    2da0:	aa1403e2 	mov	x2, x20
    2da4:	aa1503e1 	mov	x1, x21
    2da8:	aa1603e0 	mov	x0, x22
    2dac:	940010a9 	bl	7050 <memcpy>
/home/zrz0517/study/TEE/RT-TEE/optee_os/lib/libmbedtls/mbedtls/library/bignum.c:297
    2db0:	aa1403e2 	mov	x2, x20
    2db4:	aa1303e1 	mov	x1, x19
    2db8:	aa1503e0 	mov	x0, x21
    2dbc:	940010a5 	bl	7050 <memcpy>
/home/zrz0517/study/TEE/RT-TEE/optee_os/lib/libmbedtls/mbedtls/library/bignum.c:298
    2dc0:	a94153f3 	ldp	x19, x20, [sp, #16]
    2dc4:	a9425bf5 	ldp	x21, x22, [sp, #32]
    2dc8:	a8c47bfd 	ldp	x29, x30, [sp], #64
    2dcc:	d65f03c0 	ret

0000000000002dd0 <mbedtls_mpi_safe_cond_assign>:
mbedtls_mpi_safe_cond_assign():
/home/zrz0517/study/TEE/RT-TEE/optee_os/lib/libmbedtls/mbedtls/library/bignum.c:306
    2dd0:	a9bd7bfd 	stp	x29, x30, [sp, #-48]!
    2dd4:	910003fd 	mov	x29, sp
    2dd8:	f90013f5 	str	x21, [sp, #32]
    2ddc:	aa0103f5 	mov	x21, x1
/home/zrz0517/study/TEE/RT-TEE/optee_os/lib/libmbedtls/mbedtls/library/bignum.c:313
    2de0:	79400821 	ldrh	w1, [x1, #4]
/home/zrz0517/study/TEE/RT-TEE/optee_os/lib/libmbedtls/mbedtls/library/bignum.c:306
    2de4:	a90153f3 	stp	x19, x20, [sp, #16]
    2de8:	aa0003f4 	mov	x20, x0
    2dec:	12001c53 	and	w19, w2, #0xff
/home/zrz0517/study/TEE/RT-TEE/optee_os/lib/libmbedtls/mbedtls/library/bignum.c:313
    2df0:	97ffff17 	bl	2a4c <mbedtls_mpi_grow>
    2df4:	35000240 	cbnz	w0, 2e3c <mbedtls_mpi_safe_cond_assign+0x6c>
/home/zrz0517/study/TEE/RT-TEE/optee_os/lib/libmbedtls/mbedtls/library/bignum.c:311
    2df8:	4b1303e2 	neg	w2, w19
/home/zrz0517/study/TEE/RT-TEE/optee_os/lib/libmbedtls/mbedtls/library/bignum.c:315
    2dfc:	394002a4 	ldrb	w4, [x21]
/home/zrz0517/study/TEE/RT-TEE/optee_os/lib/libmbedtls/mbedtls/library/bignum.c:311
    2e00:	2a020262 	orr	w2, w19, w2
/home/zrz0517/study/TEE/RT-TEE/optee_os/lib/libmbedtls/mbedtls/library/bignum.c:315
    2e04:	39400281 	ldrb	w1, [x20]
    2e08:	52800023 	mov	w3, #0x1                   	// #1
/home/zrz0517/study/TEE/RT-TEE/optee_os/lib/libmbedtls/mbedtls/library/bignum.c:311
    2e0c:	d3471c42 	ubfx	x2, x2, #7, #1
/home/zrz0517/study/TEE/RT-TEE/optee_os/lib/libmbedtls/mbedtls/library/bignum.c:315
    2e10:	4b020063 	sub	w3, w3, w2
    2e14:	1b047c44 	mul	w4, w2, w4
    2e18:	1b011061 	madd	w1, w3, w1, w4
    2e1c:	39000281 	strb	w1, [x20]
/home/zrz0517/study/TEE/RT-TEE/optee_os/lib/libmbedtls/mbedtls/library/bignum.c:317
    2e20:	d2800004 	mov	x4, #0x0                   	// #0
    2e24:	79400aa1 	ldrh	w1, [x21, #4]
/home/zrz0517/study/TEE/RT-TEE/optee_os/lib/libmbedtls/mbedtls/library/bignum.c:317 (discriminator 1)
    2e28:	eb04003f 	cmp	x1, x4
    2e2c:	54000108 	b.hi	2e4c <mbedtls_mpi_safe_cond_assign+0x7c>  // b.pmore
/home/zrz0517/study/TEE/RT-TEE/optee_os/lib/libmbedtls/mbedtls/library/bignum.c:320
    2e30:	79400a86 	ldrh	w6, [x20, #4]
/home/zrz0517/study/TEE/RT-TEE/optee_os/lib/libmbedtls/mbedtls/library/bignum.c:320 (discriminator 1)
    2e34:	eb0100df 	cmp	x6, x1
    2e38:	540001e8 	b.hi	2e74 <mbedtls_mpi_safe_cond_assign+0xa4>  // b.pmore
/home/zrz0517/study/TEE/RT-TEE/optee_os/lib/libmbedtls/mbedtls/library/bignum.c:325
    2e3c:	a94153f3 	ldp	x19, x20, [sp, #16]
    2e40:	f94013f5 	ldr	x21, [sp, #32]
    2e44:	a8c37bfd 	ldp	x29, x30, [sp], #48
    2e48:	d65f03c0 	ret
/home/zrz0517/study/TEE/RT-TEE/optee_os/lib/libmbedtls/mbedtls/library/bignum.c:318 (discriminator 3)
    2e4c:	f9400688 	ldr	x8, [x20, #8]
    2e50:	d37ef485 	lsl	x5, x4, #2
    2e54:	f94006a6 	ldr	x6, [x21, #8]
/home/zrz0517/study/TEE/RT-TEE/optee_os/lib/libmbedtls/mbedtls/library/bignum.c:317 (discriminator 3)
    2e58:	91000484 	add	x4, x4, #0x1
/home/zrz0517/study/TEE/RT-TEE/optee_os/lib/libmbedtls/mbedtls/library/bignum.c:318 (discriminator 3)
    2e5c:	b8656907 	ldr	w7, [x8, x5]
    2e60:	b86568c6 	ldr	w6, [x6, x5]
    2e64:	1b077c67 	mul	w7, w3, w7
    2e68:	1b061c46 	madd	w6, w2, w6, w7
    2e6c:	b8256906 	str	w6, [x8, x5]
    2e70:	17ffffee 	b	2e28 <mbedtls_mpi_safe_cond_assign+0x58>
/home/zrz0517/study/TEE/RT-TEE/optee_os/lib/libmbedtls/mbedtls/library/bignum.c:321 (discriminator 2)
    2e74:	f9400685 	ldr	x5, [x20, #8]
    2e78:	d37ef424 	lsl	x4, x1, #2
/home/zrz0517/study/TEE/RT-TEE/optee_os/lib/libmbedtls/mbedtls/library/bignum.c:320 (discriminator 2)
    2e7c:	91000421 	add	x1, x1, #0x1
/home/zrz0517/study/TEE/RT-TEE/optee_os/lib/libmbedtls/mbedtls/library/bignum.c:321 (discriminator 2)
    2e80:	b86468a2 	ldr	w2, [x5, x4]
    2e84:	1b037c42 	mul	w2, w2, w3
    2e88:	b82468a2 	str	w2, [x5, x4]
    2e8c:	17ffffea 	b	2e34 <mbedtls_mpi_safe_cond_assign+0x64>

0000000000002e90 <mbedtls_mpi_safe_cond_swap>:
mbedtls_mpi_safe_cond_swap():
/home/zrz0517/study/TEE/RT-TEE/optee_os/lib/libmbedtls/mbedtls/library/bignum.c:339
    2e90:	eb01001f 	cmp	x0, x1
    2e94:	54000061 	b.ne	2ea0 <mbedtls_mpi_safe_cond_swap+0x10>  // b.any
/home/zrz0517/study/TEE/RT-TEE/optee_os/lib/libmbedtls/mbedtls/library/bignum.c:340
    2e98:	52800000 	mov	w0, #0x0                   	// #0
/home/zrz0517/study/TEE/RT-TEE/optee_os/lib/libmbedtls/mbedtls/library/bignum.c:362
    2e9c:	d65f03c0 	ret
/home/zrz0517/study/TEE/RT-TEE/optee_os/lib/libmbedtls/mbedtls/library/bignum.c:334
    2ea0:	a9bd7bfd 	stp	x29, x30, [sp, #-48]!
    2ea4:	910003fd 	mov	x29, sp
    2ea8:	a90153f3 	stp	x19, x20, [sp, #16]
    2eac:	aa0103f4 	mov	x20, x1
/home/zrz0517/study/TEE/RT-TEE/optee_os/lib/libmbedtls/mbedtls/library/bignum.c:345
    2eb0:	79400821 	ldrh	w1, [x1, #4]
    2eb4:	12001c53 	and	w19, w2, #0xff
/home/zrz0517/study/TEE/RT-TEE/optee_os/lib/libmbedtls/mbedtls/library/bignum.c:334
    2eb8:	f90013f5 	str	x21, [sp, #32]
    2ebc:	aa0003f5 	mov	x21, x0
/home/zrz0517/study/TEE/RT-TEE/optee_os/lib/libmbedtls/mbedtls/library/bignum.c:345
    2ec0:	97fffee3 	bl	2a4c <mbedtls_mpi_grow>
    2ec4:	35000320 	cbnz	w0, 2f28 <mbedtls_mpi_safe_cond_swap+0x98>
/home/zrz0517/study/TEE/RT-TEE/optee_os/lib/libmbedtls/mbedtls/library/bignum.c:346
    2ec8:	79400aa1 	ldrh	w1, [x21, #4]
    2ecc:	aa1403e0 	mov	x0, x20
    2ed0:	97fffedf 	bl	2a4c <mbedtls_mpi_grow>
    2ed4:	350002a0 	cbnz	w0, 2f28 <mbedtls_mpi_safe_cond_swap+0x98>
/home/zrz0517/study/TEE/RT-TEE/optee_os/lib/libmbedtls/mbedtls/library/bignum.c:343
    2ed8:	4b1303e2 	neg	w2, w19
/home/zrz0517/study/TEE/RT-TEE/optee_os/lib/libmbedtls/mbedtls/library/bignum.c:349
    2edc:	394002a3 	ldrb	w3, [x21]
/home/zrz0517/study/TEE/RT-TEE/optee_os/lib/libmbedtls/mbedtls/library/bignum.c:343
    2ee0:	2a020262 	orr	w2, w19, w2
/home/zrz0517/study/TEE/RT-TEE/optee_os/lib/libmbedtls/mbedtls/library/bignum.c:349
    2ee4:	52800020 	mov	w0, #0x1                   	// #1
    2ee8:	39400284 	ldrb	w4, [x20]
/home/zrz0517/study/TEE/RT-TEE/optee_os/lib/libmbedtls/mbedtls/library/bignum.c:343
    2eec:	d3471c42 	ubfx	x2, x2, #7, #1
/home/zrz0517/study/TEE/RT-TEE/optee_os/lib/libmbedtls/mbedtls/library/bignum.c:349
    2ef0:	4b020000 	sub	w0, w0, w2
    2ef4:	12001c01 	and	w1, w0, #0xff
    2ef8:	1b017c65 	mul	w5, w3, w1
    2efc:	1b041444 	madd	w4, w2, w4, w5
    2f00:	390002a4 	strb	w4, [x21]
/home/zrz0517/study/TEE/RT-TEE/optee_os/lib/libmbedtls/mbedtls/library/bignum.c:350
    2f04:	1b027c63 	mul	w3, w3, w2
    2f08:	39400284 	ldrb	w4, [x20]
    2f0c:	1b040c21 	madd	w1, w1, w4, w3
/home/zrz0517/study/TEE/RT-TEE/optee_os/lib/libmbedtls/mbedtls/library/bignum.c:353
    2f10:	d2800003 	mov	x3, #0x0                   	// #0
/home/zrz0517/study/TEE/RT-TEE/optee_os/lib/libmbedtls/mbedtls/library/bignum.c:350
    2f14:	39000281 	strb	w1, [x20]
/home/zrz0517/study/TEE/RT-TEE/optee_os/lib/libmbedtls/mbedtls/library/bignum.c:353
    2f18:	79400aa8 	ldrh	w8, [x21, #4]
/home/zrz0517/study/TEE/RT-TEE/optee_os/lib/libmbedtls/mbedtls/library/bignum.c:353 (discriminator 1)
    2f1c:	eb03011f 	cmp	x8, x3
    2f20:	540000c8 	b.hi	2f38 <mbedtls_mpi_safe_cond_swap+0xa8>  // b.pmore
/home/zrz0517/study/TEE/RT-TEE/optee_os/lib/libmbedtls/mbedtls/library/bignum.c:340
    2f24:	52800000 	mov	w0, #0x0                   	// #0
/home/zrz0517/study/TEE/RT-TEE/optee_os/lib/libmbedtls/mbedtls/library/bignum.c:362
    2f28:	a94153f3 	ldp	x19, x20, [sp, #16]
    2f2c:	f94013f5 	ldr	x21, [sp, #32]
    2f30:	a8c37bfd 	ldp	x29, x30, [sp], #48
    2f34:	d65f03c0 	ret
/home/zrz0517/study/TEE/RT-TEE/optee_os/lib/libmbedtls/mbedtls/library/bignum.c:355 (discriminator 3)
    2f38:	f94006a7 	ldr	x7, [x21, #8]
    2f3c:	d37ef461 	lsl	x1, x3, #2
/home/zrz0517/study/TEE/RT-TEE/optee_os/lib/libmbedtls/mbedtls/library/bignum.c:356 (discriminator 3)
    2f40:	f9400685 	ldr	x5, [x20, #8]
/home/zrz0517/study/TEE/RT-TEE/optee_os/lib/libmbedtls/mbedtls/library/bignum.c:353 (discriminator 3)
    2f44:	91000463 	add	x3, x3, #0x1
/home/zrz0517/study/TEE/RT-TEE/optee_os/lib/libmbedtls/mbedtls/library/bignum.c:355 (discriminator 3)
    2f48:	b86168e4 	ldr	w4, [x7, x1]
/home/zrz0517/study/TEE/RT-TEE/optee_os/lib/libmbedtls/mbedtls/library/bignum.c:356 (discriminator 3)
    2f4c:	b86168a6 	ldr	w6, [x5, x1]
    2f50:	1b047c09 	mul	w9, w0, w4
/home/zrz0517/study/TEE/RT-TEE/optee_os/lib/libmbedtls/mbedtls/library/bignum.c:357 (discriminator 3)
    2f54:	1b047c44 	mul	w4, w2, w4
/home/zrz0517/study/TEE/RT-TEE/optee_os/lib/libmbedtls/mbedtls/library/bignum.c:356 (discriminator 3)
    2f58:	1b062446 	madd	w6, w2, w6, w9
    2f5c:	b82168e6 	str	w6, [x7, x1]
/home/zrz0517/study/TEE/RT-TEE/optee_os/lib/libmbedtls/mbedtls/library/bignum.c:357 (discriminator 3)
    2f60:	b86168a6 	ldr	w6, [x5, x1]
    2f64:	1b061004 	madd	w4, w0, w6, w4
    2f68:	b82168a4 	str	w4, [x5, x1]
    2f6c:	17ffffec 	b	2f1c <mbedtls_mpi_safe_cond_swap+0x8c>

0000000000002f70 <mbedtls_mpi_lset>:
mbedtls_mpi_lset():
/home/zrz0517/study/TEE/RT-TEE/optee_os/lib/libmbedtls/mbedtls/library/bignum.c:368
    2f70:	a9bd7bfd 	stp	x29, x30, [sp, #-48]!
    2f74:	910003fd 	mov	x29, sp
    2f78:	a90153f3 	stp	x19, x20, [sp, #16]
    2f7c:	aa0003f3 	mov	x19, x0
    2f80:	2a0103f4 	mov	w20, w1
/home/zrz0517/study/TEE/RT-TEE/optee_os/lib/libmbedtls/mbedtls/library/bignum.c:371
    2f84:	d2800021 	mov	x1, #0x1                   	// #1
/home/zrz0517/study/TEE/RT-TEE/optee_os/lib/libmbedtls/mbedtls/library/bignum.c:368
    2f88:	f90013f5 	str	x21, [sp, #32]
/home/zrz0517/study/TEE/RT-TEE/optee_os/lib/libmbedtls/mbedtls/library/bignum.c:371
    2f8c:	97fffeb0 	bl	2a4c <mbedtls_mpi_grow>
    2f90:	2a0003f5 	mov	w21, w0
    2f94:	350001a0 	cbnz	w0, 2fc8 <mbedtls_mpi_lset+0x58>
/home/zrz0517/study/TEE/RT-TEE/optee_os/lib/libmbedtls/mbedtls/library/bignum.c:372
    2f98:	f9400660 	ldr	x0, [x19, #8]
    2f9c:	52800001 	mov	w1, #0x0                   	// #0
    2fa0:	79400a62 	ldrh	w2, [x19, #4]
    2fa4:	d37ef442 	lsl	x2, x2, #2
    2fa8:	94001049 	bl	70cc <memset>
/home/zrz0517/study/TEE/RT-TEE/optee_os/lib/libmbedtls/mbedtls/library/bignum.c:374
    2fac:	f9400660 	ldr	x0, [x19, #8]
    2fb0:	7100029f 	cmp	w20, #0x0
    2fb4:	5a94a681 	cneg	w1, w20, lt  // lt = tstop
    2fb8:	b9000001 	str	w1, [x0]
/home/zrz0517/study/TEE/RT-TEE/optee_os/lib/libmbedtls/mbedtls/library/bignum.c:375
    2fbc:	52800020 	mov	w0, #0x1                   	// #1
    2fc0:	5a80a400 	cneg	w0, w0, lt  // lt = tstop
    2fc4:	39000260 	strb	w0, [x19]
/home/zrz0517/study/TEE/RT-TEE/optee_os/lib/libmbedtls/mbedtls/library/bignum.c:380
    2fc8:	2a1503e0 	mov	w0, w21
    2fcc:	a94153f3 	ldp	x19, x20, [sp, #16]
    2fd0:	f94013f5 	ldr	x21, [sp, #32]
    2fd4:	a8c37bfd 	ldp	x29, x30, [sp], #48
    2fd8:	d65f03c0 	ret

0000000000002fdc <mbedtls_mpi_get_bit>:
mbedtls_mpi_get_bit():
/home/zrz0517/study/TEE/RT-TEE/optee_os/lib/libmbedtls/mbedtls/library/bignum.c:387
    2fdc:	79400802 	ldrh	w2, [x0, #4]
    2fe0:	eb02143f 	cmp	x1, x2, lsl #5
    2fe4:	540000e2 	b.cs	3000 <mbedtls_mpi_get_bit+0x24>  // b.hs, b.nlast
/home/zrz0517/study/TEE/RT-TEE/optee_os/lib/libmbedtls/mbedtls/library/bignum.c:390
    2fe8:	f9400400 	ldr	x0, [x0, #8]
    2fec:	d345fc22 	lsr	x2, x1, #5
    2ff0:	b8627800 	ldr	w0, [x0, x2, lsl #2]
    2ff4:	1ac12400 	lsr	w0, w0, w1
    2ff8:	12000000 	and	w0, w0, #0x1
/home/zrz0517/study/TEE/RT-TEE/optee_os/lib/libmbedtls/mbedtls/library/bignum.c:391
    2ffc:	d65f03c0 	ret
/home/zrz0517/study/TEE/RT-TEE/optee_os/lib/libmbedtls/mbedtls/library/bignum.c:388
    3000:	52800000 	mov	w0, #0x0                   	// #0
    3004:	17fffffe 	b	2ffc <mbedtls_mpi_get_bit+0x20>

0000000000003008 <mbedtls_mpi_set_bit>:
mbedtls_mpi_set_bit():
/home/zrz0517/study/TEE/RT-TEE/optee_os/lib/libmbedtls/mbedtls/library/bignum.c:397
    3008:	a9bd7bfd 	stp	x29, x30, [sp, #-48]!
    300c:	910003fd 	mov	x29, sp
    3010:	a90153f3 	stp	x19, x20, [sp, #16]
    3014:	a9025bf5 	stp	x21, x22, [sp, #32]
    3018:	12001c55 	and	w21, w2, #0xff
/home/zrz0517/study/TEE/RT-TEE/optee_os/lib/libmbedtls/mbedtls/library/bignum.c:402
    301c:	710006bf 	cmp	w21, #0x1
    3020:	54000368 	b.hi	308c <mbedtls_mpi_set_bit+0x84>  // b.pmore
    3024:	aa0103f3 	mov	x19, x1
/home/zrz0517/study/TEE/RT-TEE/optee_os/lib/libmbedtls/mbedtls/library/bignum.c:405
    3028:	d345fc34 	lsr	x20, x1, #5
    302c:	79400801 	ldrh	w1, [x0, #4]
    3030:	aa0003f6 	mov	x22, x0
    3034:	eb01167f 	cmp	x19, x1, lsl #5
    3038:	540001a2 	b.cs	306c <mbedtls_mpi_set_bit+0x64>  // b.hs, b.nlast
/home/zrz0517/study/TEE/RT-TEE/optee_os/lib/libmbedtls/mbedtls/library/bignum.c:413
    303c:	f94006c3 	ldr	x3, [x22, #8]
    3040:	d37ef694 	lsl	x20, x20, #2
/home/zrz0517/study/TEE/RT-TEE/optee_os/lib/libmbedtls/mbedtls/library/bignum.c:400
    3044:	92401273 	and	x19, x19, #0x1f
/home/zrz0517/study/TEE/RT-TEE/optee_os/lib/libmbedtls/mbedtls/library/bignum.c:413
    3048:	52800020 	mov	w0, #0x1                   	// #1
    304c:	1ad32001 	lsl	w1, w0, w19
    3050:	b8746860 	ldr	w0, [x3, x20]
/home/zrz0517/study/TEE/RT-TEE/optee_os/lib/libmbedtls/mbedtls/library/bignum.c:414
    3054:	1ad322b3 	lsl	w19, w21, w19
/home/zrz0517/study/TEE/RT-TEE/optee_os/lib/libmbedtls/mbedtls/library/bignum.c:413
    3058:	0a210000 	bic	w0, w0, w1
/home/zrz0517/study/TEE/RT-TEE/optee_os/lib/libmbedtls/mbedtls/library/bignum.c:414
    305c:	2a130000 	orr	w0, w0, w19
    3060:	b8346860 	str	w0, [x3, x20]
/home/zrz0517/study/TEE/RT-TEE/optee_os/lib/libmbedtls/mbedtls/library/bignum.c:408
    3064:	52800000 	mov	w0, #0x0                   	// #0
    3068:	14000005 	b	307c <mbedtls_mpi_set_bit+0x74>
/home/zrz0517/study/TEE/RT-TEE/optee_os/lib/libmbedtls/mbedtls/library/bignum.c:407
    306c:	34ffffd5 	cbz	w21, 3064 <mbedtls_mpi_set_bit+0x5c>
/home/zrz0517/study/TEE/RT-TEE/optee_os/lib/libmbedtls/mbedtls/library/bignum.c:410
    3070:	91000681 	add	x1, x20, #0x1
    3074:	97fffe76 	bl	2a4c <mbedtls_mpi_grow>
    3078:	34fffe20 	cbz	w0, 303c <mbedtls_mpi_set_bit+0x34>
/home/zrz0517/study/TEE/RT-TEE/optee_os/lib/libmbedtls/mbedtls/library/bignum.c:419
    307c:	a94153f3 	ldp	x19, x20, [sp, #16]
    3080:	a9425bf5 	ldp	x21, x22, [sp, #32]
    3084:	a8c37bfd 	ldp	x29, x30, [sp], #48
    3088:	d65f03c0 	ret
/home/zrz0517/study/TEE/RT-TEE/optee_os/lib/libmbedtls/mbedtls/library/bignum.c:403
    308c:	12800060 	mov	w0, #0xfffffffc            	// #-4
    3090:	17fffffb 	b	307c <mbedtls_mpi_set_bit+0x74>

0000000000003094 <mbedtls_mpi_lsb>:
mbedtls_mpi_lsb():
/home/zrz0517/study/TEE/RT-TEE/optee_os/lib/libmbedtls/mbedtls/library/bignum.c:428
    3094:	79400805 	ldrh	w5, [x0, #4]
/home/zrz0517/study/TEE/RT-TEE/optee_os/lib/libmbedtls/mbedtls/library/bignum.c:425
    3098:	aa0003e4 	mov	x4, x0
/home/zrz0517/study/TEE/RT-TEE/optee_os/lib/libmbedtls/mbedtls/library/bignum.c:426
    309c:	d2800003 	mov	x3, #0x0                   	// #0
/home/zrz0517/study/TEE/RT-TEE/optee_os/lib/libmbedtls/mbedtls/library/bignum.c:428
    30a0:	d2800002 	mov	x2, #0x0                   	// #0
/home/zrz0517/study/TEE/RT-TEE/optee_os/lib/libmbedtls/mbedtls/library/bignum.c:428 (discriminator 1)
    30a4:	eb0200bf 	cmp	x5, x2
    30a8:	54000068 	b.hi	30b4 <mbedtls_mpi_lsb+0x20>  // b.pmore
/home/zrz0517/study/TEE/RT-TEE/optee_os/lib/libmbedtls/mbedtls/library/bignum.c:433
    30ac:	d2800000 	mov	x0, #0x0                   	// #0
/home/zrz0517/study/TEE/RT-TEE/optee_os/lib/libmbedtls/mbedtls/library/bignum.c:434
    30b0:	d65f03c0 	ret
/home/zrz0517/study/TEE/RT-TEE/optee_os/lib/libmbedtls/mbedtls/library/bignum.c:430
    30b4:	f9400480 	ldr	x0, [x4, #8]
/home/zrz0517/study/TEE/RT-TEE/optee_os/lib/libmbedtls/mbedtls/library/bignum.c:429
    30b8:	d2800001 	mov	x1, #0x0                   	// #0
/home/zrz0517/study/TEE/RT-TEE/optee_os/lib/libmbedtls/mbedtls/library/bignum.c:430
    30bc:	b8627806 	ldr	w6, [x0, x2, lsl #2]
    30c0:	8b010060 	add	x0, x3, x1
    30c4:	1ac124c7 	lsr	w7, w6, w1
    30c8:	3707ff47 	tbnz	w7, #0, 30b0 <mbedtls_mpi_lsb+0x1c>
/home/zrz0517/study/TEE/RT-TEE/optee_os/lib/libmbedtls/mbedtls/library/bignum.c:429 (discriminator 2)
    30cc:	91000421 	add	x1, x1, #0x1
    30d0:	8b010060 	add	x0, x3, x1
    30d4:	f100803f 	cmp	x1, #0x20
    30d8:	54ffff41 	b.ne	30c0 <mbedtls_mpi_lsb+0x2c>  // b.any
/home/zrz0517/study/TEE/RT-TEE/optee_os/lib/libmbedtls/mbedtls/library/bignum.c:428 (discriminator 2)
    30dc:	91000442 	add	x2, x2, #0x1
/home/zrz0517/study/TEE/RT-TEE/optee_os/lib/libmbedtls/mbedtls/library/bignum.c:429 (discriminator 2)
    30e0:	aa0003e3 	mov	x3, x0
    30e4:	17fffff0 	b	30a4 <mbedtls_mpi_lsb+0x10>

00000000000030e8 <mbedtls_mpi_bitlen>:
mbedtls_mpi_bitlen():
/home/zrz0517/study/TEE/RT-TEE/optee_os/lib/libmbedtls/mbedtls/library/bignum.c:461
    30e8:	79400801 	ldrh	w1, [x0, #4]
    30ec:	340002c1 	cbz	w1, 3144 <mbedtls_mpi_bitlen+0x5c>
/home/zrz0517/study/TEE/RT-TEE/optee_os/lib/libmbedtls/mbedtls/library/bignum.c:464
    30f0:	51000421 	sub	w1, w1, #0x1
    30f4:	f9400400 	ldr	x0, [x0, #8]
    30f8:	93407c21 	sxtw	x1, w1
/home/zrz0517/study/TEE/RT-TEE/optee_os/lib/libmbedtls/mbedtls/library/bignum.c:464 (discriminator 1)
    30fc:	b50001c1 	cbnz	x1, 3134 <mbedtls_mpi_bitlen+0x4c>
/home/zrz0517/study/TEE/RT-TEE/optee_os/lib/libmbedtls/mbedtls/library/bignum.c:468
    3100:	b8617803 	ldr	w3, [x0, x1, lsl #2]
mbedtls_clz():
/home/zrz0517/study/TEE/RT-TEE/optee_os/lib/libmbedtls/mbedtls/library/bignum.c:444
    3104:	d2800002 	mov	x2, #0x0                   	// #0
/home/zrz0517/study/TEE/RT-TEE/optee_os/lib/libmbedtls/mbedtls/library/bignum.c:442
    3108:	52b00000 	mov	w0, #0x80000000            	// #-2147483648
/home/zrz0517/study/TEE/RT-TEE/optee_os/lib/libmbedtls/mbedtls/library/bignum.c:446
    310c:	6a00007f 	tst	w3, w0
    3110:	540000a1 	b.ne	3124 <mbedtls_mpi_bitlen+0x3c>  // b.any
/home/zrz0517/study/TEE/RT-TEE/optee_os/lib/libmbedtls/mbedtls/library/bignum.c:444
    3114:	91000442 	add	x2, x2, #0x1
/home/zrz0517/study/TEE/RT-TEE/optee_os/lib/libmbedtls/mbedtls/library/bignum.c:448
    3118:	53017c00 	lsr	w0, w0, #1
/home/zrz0517/study/TEE/RT-TEE/optee_os/lib/libmbedtls/mbedtls/library/bignum.c:444
    311c:	f100805f 	cmp	x2, #0x20
    3120:	54ffff61 	b.ne	310c <mbedtls_mpi_bitlen+0x24>  // b.any
mbedtls_mpi_bitlen():
/home/zrz0517/study/TEE/RT-TEE/optee_os/lib/libmbedtls/mbedtls/library/bignum.c:470
    3124:	91000420 	add	x0, x1, #0x1
    3128:	d37be800 	lsl	x0, x0, #5
    312c:	cb020000 	sub	x0, x0, x2
/home/zrz0517/study/TEE/RT-TEE/optee_os/lib/libmbedtls/mbedtls/library/bignum.c:471
    3130:	d65f03c0 	ret
/home/zrz0517/study/TEE/RT-TEE/optee_os/lib/libmbedtls/mbedtls/library/bignum.c:465
    3134:	b8617802 	ldr	w2, [x0, x1, lsl #2]
    3138:	35fffe42 	cbnz	w2, 3100 <mbedtls_mpi_bitlen+0x18>
/home/zrz0517/study/TEE/RT-TEE/optee_os/lib/libmbedtls/mbedtls/library/bignum.c:464 (discriminator 2)
    313c:	d1000421 	sub	x1, x1, #0x1
    3140:	17ffffef 	b	30fc <mbedtls_mpi_bitlen+0x14>
/home/zrz0517/study/TEE/RT-TEE/optee_os/lib/libmbedtls/mbedtls/library/bignum.c:462
    3144:	d2800000 	mov	x0, #0x0                   	// #0
    3148:	17fffffa 	b	3130 <mbedtls_mpi_bitlen+0x48>

000000000000314c <mbedtls_mpi_size>:
mbedtls_mpi_size():
/home/zrz0517/study/TEE/RT-TEE/optee_os/lib/libmbedtls/mbedtls/library/bignum.c:477
    314c:	a9bf7bfd 	stp	x29, x30, [sp, #-16]!
    3150:	910003fd 	mov	x29, sp
/home/zrz0517/study/TEE/RT-TEE/optee_os/lib/libmbedtls/mbedtls/library/bignum.c:478
    3154:	97ffffe5 	bl	30e8 <mbedtls_mpi_bitlen>
    3158:	91001c00 	add	x0, x0, #0x7
/home/zrz0517/study/TEE/RT-TEE/optee_os/lib/libmbedtls/mbedtls/library/bignum.c:479
    315c:	a8c17bfd 	ldp	x29, x30, [sp], #16
    3160:	d343fc00 	lsr	x0, x0, #3
    3164:	d65f03c0 	ret

0000000000003168 <mbedtls_mpi_read_binary>:
mbedtls_mpi_read_binary():
/home/zrz0517/study/TEE/RT-TEE/optee_os/lib/libmbedtls/mbedtls/library/bignum.c:750
    3168:	a9bd7bfd 	stp	x29, x30, [sp, #-48]!
    316c:	910003fd 	mov	x29, sp
    3170:	a90153f3 	stp	x19, x20, [sp, #16]
    3174:	aa0203f4 	mov	x20, x2
/home/zrz0517/study/TEE/RT-TEE/optee_os/lib/libmbedtls/mbedtls/library/bignum.c:754
    3178:	d2800013 	mov	x19, #0x0                   	// #0
/home/zrz0517/study/TEE/RT-TEE/optee_os/lib/libmbedtls/mbedtls/library/bignum.c:750
    317c:	a9025bf5 	stp	x21, x22, [sp, #32]
    3180:	aa0003f5 	mov	x21, x0
    3184:	aa0103f6 	mov	x22, x1
/home/zrz0517/study/TEE/RT-TEE/optee_os/lib/libmbedtls/mbedtls/library/bignum.c:754 (discriminator 1)
    3188:	eb14027f 	cmp	x19, x20
    318c:	54000060 	b.eq	3198 <mbedtls_mpi_read_binary+0x30>  // b.none
/home/zrz0517/study/TEE/RT-TEE/optee_os/lib/libmbedtls/mbedtls/library/bignum.c:755
    3190:	38736ac0 	ldrb	w0, [x22, x19]
    3194:	34000260 	cbz	w0, 31e0 <mbedtls_mpi_read_binary+0x78>
/home/zrz0517/study/TEE/RT-TEE/optee_os/lib/libmbedtls/mbedtls/library/bignum.c:758
    3198:	cb130281 	sub	x1, x20, x19
    319c:	aa1503e0 	mov	x0, x21
    31a0:	f240043f 	tst	x1, #0x3
    31a4:	d342fc21 	lsr	x1, x1, #2
    31a8:	9a810421 	cinc	x1, x1, ne  // ne = any
    31ac:	97fffe28 	bl	2a4c <mbedtls_mpi_grow>
    31b0:	35000100 	cbnz	w0, 31d0 <mbedtls_mpi_read_binary+0x68>
/home/zrz0517/study/TEE/RT-TEE/optee_os/lib/libmbedtls/mbedtls/library/bignum.c:759
    31b4:	52800001 	mov	w1, #0x0                   	// #0
    31b8:	aa1503e0 	mov	x0, x21
    31bc:	97ffff6d 	bl	2f70 <mbedtls_mpi_lset>
    31c0:	35000080 	cbnz	w0, 31d0 <mbedtls_mpi_read_binary+0x68>
/home/zrz0517/study/TEE/RT-TEE/optee_os/lib/libmbedtls/mbedtls/library/bignum.c:761
    31c4:	d2800001 	mov	x1, #0x0                   	// #0
/home/zrz0517/study/TEE/RT-TEE/optee_os/lib/libmbedtls/mbedtls/library/bignum.c:761 (discriminator 1)
    31c8:	eb13029f 	cmp	x20, x19
    31cc:	540000e8 	b.hi	31e8 <mbedtls_mpi_read_binary+0x80>  // b.pmore
/home/zrz0517/study/TEE/RT-TEE/optee_os/lib/libmbedtls/mbedtls/library/bignum.c:767
    31d0:	a94153f3 	ldp	x19, x20, [sp, #16]
    31d4:	a9425bf5 	ldp	x21, x22, [sp, #32]
    31d8:	a8c37bfd 	ldp	x29, x30, [sp], #48
    31dc:	d65f03c0 	ret
/home/zrz0517/study/TEE/RT-TEE/optee_os/lib/libmbedtls/mbedtls/library/bignum.c:754 (discriminator 2)
    31e0:	91000673 	add	x19, x19, #0x1
    31e4:	17ffffe9 	b	3188 <mbedtls_mpi_read_binary+0x20>
/home/zrz0517/study/TEE/RT-TEE/optee_os/lib/libmbedtls/mbedtls/library/bignum.c:762 (discriminator 3)
    31e8:	d1000694 	sub	x20, x20, #0x1
    31ec:	927ef424 	and	x4, x1, #0xfffffffffffffffc
    31f0:	f94006a5 	ldr	x5, [x21, #8]
    31f4:	531d0423 	ubfiz	w3, w1, #3, #2
    31f8:	38746ac2 	ldrb	w2, [x22, x20]
/home/zrz0517/study/TEE/RT-TEE/optee_os/lib/libmbedtls/mbedtls/library/bignum.c:761 (discriminator 3)
    31fc:	91000421 	add	x1, x1, #0x1
/home/zrz0517/study/TEE/RT-TEE/optee_os/lib/libmbedtls/mbedtls/library/bignum.c:762 (discriminator 3)
    3200:	1ac32043 	lsl	w3, w2, w3
    3204:	b86468a2 	ldr	w2, [x5, x4]
    3208:	2a030042 	orr	w2, w2, w3
    320c:	b82468a2 	str	w2, [x5, x4]
    3210:	17ffffee 	b	31c8 <mbedtls_mpi_read_binary+0x60>

0000000000003214 <mbedtls_mpi_write_binary>:
mbedtls_mpi_write_binary():
/home/zrz0517/study/TEE/RT-TEE/optee_os/lib/libmbedtls/mbedtls/library/bignum.c:773
    3214:	a9bd7bfd 	stp	x29, x30, [sp, #-48]!
    3218:	910003fd 	mov	x29, sp
    321c:	a90153f3 	stp	x19, x20, [sp, #16]
    3220:	aa0203f4 	mov	x20, x2
    3224:	aa0103f3 	mov	x19, x1
    3228:	a9025bf5 	stp	x21, x22, [sp, #32]
    322c:	aa0003f6 	mov	x22, x0
/home/zrz0517/study/TEE/RT-TEE/optee_os/lib/libmbedtls/mbedtls/library/bignum.c:776
    3230:	97ffffc7 	bl	314c <mbedtls_mpi_size>
/home/zrz0517/study/TEE/RT-TEE/optee_os/lib/libmbedtls/mbedtls/library/bignum.c:778
    3234:	eb14001f 	cmp	x0, x20
    3238:	54000308 	b.hi	3298 <mbedtls_mpi_write_binary+0x84>  // b.pmore
/home/zrz0517/study/TEE/RT-TEE/optee_os/lib/libmbedtls/mbedtls/library/bignum.c:781
    323c:	aa1403e2 	mov	x2, x20
    3240:	aa0003f5 	mov	x21, x0
    3244:	52800001 	mov	w1, #0x0                   	// #0
    3248:	aa1303e0 	mov	x0, x19
    324c:	94000fa0 	bl	70cc <memset>
/home/zrz0517/study/TEE/RT-TEE/optee_os/lib/libmbedtls/mbedtls/library/bignum.c:783
    3250:	8b140262 	add	x2, x19, x20
    3254:	d2800000 	mov	x0, #0x0                   	// #0
    3258:	d1000442 	sub	x2, x2, #0x1
/home/zrz0517/study/TEE/RT-TEE/optee_os/lib/libmbedtls/mbedtls/library/bignum.c:783 (discriminator 1)
    325c:	eb15001f 	cmp	x0, x21
    3260:	540000c1 	b.ne	3278 <mbedtls_mpi_write_binary+0x64>  // b.any
/home/zrz0517/study/TEE/RT-TEE/optee_os/lib/libmbedtls/mbedtls/library/bignum.c:786
    3264:	52800000 	mov	w0, #0x0                   	// #0
/home/zrz0517/study/TEE/RT-TEE/optee_os/lib/libmbedtls/mbedtls/library/bignum.c:787
    3268:	a94153f3 	ldp	x19, x20, [sp, #16]
    326c:	a9425bf5 	ldp	x21, x22, [sp, #32]
    3270:	a8c37bfd 	ldp	x29, x30, [sp], #48
    3274:	d65f03c0 	ret
/home/zrz0517/study/TEE/RT-TEE/optee_os/lib/libmbedtls/mbedtls/library/bignum.c:784 (discriminator 3)
    3278:	f94006c4 	ldr	x4, [x22, #8]
    327c:	927ef401 	and	x1, x0, #0xfffffffffffffffc
    3280:	531d0403 	ubfiz	w3, w0, #3, #2
/home/zrz0517/study/TEE/RT-TEE/optee_os/lib/libmbedtls/mbedtls/library/bignum.c:783 (discriminator 3)
    3284:	91000400 	add	x0, x0, #0x1
/home/zrz0517/study/TEE/RT-TEE/optee_os/lib/libmbedtls/mbedtls/library/bignum.c:784 (discriminator 3)
    3288:	b8616881 	ldr	w1, [x4, x1]
    328c:	1ac32421 	lsr	w1, w1, w3
    3290:	39000041 	strb	w1, [x2]
    3294:	17fffff1 	b	3258 <mbedtls_mpi_write_binary+0x44>
/home/zrz0517/study/TEE/RT-TEE/optee_os/lib/libmbedtls/mbedtls/library/bignum.c:779
    3298:	128000e0 	mov	w0, #0xfffffff8            	// #-8
    329c:	17fffff3 	b	3268 <mbedtls_mpi_write_binary+0x54>

00000000000032a0 <mbedtls_mpi_shift_l>:
mbedtls_mpi_shift_l():
/home/zrz0517/study/TEE/RT-TEE/optee_os/lib/libmbedtls/mbedtls/library/bignum.c:793
    32a0:	a9bd7bfd 	stp	x29, x30, [sp, #-48]!
    32a4:	910003fd 	mov	x29, sp
    32a8:	a90153f3 	stp	x19, x20, [sp, #16]
    32ac:	aa0003f3 	mov	x19, x0
/home/zrz0517/study/TEE/RT-TEE/optee_os/lib/libmbedtls/mbedtls/library/bignum.c:798
    32b0:	d345fc34 	lsr	x20, x1, #5
/home/zrz0517/study/TEE/RT-TEE/optee_os/lib/libmbedtls/mbedtls/library/bignum.c:793
    32b4:	a9025bf5 	stp	x21, x22, [sp, #32]
    32b8:	aa0103f5 	mov	x21, x1
/home/zrz0517/study/TEE/RT-TEE/optee_os/lib/libmbedtls/mbedtls/library/bignum.c:799
    32bc:	92401036 	and	x22, x1, #0x1f
/home/zrz0517/study/TEE/RT-TEE/optee_os/lib/libmbedtls/mbedtls/library/bignum.c:801
    32c0:	97ffff8a 	bl	30e8 <mbedtls_mpi_bitlen>
    32c4:	8b150000 	add	x0, x0, x21
/home/zrz0517/study/TEE/RT-TEE/optee_os/lib/libmbedtls/mbedtls/library/bignum.c:803
    32c8:	79400a61 	ldrh	w1, [x19, #4]
    32cc:	eb01141f 	cmp	x0, x1, lsl #5
    32d0:	540000c8 	b.hi	32e8 <mbedtls_mpi_shift_l+0x48>  // b.pmore
/home/zrz0517/study/TEE/RT-TEE/optee_os/lib/libmbedtls/mbedtls/library/bignum.c:811
    32d4:	f1007ebf 	cmp	x21, #0x1f
    32d8:	540001c8 	b.hi	3310 <mbedtls_mpi_shift_l+0x70>  // b.pmore
/home/zrz0517/study/TEE/RT-TEE/optee_os/lib/libmbedtls/mbedtls/library/bignum.c:823
    32dc:	b5000436 	cbnz	x22, 3360 <mbedtls_mpi_shift_l+0xc0>
/home/zrz0517/study/TEE/RT-TEE/optee_os/lib/libmbedtls/mbedtls/library/bignum.c:806
    32e0:	52800000 	mov	w0, #0x0                   	// #0
    32e4:	14000007 	b	3300 <mbedtls_mpi_shift_l+0x60>
/home/zrz0517/study/TEE/RT-TEE/optee_os/lib/libmbedtls/mbedtls/library/bignum.c:804
    32e8:	f240101f 	tst	x0, #0x1f
    32ec:	d345fc00 	lsr	x0, x0, #5
    32f0:	9a800401 	cinc	x1, x0, ne  // ne = any
    32f4:	aa1303e0 	mov	x0, x19
    32f8:	97fffdd5 	bl	2a4c <mbedtls_mpi_grow>
    32fc:	34fffec0 	cbz	w0, 32d4 <mbedtls_mpi_shift_l+0x34>
/home/zrz0517/study/TEE/RT-TEE/optee_os/lib/libmbedtls/mbedtls/library/bignum.c:837
    3300:	a94153f3 	ldp	x19, x20, [sp, #16]
    3304:	a9425bf5 	ldp	x21, x22, [sp, #32]
    3308:	a8c37bfd 	ldp	x29, x30, [sp], #48
    330c:	d65f03c0 	ret
/home/zrz0517/study/TEE/RT-TEE/optee_os/lib/libmbedtls/mbedtls/library/bignum.c:813
    3310:	92800061 	mov	x1, #0xfffffffffffffffc    	// #-4
    3314:	79400a60 	ldrh	w0, [x19, #4]
    3318:	9b017e81 	mul	x1, x20, x1
    331c:	d1000402 	sub	x2, x0, #0x1
/home/zrz0517/study/TEE/RT-TEE/optee_os/lib/libmbedtls/mbedtls/library/bignum.c:813 (discriminator 1)
    3320:	eb00029f 	cmp	x20, x0
    3324:	54000103 	b.cc	3344 <mbedtls_mpi_shift_l+0xa4>  // b.lo, b.ul, b.last
    3328:	d37ef400 	lsl	x0, x0, #2
    332c:	d1001000 	sub	x0, x0, #0x4
/home/zrz0517/study/TEE/RT-TEE/optee_os/lib/libmbedtls/mbedtls/library/bignum.c:816 (discriminator 2)
    3330:	b100101f 	cmn	x0, #0x4
    3334:	54fffd40 	b.eq	32dc <mbedtls_mpi_shift_l+0x3c>  // b.none
/home/zrz0517/study/TEE/RT-TEE/optee_os/lib/libmbedtls/mbedtls/library/bignum.c:817 (discriminator 2)
    3338:	f9400661 	ldr	x1, [x19, #8]
    333c:	b820683f 	str	wzr, [x1, x0]
    3340:	17fffffb 	b	332c <mbedtls_mpi_shift_l+0x8c>
/home/zrz0517/study/TEE/RT-TEE/optee_os/lib/libmbedtls/mbedtls/library/bignum.c:814 (discriminator 3)
    3344:	f9400663 	ldr	x3, [x19, #8]
    3348:	d37ef440 	lsl	x0, x2, #2
    334c:	8b000064 	add	x4, x3, x0
    3350:	b8616884 	ldr	w4, [x4, x1]
    3354:	b8206864 	str	w4, [x3, x0]
    3358:	aa0203e0 	mov	x0, x2
    335c:	17fffff0 	b	331c <mbedtls_mpi_shift_l+0x7c>
/home/zrz0517/study/TEE/RT-TEE/optee_os/lib/libmbedtls/mbedtls/library/bignum.c:825
    3360:	79400a66 	ldrh	w6, [x19, #4]
/home/zrz0517/study/TEE/RT-TEE/optee_os/lib/libmbedtls/mbedtls/library/bignum.c:827
    3364:	52800400 	mov	w0, #0x20                  	// #32
    3368:	4b160000 	sub	w0, w0, w22
/home/zrz0517/study/TEE/RT-TEE/optee_os/lib/libmbedtls/mbedtls/library/bignum.c:796
    336c:	52800002 	mov	w2, #0x0                   	// #0
/home/zrz0517/study/TEE/RT-TEE/optee_os/lib/libmbedtls/mbedtls/library/bignum.c:825 (discriminator 1)
    3370:	eb1400df 	cmp	x6, x20
    3374:	54fffb69 	b.ls	32e0 <mbedtls_mpi_shift_l+0x40>  // b.plast
/home/zrz0517/study/TEE/RT-TEE/optee_os/lib/libmbedtls/mbedtls/library/bignum.c:827 (discriminator 3)
    3378:	f9400665 	ldr	x5, [x19, #8]
    337c:	d37ef684 	lsl	x4, x20, #2
/home/zrz0517/study/TEE/RT-TEE/optee_os/lib/libmbedtls/mbedtls/library/bignum.c:825 (discriminator 3)
    3380:	91000694 	add	x20, x20, #0x1
/home/zrz0517/study/TEE/RT-TEE/optee_os/lib/libmbedtls/mbedtls/library/bignum.c:827 (discriminator 3)
    3384:	b86468a3 	ldr	w3, [x5, x4]
/home/zrz0517/study/TEE/RT-TEE/optee_os/lib/libmbedtls/mbedtls/library/bignum.c:828 (discriminator 3)
    3388:	1ad62061 	lsl	w1, w3, w22
/home/zrz0517/study/TEE/RT-TEE/optee_os/lib/libmbedtls/mbedtls/library/bignum.c:829 (discriminator 3)
    338c:	2a020021 	orr	w1, w1, w2
/home/zrz0517/study/TEE/RT-TEE/optee_os/lib/libmbedtls/mbedtls/library/bignum.c:827 (discriminator 3)
    3390:	1ac02462 	lsr	w2, w3, w0
/home/zrz0517/study/TEE/RT-TEE/optee_os/lib/libmbedtls/mbedtls/library/bignum.c:829 (discriminator 3)
    3394:	b82468a1 	str	w1, [x5, x4]
/home/zrz0517/study/TEE/RT-TEE/optee_os/lib/libmbedtls/mbedtls/library/bignum.c:830 (discriminator 3)
    3398:	17fffff6 	b	3370 <mbedtls_mpi_shift_l+0xd0>

000000000000339c <mbedtls_mpi_shift_r>:
mbedtls_mpi_shift_r():
/home/zrz0517/study/TEE/RT-TEE/optee_os/lib/libmbedtls/mbedtls/library/bignum.c:850
    339c:	79400802 	ldrh	w2, [x0, #4]
/home/zrz0517/study/TEE/RT-TEE/optee_os/lib/libmbedtls/mbedtls/library/bignum.c:847
    33a0:	d345fc25 	lsr	x5, x1, #5
/home/zrz0517/study/TEE/RT-TEE/optee_os/lib/libmbedtls/mbedtls/library/bignum.c:848
    33a4:	92401023 	and	x3, x1, #0x1f
/home/zrz0517/study/TEE/RT-TEE/optee_os/lib/libmbedtls/mbedtls/library/bignum.c:850
    33a8:	eb05005f 	cmp	x2, x5
    33ac:	54000063 	b.cc	33b8 <mbedtls_mpi_shift_r+0x1c>  // b.lo, b.ul, b.last
/home/zrz0517/study/TEE/RT-TEE/optee_os/lib/libmbedtls/mbedtls/library/bignum.c:850 (discriminator 1)
    33b0:	54000081 	b.ne	33c0 <mbedtls_mpi_shift_r+0x24>  // b.any
/home/zrz0517/study/TEE/RT-TEE/optee_os/lib/libmbedtls/mbedtls/library/bignum.c:850 (discriminator 2)
    33b4:	b4000503 	cbz	x3, 3454 <mbedtls_mpi_shift_r+0xb8>
/home/zrz0517/study/TEE/RT-TEE/optee_os/lib/libmbedtls/mbedtls/library/bignum.c:851
    33b8:	52800001 	mov	w1, #0x0                   	// #0
    33bc:	17fffeed 	b	2f70 <mbedtls_mpi_lset>
/home/zrz0517/study/TEE/RT-TEE/optee_os/lib/libmbedtls/mbedtls/library/bignum.c:856
    33c0:	f1007c3f 	cmp	x1, #0x1f
    33c4:	54000109 	b.ls	33e4 <mbedtls_mpi_shift_r+0x48>  // b.plast
    33c8:	d37ef4a6 	lsl	x6, x5, #2
    33cc:	d2800004 	mov	x4, #0x0                   	// #0
/home/zrz0517/study/TEE/RT-TEE/optee_os/lib/libmbedtls/mbedtls/library/bignum.c:858 (discriminator 1)
    33d0:	cb050041 	sub	x1, x2, x5
    33d4:	eb04003f 	cmp	x1, x4
    33d8:	540000c8 	b.hi	33f0 <mbedtls_mpi_shift_r+0x54>  // b.pmore
/home/zrz0517/study/TEE/RT-TEE/optee_os/lib/libmbedtls/mbedtls/library/bignum.c:861 (discriminator 1)
    33dc:	eb01005f 	cmp	x2, x1
    33e0:	54000148 	b.hi	3408 <mbedtls_mpi_shift_r+0x6c>  // b.pmore
/home/zrz0517/study/TEE/RT-TEE/optee_os/lib/libmbedtls/mbedtls/library/bignum.c:868
    33e4:	b5000303 	cbnz	x3, 3444 <mbedtls_mpi_shift_r+0xa8>
/home/zrz0517/study/TEE/RT-TEE/optee_os/lib/libmbedtls/mbedtls/library/bignum.c:880
    33e8:	52800000 	mov	w0, #0x0                   	// #0
    33ec:	d65f03c0 	ret
/home/zrz0517/study/TEE/RT-TEE/optee_os/lib/libmbedtls/mbedtls/library/bignum.c:859 (discriminator 3)
    33f0:	f9400401 	ldr	x1, [x0, #8]
    33f4:	b8666827 	ldr	w7, [x1, x6]
    33f8:	910010c6 	add	x6, x6, #0x4
    33fc:	b8247827 	str	w7, [x1, x4, lsl #2]
/home/zrz0517/study/TEE/RT-TEE/optee_os/lib/libmbedtls/mbedtls/library/bignum.c:858 (discriminator 3)
    3400:	91000484 	add	x4, x4, #0x1
    3404:	17fffff3 	b	33d0 <mbedtls_mpi_shift_r+0x34>
/home/zrz0517/study/TEE/RT-TEE/optee_os/lib/libmbedtls/mbedtls/library/bignum.c:862 (discriminator 2)
    3408:	f9400404 	ldr	x4, [x0, #8]
    340c:	b821789f 	str	wzr, [x4, x1, lsl #2]
/home/zrz0517/study/TEE/RT-TEE/optee_os/lib/libmbedtls/mbedtls/library/bignum.c:861 (discriminator 2)
    3410:	91000421 	add	x1, x1, #0x1
    3414:	17fffff2 	b	33dc <mbedtls_mpi_shift_r+0x40>
/home/zrz0517/study/TEE/RT-TEE/optee_os/lib/libmbedtls/mbedtls/library/bignum.c:872 (discriminator 3)
    3418:	f9400408 	ldr	x8, [x0, #8]
    341c:	d37ef447 	lsl	x7, x2, #2
    3420:	b8676906 	ldr	w6, [x8, x7]
/home/zrz0517/study/TEE/RT-TEE/optee_os/lib/libmbedtls/mbedtls/library/bignum.c:873 (discriminator 3)
    3424:	1ac324c4 	lsr	w4, w6, w3
/home/zrz0517/study/TEE/RT-TEE/optee_os/lib/libmbedtls/mbedtls/library/bignum.c:874 (discriminator 3)
    3428:	2a050084 	orr	w4, w4, w5
/home/zrz0517/study/TEE/RT-TEE/optee_os/lib/libmbedtls/mbedtls/library/bignum.c:872 (discriminator 3)
    342c:	1ac120c5 	lsl	w5, w6, w1
/home/zrz0517/study/TEE/RT-TEE/optee_os/lib/libmbedtls/mbedtls/library/bignum.c:874 (discriminator 3)
    3430:	b8276904 	str	w4, [x8, x7]
/home/zrz0517/study/TEE/RT-TEE/optee_os/lib/libmbedtls/mbedtls/library/bignum.c:875 (discriminator 3)
    3434:	d1000442 	sub	x2, x2, #0x1
/home/zrz0517/study/TEE/RT-TEE/optee_os/lib/libmbedtls/mbedtls/library/bignum.c:870 (discriminator 1)
    3438:	b100045f 	cmn	x2, #0x1
    343c:	54fffee1 	b.ne	3418 <mbedtls_mpi_shift_r+0x7c>  // b.any
    3440:	17ffffea 	b	33e8 <mbedtls_mpi_shift_r+0x4c>
/home/zrz0517/study/TEE/RT-TEE/optee_os/lib/libmbedtls/mbedtls/library/bignum.c:872
    3444:	52800401 	mov	w1, #0x20                  	// #32
/home/zrz0517/study/TEE/RT-TEE/optee_os/lib/libmbedtls/mbedtls/library/bignum.c:845
    3448:	52800005 	mov	w5, #0x0                   	// #0
/home/zrz0517/study/TEE/RT-TEE/optee_os/lib/libmbedtls/mbedtls/library/bignum.c:872
    344c:	4b030021 	sub	w1, w1, w3
    3450:	17fffff9 	b	3434 <mbedtls_mpi_shift_r+0x98>
/home/zrz0517/study/TEE/RT-TEE/optee_os/lib/libmbedtls/mbedtls/library/bignum.c:856
    3454:	f1007c3f 	cmp	x1, #0x1f
    3458:	54fffc89 	b.ls	33e8 <mbedtls_mpi_shift_r+0x4c>  // b.plast
    345c:	d2800001 	mov	x1, #0x0                   	// #0
    3460:	17ffffdf 	b	33dc <mbedtls_mpi_shift_r+0x40>

0000000000003464 <mbedtls_mpi_cmp_abs>:
mbedtls_mpi_cmp_abs():
/home/zrz0517/study/TEE/RT-TEE/optee_os/lib/libmbedtls/mbedtls/library/bignum.c:889
    3464:	79400802 	ldrh	w2, [x0, #4]
/home/zrz0517/study/TEE/RT-TEE/optee_os/lib/libmbedtls/mbedtls/library/bignum.c:889 (discriminator 1)
    3468:	b50000c2 	cbnz	x2, 3480 <mbedtls_mpi_cmp_abs+0x1c>
/home/zrz0517/study/TEE/RT-TEE/optee_os/lib/libmbedtls/mbedtls/library/bignum.c:893
    346c:	79400823 	ldrh	w3, [x1, #4]
/home/zrz0517/study/TEE/RT-TEE/optee_os/lib/libmbedtls/mbedtls/library/bignum.c:893 (discriminator 1)
    3470:	b5000143 	cbnz	x3, 3498 <mbedtls_mpi_cmp_abs+0x34>
/home/zrz0517/study/TEE/RT-TEE/optee_os/lib/libmbedtls/mbedtls/library/bignum.c:897
    3474:	f100005f 	cmp	x2, #0x0
    3478:	1a9f07e0 	cset	w0, ne  // ne = any
/home/zrz0517/study/TEE/RT-TEE/optee_os/lib/libmbedtls/mbedtls/library/bignum.c:910
    347c:	d65f03c0 	ret
/home/zrz0517/study/TEE/RT-TEE/optee_os/lib/libmbedtls/mbedtls/library/bignum.c:890
    3480:	f9400403 	ldr	x3, [x0, #8]
    3484:	8b020863 	add	x3, x3, x2, lsl #2
    3488:	b85fc063 	ldur	w3, [x3, #-4]
    348c:	35ffff03 	cbnz	w3, 346c <mbedtls_mpi_cmp_abs+0x8>
/home/zrz0517/study/TEE/RT-TEE/optee_os/lib/libmbedtls/mbedtls/library/bignum.c:889 (discriminator 2)
    3490:	d1000442 	sub	x2, x2, #0x1
    3494:	17fffff5 	b	3468 <mbedtls_mpi_cmp_abs+0x4>
/home/zrz0517/study/TEE/RT-TEE/optee_os/lib/libmbedtls/mbedtls/library/bignum.c:894
    3498:	f9400424 	ldr	x4, [x1, #8]
    349c:	8b030885 	add	x5, x4, x3, lsl #2
    34a0:	b85fc0a5 	ldur	w5, [x5, #-4]
    34a4:	340000a5 	cbz	w5, 34b8 <mbedtls_mpi_cmp_abs+0x54>
/home/zrz0517/study/TEE/RT-TEE/optee_os/lib/libmbedtls/mbedtls/library/bignum.c:900
    34a8:	eb03005f 	cmp	x2, x3
    34ac:	540000a9 	b.ls	34c0 <mbedtls_mpi_cmp_abs+0x5c>  // b.plast
    34b0:	52800020 	mov	w0, #0x1                   	// #1
    34b4:	17fffff2 	b	347c <mbedtls_mpi_cmp_abs+0x18>
/home/zrz0517/study/TEE/RT-TEE/optee_os/lib/libmbedtls/mbedtls/library/bignum.c:893 (discriminator 2)
    34b8:	d1000463 	sub	x3, x3, #0x1
    34bc:	17ffffed 	b	3470 <mbedtls_mpi_cmp_abs+0xc>
/home/zrz0517/study/TEE/RT-TEE/optee_os/lib/libmbedtls/mbedtls/library/bignum.c:901
    34c0:	540001c3 	b.cc	34f8 <mbedtls_mpi_cmp_abs+0x94>  // b.lo, b.ul, b.last
    34c4:	d37ef442 	lsl	x2, x2, #2
    34c8:	d1001042 	sub	x2, x2, #0x4
/home/zrz0517/study/TEE/RT-TEE/optee_os/lib/libmbedtls/mbedtls/library/bignum.c:903 (discriminator 1)
    34cc:	b100105f 	cmn	x2, #0x4
    34d0:	54000061 	b.ne	34dc <mbedtls_mpi_cmp_abs+0x78>  // b.any
/home/zrz0517/study/TEE/RT-TEE/optee_os/lib/libmbedtls/mbedtls/library/bignum.c:898
    34d4:	52800000 	mov	w0, #0x0                   	// #0
    34d8:	17ffffe9 	b	347c <mbedtls_mpi_cmp_abs+0x18>
/home/zrz0517/study/TEE/RT-TEE/optee_os/lib/libmbedtls/mbedtls/library/bignum.c:905
    34dc:	f9400401 	ldr	x1, [x0, #8]
    34e0:	b8626823 	ldr	w3, [x1, x2]
    34e4:	b8626881 	ldr	w1, [x4, x2]
    34e8:	6b01007f 	cmp	w3, w1
    34ec:	54fffe28 	b.hi	34b0 <mbedtls_mpi_cmp_abs+0x4c>  // b.pmore
/home/zrz0517/study/TEE/RT-TEE/optee_os/lib/libmbedtls/mbedtls/library/bignum.c:906
    34f0:	d1001042 	sub	x2, x2, #0x4
    34f4:	54fffec2 	b.cs	34cc <mbedtls_mpi_cmp_abs+0x68>  // b.hs, b.nlast
/home/zrz0517/study/TEE/RT-TEE/optee_os/lib/libmbedtls/mbedtls/library/bignum.c:901
    34f8:	12800000 	mov	w0, #0xffffffff            	// #-1
    34fc:	17ffffe0 	b	347c <mbedtls_mpi_cmp_abs+0x18>

0000000000003500 <mbedtls_mpi_cmp_mpi>:
mbedtls_mpi_cmp_mpi():
/home/zrz0517/study/TEE/RT-TEE/optee_os/lib/libmbedtls/mbedtls/library/bignum.c:919
    3500:	79400802 	ldrh	w2, [x0, #4]
/home/zrz0517/study/TEE/RT-TEE/optee_os/lib/libmbedtls/mbedtls/library/bignum.c:919 (discriminator 1)
    3504:	b50000c2 	cbnz	x2, 351c <mbedtls_mpi_cmp_mpi+0x1c>
/home/zrz0517/study/TEE/RT-TEE/optee_os/lib/libmbedtls/mbedtls/library/bignum.c:923
    3508:	79400823 	ldrh	w3, [x1, #4]
/home/zrz0517/study/TEE/RT-TEE/optee_os/lib/libmbedtls/mbedtls/library/bignum.c:923 (discriminator 1)
    350c:	b5000143 	cbnz	x3, 3534 <mbedtls_mpi_cmp_mpi+0x34>
/home/zrz0517/study/TEE/RT-TEE/optee_os/lib/libmbedtls/mbedtls/library/bignum.c:927
    3510:	b40005e2 	cbz	x2, 35cc <mbedtls_mpi_cmp_mpi+0xcc>
/home/zrz0517/study/TEE/RT-TEE/optee_os/lib/libmbedtls/mbedtls/library/bignum.c:930 (discriminator 1)
    3514:	39c00000 	ldrsb	w0, [x0]
/home/zrz0517/study/TEE/RT-TEE/optee_os/lib/libmbedtls/mbedtls/library/bignum.c:943
    3518:	d65f03c0 	ret
/home/zrz0517/study/TEE/RT-TEE/optee_os/lib/libmbedtls/mbedtls/library/bignum.c:920
    351c:	f9400403 	ldr	x3, [x0, #8]
    3520:	8b020863 	add	x3, x3, x2, lsl #2
    3524:	b85fc063 	ldur	w3, [x3, #-4]
    3528:	35ffff03 	cbnz	w3, 3508 <mbedtls_mpi_cmp_mpi+0x8>
/home/zrz0517/study/TEE/RT-TEE/optee_os/lib/libmbedtls/mbedtls/library/bignum.c:919 (discriminator 2)
    352c:	d1000442 	sub	x2, x2, #0x1
    3530:	17fffff5 	b	3504 <mbedtls_mpi_cmp_mpi+0x4>
/home/zrz0517/study/TEE/RT-TEE/optee_os/lib/libmbedtls/mbedtls/library/bignum.c:924
    3534:	f9400424 	ldr	x4, [x1, #8]
    3538:	8b030885 	add	x5, x4, x3, lsl #2
    353c:	b85fc0a5 	ldur	w5, [x5, #-4]
    3540:	35000065 	cbnz	w5, 354c <mbedtls_mpi_cmp_mpi+0x4c>
/home/zrz0517/study/TEE/RT-TEE/optee_os/lib/libmbedtls/mbedtls/library/bignum.c:923 (discriminator 2)
    3544:	d1000463 	sub	x3, x3, #0x1
    3548:	17fffff1 	b	350c <mbedtls_mpi_cmp_mpi+0xc>
/home/zrz0517/study/TEE/RT-TEE/optee_os/lib/libmbedtls/mbedtls/library/bignum.c:930
    354c:	eb03005f 	cmp	x2, x3
    3550:	54fffe28 	b.hi	3514 <mbedtls_mpi_cmp_mpi+0x14>  // b.pmore
/home/zrz0517/study/TEE/RT-TEE/optee_os/lib/libmbedtls/mbedtls/library/bignum.c:931
    3554:	39c00023 	ldrsb	w3, [x1]
    3558:	54000062 	b.cs	3564 <mbedtls_mpi_cmp_mpi+0x64>  // b.hs, b.nlast
/home/zrz0517/study/TEE/RT-TEE/optee_os/lib/libmbedtls/mbedtls/library/bignum.c:931 (discriminator 1)
    355c:	4b0303e0 	neg	w0, w3
    3560:	17ffffee 	b	3518 <mbedtls_mpi_cmp_mpi+0x18>
/home/zrz0517/study/TEE/RT-TEE/optee_os/lib/libmbedtls/mbedtls/library/bignum.c:933
    3564:	39c00001 	ldrsb	w1, [x0]
    3568:	7100003f 	cmp	w1, #0x0
    356c:	5400008d 	b.le	357c <mbedtls_mpi_cmp_mpi+0x7c>
/home/zrz0517/study/TEE/RT-TEE/optee_os/lib/libmbedtls/mbedtls/library/bignum.c:933 (discriminator 1)
    3570:	36f80263 	tbz	w3, #31, 35bc <mbedtls_mpi_cmp_mpi+0xbc>
/home/zrz0517/study/TEE/RT-TEE/optee_os/lib/libmbedtls/mbedtls/library/bignum.c:933
    3574:	52800020 	mov	w0, #0x1                   	// #1
    3578:	17ffffe8 	b	3518 <mbedtls_mpi_cmp_mpi+0x18>
/home/zrz0517/study/TEE/RT-TEE/optee_os/lib/libmbedtls/mbedtls/library/bignum.c:934
    357c:	7100007f 	cmp	w3, #0x0
    3580:	540001ed 	b.le	35bc <mbedtls_mpi_cmp_mpi+0xbc>
/home/zrz0517/study/TEE/RT-TEE/optee_os/lib/libmbedtls/mbedtls/library/bignum.c:934 (discriminator 1)
    3584:	340001c1 	cbz	w1, 35bc <mbedtls_mpi_cmp_mpi+0xbc>
/home/zrz0517/study/TEE/RT-TEE/optee_os/lib/libmbedtls/mbedtls/library/bignum.c:934
    3588:	12800000 	mov	w0, #0xffffffff            	// #-1
    358c:	17ffffe3 	b	3518 <mbedtls_mpi_cmp_mpi+0x18>
/home/zrz0517/study/TEE/RT-TEE/optee_os/lib/libmbedtls/mbedtls/library/bignum.c:938
    3590:	f9400403 	ldr	x3, [x0, #8]
    3594:	b8626865 	ldr	w5, [x3, x2]
    3598:	b8626883 	ldr	w3, [x4, x2]
    359c:	6b0300bf 	cmp	w5, w3
    35a0:	54000069 	b.ls	35ac <mbedtls_mpi_cmp_mpi+0xac>  // b.plast
/home/zrz0517/study/TEE/RT-TEE/optee_os/lib/libmbedtls/mbedtls/library/bignum.c:938 (discriminator 1)
    35a4:	2a0103e0 	mov	w0, w1
    35a8:	17ffffdc 	b	3518 <mbedtls_mpi_cmp_mpi+0x18>
/home/zrz0517/study/TEE/RT-TEE/optee_os/lib/libmbedtls/mbedtls/library/bignum.c:939
    35ac:	d1001042 	sub	x2, x2, #0x4
    35b0:	540000a2 	b.cs	35c4 <mbedtls_mpi_cmp_mpi+0xc4>  // b.hs, b.nlast
/home/zrz0517/study/TEE/RT-TEE/optee_os/lib/libmbedtls/mbedtls/library/bignum.c:939 (discriminator 1)
    35b4:	4b0103e0 	neg	w0, w1
    35b8:	17ffffd8 	b	3518 <mbedtls_mpi_cmp_mpi+0x18>
    35bc:	d37ef442 	lsl	x2, x2, #2
    35c0:	d1001042 	sub	x2, x2, #0x4
/home/zrz0517/study/TEE/RT-TEE/optee_os/lib/libmbedtls/mbedtls/library/bignum.c:936 (discriminator 1)
    35c4:	b100105f 	cmn	x2, #0x4
    35c8:	54fffe41 	b.ne	3590 <mbedtls_mpi_cmp_mpi+0x90>  // b.any
/home/zrz0517/study/TEE/RT-TEE/optee_os/lib/libmbedtls/mbedtls/library/bignum.c:928
    35cc:	52800000 	mov	w0, #0x0                   	// #0
    35d0:	17ffffd2 	b	3518 <mbedtls_mpi_cmp_mpi+0x18>

00000000000035d4 <mbedtls_mpi_cmp_int>:
mbedtls_mpi_cmp_int():
/home/zrz0517/study/TEE/RT-TEE/optee_os/lib/libmbedtls/mbedtls/library/bignum.c:949
    35d4:	a9bd7bfd 	stp	x29, x30, [sp, #-48]!
/home/zrz0517/study/TEE/RT-TEE/optee_os/lib/libmbedtls/mbedtls/library/bignum.c:953
    35d8:	7100003f 	cmp	w1, #0x0
    35dc:	5a81a422 	cneg	w2, w1, lt  // lt = tstop
/home/zrz0517/study/TEE/RT-TEE/optee_os/lib/libmbedtls/mbedtls/library/bignum.c:949
    35e0:	910003fd 	mov	x29, sp
/home/zrz0517/study/TEE/RT-TEE/optee_os/lib/libmbedtls/mbedtls/library/bignum.c:953
    35e4:	b9001be2 	str	w2, [sp, #24]
/home/zrz0517/study/TEE/RT-TEE/optee_os/lib/libmbedtls/mbedtls/library/bignum.c:954
    35e8:	52800022 	mov	w2, #0x1                   	// #1
    35ec:	5a82a441 	cneg	w1, w2, lt  // lt = tstop
    35f0:	390083e1 	strb	w1, [sp, #32]
/home/zrz0517/study/TEE/RT-TEE/optee_os/lib/libmbedtls/mbedtls/library/bignum.c:956
    35f4:	910063e1 	add	x1, sp, #0x18
/home/zrz0517/study/TEE/RT-TEE/optee_os/lib/libmbedtls/mbedtls/library/bignum.c:955
    35f8:	79004be2 	strh	w2, [sp, #36]
/home/zrz0517/study/TEE/RT-TEE/optee_os/lib/libmbedtls/mbedtls/library/bignum.c:956
    35fc:	f90017e1 	str	x1, [sp, #40]
/home/zrz0517/study/TEE/RT-TEE/optee_os/lib/libmbedtls/mbedtls/library/bignum.c:958
    3600:	910083e1 	add	x1, sp, #0x20
    3604:	97ffffbf 	bl	3500 <mbedtls_mpi_cmp_mpi>
/home/zrz0517/study/TEE/RT-TEE/optee_os/lib/libmbedtls/mbedtls/library/bignum.c:959
    3608:	a8c37bfd 	ldp	x29, x30, [sp], #48
    360c:	d65f03c0 	ret

0000000000003610 <mbedtls_mpi_add_abs>:
mbedtls_mpi_add_abs():
/home/zrz0517/study/TEE/RT-TEE/optee_os/lib/libmbedtls/mbedtls/library/bignum.c:965
    3610:	a9bc7bfd 	stp	x29, x30, [sp, #-64]!
/home/zrz0517/study/TEE/RT-TEE/optee_os/lib/libmbedtls/mbedtls/library/bignum.c:970
    3614:	eb02001f 	cmp	x0, x2
/home/zrz0517/study/TEE/RT-TEE/optee_os/lib/libmbedtls/mbedtls/library/bignum.c:965
    3618:	910003fd 	mov	x29, sp
    361c:	a90153f3 	stp	x19, x20, [sp, #16]
    3620:	aa0103f4 	mov	x20, x1
    3624:	a9025bf5 	stp	x21, x22, [sp, #32]
    3628:	aa0003f5 	mov	x21, x0
    362c:	f9001bf7 	str	x23, [sp, #48]
/home/zrz0517/study/TEE/RT-TEE/optee_os/lib/libmbedtls/mbedtls/library/bignum.c:970
    3630:	540000a0 	b.eq	3644 <mbedtls_mpi_add_abs+0x34>  // b.none
    3634:	aa0203f3 	mov	x19, x2
/home/zrz0517/study/TEE/RT-TEE/optee_os/lib/libmbedtls/mbedtls/library/bignum.c:975
    3638:	eb01001f 	cmp	x0, x1
    363c:	54000481 	b.ne	36cc <mbedtls_mpi_add_abs+0xbc>  // b.any
/home/zrz0517/study/TEE/RT-TEE/optee_os/lib/libmbedtls/mbedtls/library/bignum.c:965
    3640:	aa1303f4 	mov	x20, x19
/home/zrz0517/study/TEE/RT-TEE/optee_os/lib/libmbedtls/mbedtls/library/bignum.c:981
    3644:	52800020 	mov	w0, #0x1                   	// #1
    3648:	390002a0 	strb	w0, [x21]
/home/zrz0517/study/TEE/RT-TEE/optee_os/lib/libmbedtls/mbedtls/library/bignum.c:983
    364c:	79400a93 	ldrh	w19, [x20, #4]
/home/zrz0517/study/TEE/RT-TEE/optee_os/lib/libmbedtls/mbedtls/library/bignum.c:983 (discriminator 1)
    3650:	b5000513 	cbnz	x19, 36f0 <mbedtls_mpi_add_abs+0xe0>
/home/zrz0517/study/TEE/RT-TEE/optee_os/lib/libmbedtls/mbedtls/library/bignum.c:987
    3654:	aa1303e1 	mov	x1, x19
    3658:	aa1503e0 	mov	x0, x21
    365c:	97fffcfc 	bl	2a4c <mbedtls_mpi_grow>
    3660:	2a0003f6 	mov	w22, w0
    3664:	350003a0 	cbnz	w0, 36d8 <mbedtls_mpi_add_abs+0xc8>
/home/zrz0517/study/TEE/RT-TEE/optee_os/lib/libmbedtls/mbedtls/library/bignum.c:989
    3668:	f94006a0 	ldr	x0, [x21, #8]
/home/zrz0517/study/TEE/RT-TEE/optee_os/lib/libmbedtls/mbedtls/library/bignum.c:994
    366c:	d2800002 	mov	x2, #0x0                   	// #0
/home/zrz0517/study/TEE/RT-TEE/optee_os/lib/libmbedtls/mbedtls/library/bignum.c:989
    3670:	f9400684 	ldr	x4, [x20, #8]
    3674:	52800014 	mov	w20, #0x0                   	// #0
/home/zrz0517/study/TEE/RT-TEE/optee_os/lib/libmbedtls/mbedtls/library/bignum.c:994 (discriminator 1)
    3678:	eb02027f 	cmp	x19, x2
    367c:	54000461 	b.ne	3708 <mbedtls_mpi_add_abs+0xf8>  // b.any
    3680:	8b130800 	add	x0, x0, x19, lsl #2
/home/zrz0517/study/TEE/RT-TEE/optee_os/lib/libmbedtls/mbedtls/library/bignum.c:1001
    3684:	340002b4 	cbz	w20, 36d8 <mbedtls_mpi_add_abs+0xc8>
/home/zrz0517/study/TEE/RT-TEE/optee_os/lib/libmbedtls/mbedtls/library/bignum.c:1003
    3688:	79400aa1 	ldrh	w1, [x21, #4]
    368c:	91000677 	add	x23, x19, #0x1
    3690:	eb13003f 	cmp	x1, x19
    3694:	540000e8 	b.hi	36b0 <mbedtls_mpi_add_abs+0xa0>  // b.pmore
/home/zrz0517/study/TEE/RT-TEE/optee_os/lib/libmbedtls/mbedtls/library/bignum.c:1005
    3698:	aa1703e1 	mov	x1, x23
    369c:	aa1503e0 	mov	x0, x21
    36a0:	97fffceb 	bl	2a4c <mbedtls_mpi_grow>
    36a4:	35000480 	cbnz	w0, 3734 <mbedtls_mpi_add_abs+0x124>
/home/zrz0517/study/TEE/RT-TEE/optee_os/lib/libmbedtls/mbedtls/library/bignum.c:1006
    36a8:	f94006a0 	ldr	x0, [x21, #8]
    36ac:	8b130800 	add	x0, x0, x19, lsl #2
/home/zrz0517/study/TEE/RT-TEE/optee_os/lib/libmbedtls/mbedtls/library/bignum.c:1009
    36b0:	b9400001 	ldr	w1, [x0]
    36b4:	aa1703f3 	mov	x19, x23
    36b8:	0b010281 	add	w1, w20, w1
    36bc:	b8004401 	str	w1, [x0], #4
    36c0:	6b14003f 	cmp	w1, w20
    36c4:	1a9f27f4 	cset	w20, cc  // cc = lo, ul, last
    36c8:	17ffffef 	b	3684 <mbedtls_mpi_add_abs+0x74>
/home/zrz0517/study/TEE/RT-TEE/optee_os/lib/libmbedtls/mbedtls/library/bignum.c:976
    36cc:	97fffd7e 	bl	2cc4 <mbedtls_mpi_copy>
    36d0:	2a0003f6 	mov	w22, w0
    36d4:	34fffb60 	cbz	w0, 3640 <mbedtls_mpi_add_abs+0x30>
/home/zrz0517/study/TEE/RT-TEE/optee_os/lib/libmbedtls/mbedtls/library/bignum.c:1015
    36d8:	2a1603e0 	mov	w0, w22
    36dc:	a94153f3 	ldp	x19, x20, [sp, #16]
    36e0:	a9425bf5 	ldp	x21, x22, [sp, #32]
    36e4:	f9401bf7 	ldr	x23, [sp, #48]
    36e8:	a8c47bfd 	ldp	x29, x30, [sp], #64
    36ec:	d65f03c0 	ret
/home/zrz0517/study/TEE/RT-TEE/optee_os/lib/libmbedtls/mbedtls/library/bignum.c:984
    36f0:	f9400680 	ldr	x0, [x20, #8]
    36f4:	8b130800 	add	x0, x0, x19, lsl #2
    36f8:	b85fc000 	ldur	w0, [x0, #-4]
    36fc:	35fffac0 	cbnz	w0, 3654 <mbedtls_mpi_add_abs+0x44>
/home/zrz0517/study/TEE/RT-TEE/optee_os/lib/libmbedtls/mbedtls/library/bignum.c:983 (discriminator 2)
    3700:	d1000673 	sub	x19, x19, #0x1
    3704:	17ffffd3 	b	3650 <mbedtls_mpi_add_abs+0x40>
/home/zrz0517/study/TEE/RT-TEE/optee_os/lib/libmbedtls/mbedtls/library/bignum.c:997 (discriminator 3)
    3708:	b8627801 	ldr	w1, [x0, x2, lsl #2]
/home/zrz0517/study/TEE/RT-TEE/optee_os/lib/libmbedtls/mbedtls/library/bignum.c:996 (discriminator 3)
    370c:	b8627883 	ldr	w3, [x4, x2, lsl #2]
/home/zrz0517/study/TEE/RT-TEE/optee_os/lib/libmbedtls/mbedtls/library/bignum.c:997 (discriminator 3)
    3710:	0b010281 	add	w1, w20, w1
    3714:	6b14003f 	cmp	w1, w20
/home/zrz0517/study/TEE/RT-TEE/optee_os/lib/libmbedtls/mbedtls/library/bignum.c:998 (discriminator 3)
    3718:	0b030021 	add	w1, w1, w3
/home/zrz0517/study/TEE/RT-TEE/optee_os/lib/libmbedtls/mbedtls/library/bignum.c:997 (discriminator 3)
    371c:	1a9f27f4 	cset	w20, cc  // cc = lo, ul, last
/home/zrz0517/study/TEE/RT-TEE/optee_os/lib/libmbedtls/mbedtls/library/bignum.c:998 (discriminator 3)
    3720:	6b03003f 	cmp	w1, w3
    3724:	1a942694 	cinc	w20, w20, cc  // cc = lo, ul, last
    3728:	b8227801 	str	w1, [x0, x2, lsl #2]
/home/zrz0517/study/TEE/RT-TEE/optee_os/lib/libmbedtls/mbedtls/library/bignum.c:994 (discriminator 3)
    372c:	91000442 	add	x2, x2, #0x1
    3730:	17ffffd2 	b	3678 <mbedtls_mpi_add_abs+0x68>
/home/zrz0517/study/TEE/RT-TEE/optee_os/lib/libmbedtls/mbedtls/library/bignum.c:1005
    3734:	2a0003f6 	mov	w22, w0
/home/zrz0517/study/TEE/RT-TEE/optee_os/lib/libmbedtls/mbedtls/library/bignum.c:1014
    3738:	17ffffe8 	b	36d8 <mbedtls_mpi_add_abs+0xc8>

000000000000373c <mbedtls_mpi_sub_abs>:
mbedtls_mpi_sub_abs():
/home/zrz0517/study/TEE/RT-TEE/optee_os/lib/libmbedtls/mbedtls/library/bignum.c:1042
    373c:	a9bb7bfd 	stp	x29, x30, [sp, #-80]!
    3740:	910003fd 	mov	x29, sp
    3744:	f9001bf7 	str	x23, [sp, #48]
    3748:	aa0103f7 	mov	x23, x1
/home/zrz0517/study/TEE/RT-TEE/optee_os/lib/libmbedtls/mbedtls/library/bignum.c:1047
    374c:	aa0203e1 	mov	x1, x2
/home/zrz0517/study/TEE/RT-TEE/optee_os/lib/libmbedtls/mbedtls/library/bignum.c:1042
    3750:	a90153f3 	stp	x19, x20, [sp, #16]
    3754:	aa0203f4 	mov	x20, x2
    3758:	a9025bf5 	stp	x21, x22, [sp, #32]
    375c:	aa0003f5 	mov	x21, x0
/home/zrz0517/study/TEE/RT-TEE/optee_os/lib/libmbedtls/mbedtls/library/bignum.c:1047
    3760:	aa1703e0 	mov	x0, x23
    3764:	97ffff40 	bl	3464 <mbedtls_mpi_cmp_abs>
    3768:	37f80520 	tbnz	w0, #31, 380c <mbedtls_mpi_sub_abs+0xd0>
/home/zrz0517/study/TEE/RT-TEE/optee_os/lib/libmbedtls/mbedtls/library/bignum.c:1050
    376c:	910103f6 	add	x22, sp, #0x40
    3770:	aa1603e0 	mov	x0, x22
    3774:	97fffc80 	bl	2974 <mbedtls_mpi_init_mempool>
/home/zrz0517/study/TEE/RT-TEE/optee_os/lib/libmbedtls/mbedtls/library/bignum.c:1052
    3778:	eb15029f 	cmp	x20, x21
    377c:	540000e1 	b.ne	3798 <mbedtls_mpi_sub_abs+0x5c>  // b.any
/home/zrz0517/study/TEE/RT-TEE/optee_os/lib/libmbedtls/mbedtls/library/bignum.c:1054
    3780:	aa1403e1 	mov	x1, x20
    3784:	aa1603e0 	mov	x0, x22
    3788:	97fffd4f 	bl	2cc4 <mbedtls_mpi_copy>
    378c:	2a0003f3 	mov	w19, w0
    3790:	35000240 	cbnz	w0, 37d8 <mbedtls_mpi_sub_abs+0x9c>
/home/zrz0517/study/TEE/RT-TEE/optee_os/lib/libmbedtls/mbedtls/library/bignum.c:1055
    3794:	aa1603f4 	mov	x20, x22
/home/zrz0517/study/TEE/RT-TEE/optee_os/lib/libmbedtls/mbedtls/library/bignum.c:1058
    3798:	eb1502ff 	cmp	x23, x21
    379c:	54000141 	b.ne	37c4 <mbedtls_mpi_sub_abs+0x88>  // b.any
/home/zrz0517/study/TEE/RT-TEE/optee_os/lib/libmbedtls/mbedtls/library/bignum.c:1064
    37a0:	52800020 	mov	w0, #0x1                   	// #1
    37a4:	390002a0 	strb	w0, [x21]
/home/zrz0517/study/TEE/RT-TEE/optee_os/lib/libmbedtls/mbedtls/library/bignum.c:1068
    37a8:	79400a80 	ldrh	w0, [x20, #4]
    37ac:	f9400681 	ldr	x1, [x20, #8]
/home/zrz0517/study/TEE/RT-TEE/optee_os/lib/libmbedtls/mbedtls/library/bignum.c:1068 (discriminator 1)
    37b0:	b5000240 	cbnz	x0, 37f8 <mbedtls_mpi_sub_abs+0xbc>
/home/zrz0517/study/TEE/RT-TEE/optee_os/lib/libmbedtls/mbedtls/library/bignum.c:1072
    37b4:	f94006a2 	ldr	x2, [x21, #8]
/home/zrz0517/study/TEE/RT-TEE/optee_os/lib/libmbedtls/mbedtls/library/bignum.c:1066
    37b8:	52800013 	mov	w19, #0x0                   	// #0
/home/zrz0517/study/TEE/RT-TEE/optee_os/lib/libmbedtls/mbedtls/library/bignum.c:1072
    37bc:	97fffb05 	bl	23d0 <mpi_sub_hlp>
    37c0:	14000006 	b	37d8 <mbedtls_mpi_sub_abs+0x9c>
/home/zrz0517/study/TEE/RT-TEE/optee_os/lib/libmbedtls/mbedtls/library/bignum.c:1059
    37c4:	aa1703e1 	mov	x1, x23
    37c8:	aa1503e0 	mov	x0, x21
    37cc:	97fffd3e 	bl	2cc4 <mbedtls_mpi_copy>
    37d0:	2a0003f3 	mov	w19, w0
    37d4:	34fffe60 	cbz	w0, 37a0 <mbedtls_mpi_sub_abs+0x64>
/home/zrz0517/study/TEE/RT-TEE/optee_os/lib/libmbedtls/mbedtls/library/bignum.c:1076
    37d8:	aa1603e0 	mov	x0, x22
    37dc:	97fffc7a 	bl	29c4 <mbedtls_mpi_free>
/home/zrz0517/study/TEE/RT-TEE/optee_os/lib/libmbedtls/mbedtls/library/bignum.c:1079
    37e0:	2a1303e0 	mov	w0, w19
    37e4:	a94153f3 	ldp	x19, x20, [sp, #16]
    37e8:	a9425bf5 	ldp	x21, x22, [sp, #32]
    37ec:	f9401bf7 	ldr	x23, [sp, #48]
    37f0:	a8c57bfd 	ldp	x29, x30, [sp], #80
    37f4:	d65f03c0 	ret
/home/zrz0517/study/TEE/RT-TEE/optee_os/lib/libmbedtls/mbedtls/library/bignum.c:1069
    37f8:	8b000822 	add	x2, x1, x0, lsl #2
    37fc:	b85fc042 	ldur	w2, [x2, #-4]
    3800:	35fffda2 	cbnz	w2, 37b4 <mbedtls_mpi_sub_abs+0x78>
/home/zrz0517/study/TEE/RT-TEE/optee_os/lib/libmbedtls/mbedtls/library/bignum.c:1068 (discriminator 2)
    3804:	d1000400 	sub	x0, x0, #0x1
    3808:	17ffffea 	b	37b0 <mbedtls_mpi_sub_abs+0x74>
/home/zrz0517/study/TEE/RT-TEE/optee_os/lib/libmbedtls/mbedtls/library/bignum.c:1048
    380c:	12800133 	mov	w19, #0xfffffff6            	// #-10
    3810:	17fffff4 	b	37e0 <mbedtls_mpi_sub_abs+0xa4>

0000000000003814 <mbedtls_mpi_add_mpi>:
mbedtls_mpi_add_mpi():
/home/zrz0517/study/TEE/RT-TEE/optee_os/lib/libmbedtls/mbedtls/library/bignum.c:1085
    3814:	a9be7bfd 	stp	x29, x30, [sp, #-32]!
    3818:	910003fd 	mov	x29, sp
    381c:	a90153f3 	stp	x19, x20, [sp, #16]
    3820:	aa0003f4 	mov	x20, x0
/home/zrz0517/study/TEE/RT-TEE/optee_os/lib/libmbedtls/mbedtls/library/bignum.c:1086
    3824:	39c00033 	ldrsb	w19, [x1]
/home/zrz0517/study/TEE/RT-TEE/optee_os/lib/libmbedtls/mbedtls/library/bignum.c:1088
    3828:	39c00043 	ldrsb	w3, [x2]
    382c:	1b137c63 	mul	w3, w3, w19
    3830:	36f802e3 	tbz	w3, #31, 388c <mbedtls_mpi_add_mpi+0x78>
    3834:	aa0103e7 	mov	x7, x1
    3838:	aa0203e6 	mov	x6, x2
/home/zrz0517/study/TEE/RT-TEE/optee_os/lib/libmbedtls/mbedtls/library/bignum.c:1090
    383c:	aa0203e1 	mov	x1, x2
    3840:	aa0703e0 	mov	x0, x7
    3844:	97ffff08 	bl	3464 <mbedtls_mpi_cmp_abs>
    3848:	37f80120 	tbnz	w0, #31, 386c <mbedtls_mpi_add_mpi+0x58>
/home/zrz0517/study/TEE/RT-TEE/optee_os/lib/libmbedtls/mbedtls/library/bignum.c:1092
    384c:	aa0603e2 	mov	x2, x6
    3850:	aa0703e1 	mov	x1, x7
    3854:	aa1403e0 	mov	x0, x20
    3858:	97ffffb9 	bl	373c <mbedtls_mpi_sub_abs>
/home/zrz0517/study/TEE/RT-TEE/optee_os/lib/libmbedtls/mbedtls/library/bignum.c:1103
    385c:	34000140 	cbz	w0, 3884 <mbedtls_mpi_add_mpi+0x70>
/home/zrz0517/study/TEE/RT-TEE/optee_os/lib/libmbedtls/mbedtls/library/bignum.c:1110
    3860:	a94153f3 	ldp	x19, x20, [sp, #16]
    3864:	a8c27bfd 	ldp	x29, x30, [sp], #32
    3868:	d65f03c0 	ret
/home/zrz0517/study/TEE/RT-TEE/optee_os/lib/libmbedtls/mbedtls/library/bignum.c:1097
    386c:	aa0703e2 	mov	x2, x7
    3870:	aa0603e1 	mov	x1, x6
    3874:	aa1403e0 	mov	x0, x20
    3878:	97ffffb1 	bl	373c <mbedtls_mpi_sub_abs>
    387c:	35ffff20 	cbnz	w0, 3860 <mbedtls_mpi_add_mpi+0x4c>
/home/zrz0517/study/TEE/RT-TEE/optee_os/lib/libmbedtls/mbedtls/library/bignum.c:1098
    3880:	4b1303f3 	neg	w19, w19
/home/zrz0517/study/TEE/RT-TEE/optee_os/lib/libmbedtls/mbedtls/library/bignum.c:1104
    3884:	39000293 	strb	w19, [x20]
/home/zrz0517/study/TEE/RT-TEE/optee_os/lib/libmbedtls/mbedtls/library/bignum.c:1109
    3888:	17fffff6 	b	3860 <mbedtls_mpi_add_mpi+0x4c>
/home/zrz0517/study/TEE/RT-TEE/optee_os/lib/libmbedtls/mbedtls/library/bignum.c:1103
    388c:	97ffff61 	bl	3610 <mbedtls_mpi_add_abs>
    3890:	17fffff3 	b	385c <mbedtls_mpi_add_mpi+0x48>

0000000000003894 <mbedtls_mpi_sub_mpi>:
mbedtls_mpi_sub_mpi():
/home/zrz0517/study/TEE/RT-TEE/optee_os/lib/libmbedtls/mbedtls/library/bignum.c:1116
    3894:	a9be7bfd 	stp	x29, x30, [sp, #-32]!
    3898:	910003fd 	mov	x29, sp
    389c:	a90153f3 	stp	x19, x20, [sp, #16]
    38a0:	aa0003f4 	mov	x20, x0
/home/zrz0517/study/TEE/RT-TEE/optee_os/lib/libmbedtls/mbedtls/library/bignum.c:1117
    38a4:	39c00033 	ldrsb	w19, [x1]
/home/zrz0517/study/TEE/RT-TEE/optee_os/lib/libmbedtls/mbedtls/library/bignum.c:1119
    38a8:	39c00043 	ldrsb	w3, [x2]
    38ac:	1b137c63 	mul	w3, w3, w19
    38b0:	7100007f 	cmp	w3, #0x0
    38b4:	540002ed 	b.le	3910 <mbedtls_mpi_sub_mpi+0x7c>
    38b8:	aa0103e7 	mov	x7, x1
    38bc:	aa0203e6 	mov	x6, x2
/home/zrz0517/study/TEE/RT-TEE/optee_os/lib/libmbedtls/mbedtls/library/bignum.c:1121
    38c0:	aa0203e1 	mov	x1, x2
    38c4:	aa0703e0 	mov	x0, x7
    38c8:	97fffee7 	bl	3464 <mbedtls_mpi_cmp_abs>
    38cc:	37f80120 	tbnz	w0, #31, 38f0 <mbedtls_mpi_sub_mpi+0x5c>
/home/zrz0517/study/TEE/RT-TEE/optee_os/lib/libmbedtls/mbedtls/library/bignum.c:1123
    38d0:	aa0603e2 	mov	x2, x6
    38d4:	aa0703e1 	mov	x1, x7
    38d8:	aa1403e0 	mov	x0, x20
    38dc:	97ffff98 	bl	373c <mbedtls_mpi_sub_abs>
/home/zrz0517/study/TEE/RT-TEE/optee_os/lib/libmbedtls/mbedtls/library/bignum.c:1134
    38e0:	34000140 	cbz	w0, 3908 <mbedtls_mpi_sub_mpi+0x74>
/home/zrz0517/study/TEE/RT-TEE/optee_os/lib/libmbedtls/mbedtls/library/bignum.c:1141
    38e4:	a94153f3 	ldp	x19, x20, [sp, #16]
    38e8:	a8c27bfd 	ldp	x29, x30, [sp], #32
    38ec:	d65f03c0 	ret
/home/zrz0517/study/TEE/RT-TEE/optee_os/lib/libmbedtls/mbedtls/library/bignum.c:1128
    38f0:	aa0703e2 	mov	x2, x7
    38f4:	aa0603e1 	mov	x1, x6
    38f8:	aa1403e0 	mov	x0, x20
    38fc:	97ffff90 	bl	373c <mbedtls_mpi_sub_abs>
    3900:	35ffff20 	cbnz	w0, 38e4 <mbedtls_mpi_sub_mpi+0x50>
/home/zrz0517/study/TEE/RT-TEE/optee_os/lib/libmbedtls/mbedtls/library/bignum.c:1129
    3904:	4b1303f3 	neg	w19, w19
/home/zrz0517/study/TEE/RT-TEE/optee_os/lib/libmbedtls/mbedtls/library/bignum.c:1135
    3908:	39000293 	strb	w19, [x20]
/home/zrz0517/study/TEE/RT-TEE/optee_os/lib/libmbedtls/mbedtls/library/bignum.c:1140
    390c:	17fffff6 	b	38e4 <mbedtls_mpi_sub_mpi+0x50>
/home/zrz0517/study/TEE/RT-TEE/optee_os/lib/libmbedtls/mbedtls/library/bignum.c:1134
    3910:	97ffff40 	bl	3610 <mbedtls_mpi_add_abs>
    3914:	17fffff3 	b	38e0 <mbedtls_mpi_sub_mpi+0x4c>

0000000000003918 <mbedtls_mpi_add_int>:
mbedtls_mpi_add_int():
/home/zrz0517/study/TEE/RT-TEE/optee_os/lib/libmbedtls/mbedtls/library/bignum.c:1147
    3918:	a9bd7bfd 	stp	x29, x30, [sp, #-48]!
/home/zrz0517/study/TEE/RT-TEE/optee_os/lib/libmbedtls/mbedtls/library/bignum.c:1151
    391c:	7100005f 	cmp	w2, #0x0
    3920:	5a82a443 	cneg	w3, w2, lt  // lt = tstop
/home/zrz0517/study/TEE/RT-TEE/optee_os/lib/libmbedtls/mbedtls/library/bignum.c:1147
    3924:	910003fd 	mov	x29, sp
/home/zrz0517/study/TEE/RT-TEE/optee_os/lib/libmbedtls/mbedtls/library/bignum.c:1151
    3928:	b9001be3 	str	w3, [sp, #24]
/home/zrz0517/study/TEE/RT-TEE/optee_os/lib/libmbedtls/mbedtls/library/bignum.c:1152
    392c:	52800023 	mov	w3, #0x1                   	// #1
    3930:	5a83a462 	cneg	w2, w3, lt  // lt = tstop
    3934:	390083e2 	strb	w2, [sp, #32]
/home/zrz0517/study/TEE/RT-TEE/optee_os/lib/libmbedtls/mbedtls/library/bignum.c:1154
    3938:	910063e2 	add	x2, sp, #0x18
/home/zrz0517/study/TEE/RT-TEE/optee_os/lib/libmbedtls/mbedtls/library/bignum.c:1153
    393c:	79004be3 	strh	w3, [sp, #36]
/home/zrz0517/study/TEE/RT-TEE/optee_os/lib/libmbedtls/mbedtls/library/bignum.c:1154
    3940:	f90017e2 	str	x2, [sp, #40]
/home/zrz0517/study/TEE/RT-TEE/optee_os/lib/libmbedtls/mbedtls/library/bignum.c:1156
    3944:	910083e2 	add	x2, sp, #0x20
    3948:	97ffffb3 	bl	3814 <mbedtls_mpi_add_mpi>
/home/zrz0517/study/TEE/RT-TEE/optee_os/lib/libmbedtls/mbedtls/library/bignum.c:1157
    394c:	a8c37bfd 	ldp	x29, x30, [sp], #48
    3950:	d65f03c0 	ret

0000000000003954 <mbedtls_mpi_sub_int>:
mbedtls_mpi_sub_int():
/home/zrz0517/study/TEE/RT-TEE/optee_os/lib/libmbedtls/mbedtls/library/bignum.c:1163
    3954:	a9bd7bfd 	stp	x29, x30, [sp, #-48]!
/home/zrz0517/study/TEE/RT-TEE/optee_os/lib/libmbedtls/mbedtls/library/bignum.c:1167
    3958:	7100005f 	cmp	w2, #0x0
    395c:	5a82a443 	cneg	w3, w2, lt  // lt = tstop
/home/zrz0517/study/TEE/RT-TEE/optee_os/lib/libmbedtls/mbedtls/library/bignum.c:1163
    3960:	910003fd 	mov	x29, sp
/home/zrz0517/study/TEE/RT-TEE/optee_os/lib/libmbedtls/mbedtls/library/bignum.c:1167
    3964:	b9001be3 	str	w3, [sp, #24]
/home/zrz0517/study/TEE/RT-TEE/optee_os/lib/libmbedtls/mbedtls/library/bignum.c:1168
    3968:	52800023 	mov	w3, #0x1                   	// #1
    396c:	5a83a462 	cneg	w2, w3, lt  // lt = tstop
    3970:	390083e2 	strb	w2, [sp, #32]
/home/zrz0517/study/TEE/RT-TEE/optee_os/lib/libmbedtls/mbedtls/library/bignum.c:1170
    3974:	910063e2 	add	x2, sp, #0x18
/home/zrz0517/study/TEE/RT-TEE/optee_os/lib/libmbedtls/mbedtls/library/bignum.c:1169
    3978:	79004be3 	strh	w3, [sp, #36]
/home/zrz0517/study/TEE/RT-TEE/optee_os/lib/libmbedtls/mbedtls/library/bignum.c:1170
    397c:	f90017e2 	str	x2, [sp, #40]
/home/zrz0517/study/TEE/RT-TEE/optee_os/lib/libmbedtls/mbedtls/library/bignum.c:1172
    3980:	910083e2 	add	x2, sp, #0x20
    3984:	97ffffc4 	bl	3894 <mbedtls_mpi_sub_mpi>
/home/zrz0517/study/TEE/RT-TEE/optee_os/lib/libmbedtls/mbedtls/library/bignum.c:1173
    3988:	a8c37bfd 	ldp	x29, x30, [sp], #48
    398c:	d65f03c0 	ret

0000000000003990 <mbedtls_mpi_mul_mpi>:
mbedtls_mpi_mul_mpi():
/home/zrz0517/study/TEE/RT-TEE/optee_os/lib/libmbedtls/mbedtls/library/bignum.c:1251
    3990:	a9b97bfd 	stp	x29, x30, [sp, #-112]!
    3994:	910003fd 	mov	x29, sp
    3998:	a9046bf9 	stp	x25, x26, [sp, #64]
/home/zrz0517/study/TEE/RT-TEE/optee_os/lib/libmbedtls/mbedtls/library/bignum.c:1256
    399c:	910143f9 	add	x25, sp, #0x50
    39a0:	910183fa 	add	x26, sp, #0x60
/home/zrz0517/study/TEE/RT-TEE/optee_os/lib/libmbedtls/mbedtls/library/bignum.c:1251
    39a4:	a90153f3 	stp	x19, x20, [sp, #16]
    39a8:	a9025bf5 	stp	x21, x22, [sp, #32]
    39ac:	aa0003f5 	mov	x21, x0
    39b0:	aa0203f6 	mov	x22, x2
/home/zrz0517/study/TEE/RT-TEE/optee_os/lib/libmbedtls/mbedtls/library/bignum.c:1256
    39b4:	aa1903e0 	mov	x0, x25
/home/zrz0517/study/TEE/RT-TEE/optee_os/lib/libmbedtls/mbedtls/library/bignum.c:1251
    39b8:	a90363f7 	stp	x23, x24, [sp, #48]
    39bc:	aa0103f7 	mov	x23, x1
/home/zrz0517/study/TEE/RT-TEE/optee_os/lib/libmbedtls/mbedtls/library/bignum.c:1256
    39c0:	97fffbed 	bl	2974 <mbedtls_mpi_init_mempool>
    39c4:	aa1a03e0 	mov	x0, x26
    39c8:	97fffbeb 	bl	2974 <mbedtls_mpi_init_mempool>
/home/zrz0517/study/TEE/RT-TEE/optee_os/lib/libmbedtls/mbedtls/library/bignum.c:1258
    39cc:	eb1702bf 	cmp	x21, x23
    39d0:	540000e1 	b.ne	39ec <mbedtls_mpi_mul_mpi+0x5c>  // b.any
/home/zrz0517/study/TEE/RT-TEE/optee_os/lib/libmbedtls/mbedtls/library/bignum.c:1258 (discriminator 1)
    39d4:	aa1503e1 	mov	x1, x21
    39d8:	aa1903e0 	mov	x0, x25
    39dc:	97fffcba 	bl	2cc4 <mbedtls_mpi_copy>
    39e0:	2a0003f4 	mov	w20, w0
    39e4:	35000400 	cbnz	w0, 3a64 <mbedtls_mpi_mul_mpi+0xd4>
/home/zrz0517/study/TEE/RT-TEE/optee_os/lib/libmbedtls/mbedtls/library/bignum.c:1258
    39e8:	aa1903f7 	mov	x23, x25
/home/zrz0517/study/TEE/RT-TEE/optee_os/lib/libmbedtls/mbedtls/library/bignum.c:1259
    39ec:	eb1602bf 	cmp	x21, x22
    39f0:	540000e1 	b.ne	3a0c <mbedtls_mpi_mul_mpi+0x7c>  // b.any
/home/zrz0517/study/TEE/RT-TEE/optee_os/lib/libmbedtls/mbedtls/library/bignum.c:1259 (discriminator 1)
    39f4:	aa1503e1 	mov	x1, x21
    39f8:	aa1a03e0 	mov	x0, x26
    39fc:	97fffcb2 	bl	2cc4 <mbedtls_mpi_copy>
    3a00:	2a0003f4 	mov	w20, w0
    3a04:	35000300 	cbnz	w0, 3a64 <mbedtls_mpi_mul_mpi+0xd4>
/home/zrz0517/study/TEE/RT-TEE/optee_os/lib/libmbedtls/mbedtls/library/bignum.c:1259
    3a08:	aa1a03f6 	mov	x22, x26
/home/zrz0517/study/TEE/RT-TEE/optee_os/lib/libmbedtls/mbedtls/library/bignum.c:1261
    3a0c:	79400af8 	ldrh	w24, [x23, #4]
/home/zrz0517/study/TEE/RT-TEE/optee_os/lib/libmbedtls/mbedtls/library/bignum.c:1261 (discriminator 1)
    3a10:	b5000418 	cbnz	x24, 3a90 <mbedtls_mpi_mul_mpi+0x100>
/home/zrz0517/study/TEE/RT-TEE/optee_os/lib/libmbedtls/mbedtls/library/bignum.c:1265
    3a14:	79400ad3 	ldrh	w19, [x22, #4]
/home/zrz0517/study/TEE/RT-TEE/optee_os/lib/libmbedtls/mbedtls/library/bignum.c:1265 (discriminator 1)
    3a18:	b5000493 	cbnz	x19, 3aa8 <mbedtls_mpi_mul_mpi+0x118>
/home/zrz0517/study/TEE/RT-TEE/optee_os/lib/libmbedtls/mbedtls/library/bignum.c:1269
    3a1c:	8b130301 	add	x1, x24, x19
    3a20:	aa1503e0 	mov	x0, x21
    3a24:	97fffc0a 	bl	2a4c <mbedtls_mpi_grow>
    3a28:	2a0003f4 	mov	w20, w0
    3a2c:	350001c0 	cbnz	w0, 3a64 <mbedtls_mpi_mul_mpi+0xd4>
/home/zrz0517/study/TEE/RT-TEE/optee_os/lib/libmbedtls/mbedtls/library/bignum.c:1270
    3a30:	52800001 	mov	w1, #0x0                   	// #0
    3a34:	aa1503e0 	mov	x0, x21
    3a38:	97fffd4e 	bl	2f70 <mbedtls_mpi_lset>
    3a3c:	2a0003f4 	mov	w20, w0
    3a40:	35000120 	cbnz	w0, 3a64 <mbedtls_mpi_mul_mpi+0xd4>
    3a44:	d37ef673 	lsl	x19, x19, #2
    3a48:	d1001273 	sub	x19, x19, #0x4
/home/zrz0517/study/TEE/RT-TEE/optee_os/lib/libmbedtls/mbedtls/library/bignum.c:1272 (discriminator 3)
    3a4c:	b100127f 	cmn	x19, #0x4
    3a50:	54000381 	b.ne	3ac0 <mbedtls_mpi_mul_mpi+0x130>  // b.any
/home/zrz0517/study/TEE/RT-TEE/optee_os/lib/libmbedtls/mbedtls/library/bignum.c:1275
    3a54:	394002e0 	ldrb	w0, [x23]
    3a58:	394002c1 	ldrb	w1, [x22]
    3a5c:	1b017c00 	mul	w0, w0, w1
    3a60:	390002a0 	strb	w0, [x21]
/home/zrz0517/study/TEE/RT-TEE/optee_os/lib/libmbedtls/mbedtls/library/bignum.c:1279
    3a64:	aa1a03e0 	mov	x0, x26
    3a68:	97fffbd7 	bl	29c4 <mbedtls_mpi_free>
    3a6c:	aa1903e0 	mov	x0, x25
    3a70:	97fffbd5 	bl	29c4 <mbedtls_mpi_free>
/home/zrz0517/study/TEE/RT-TEE/optee_os/lib/libmbedtls/mbedtls/library/bignum.c:1282
    3a74:	2a1403e0 	mov	w0, w20
    3a78:	a94153f3 	ldp	x19, x20, [sp, #16]
    3a7c:	a9425bf5 	ldp	x21, x22, [sp, #32]
    3a80:	a94363f7 	ldp	x23, x24, [sp, #48]
    3a84:	a9446bf9 	ldp	x25, x26, [sp, #64]
    3a88:	a8c77bfd 	ldp	x29, x30, [sp], #112
    3a8c:	d65f03c0 	ret
/home/zrz0517/study/TEE/RT-TEE/optee_os/lib/libmbedtls/mbedtls/library/bignum.c:1262
    3a90:	f94006e0 	ldr	x0, [x23, #8]
    3a94:	8b180800 	add	x0, x0, x24, lsl #2
    3a98:	b85fc000 	ldur	w0, [x0, #-4]
    3a9c:	35fffbc0 	cbnz	w0, 3a14 <mbedtls_mpi_mul_mpi+0x84>
/home/zrz0517/study/TEE/RT-TEE/optee_os/lib/libmbedtls/mbedtls/library/bignum.c:1261 (discriminator 2)
    3aa0:	d1000718 	sub	x24, x24, #0x1
    3aa4:	17ffffdb 	b	3a10 <mbedtls_mpi_mul_mpi+0x80>
/home/zrz0517/study/TEE/RT-TEE/optee_os/lib/libmbedtls/mbedtls/library/bignum.c:1266
    3aa8:	f94006c0 	ldr	x0, [x22, #8]
    3aac:	8b130800 	add	x0, x0, x19, lsl #2
    3ab0:	b85fc000 	ldur	w0, [x0, #-4]
    3ab4:	35fffb40 	cbnz	w0, 3a1c <mbedtls_mpi_mul_mpi+0x8c>
/home/zrz0517/study/TEE/RT-TEE/optee_os/lib/libmbedtls/mbedtls/library/bignum.c:1265 (discriminator 2)
    3ab8:	d1000673 	sub	x19, x19, #0x1
    3abc:	17ffffd7 	b	3a18 <mbedtls_mpi_mul_mpi+0x88>
/home/zrz0517/study/TEE/RT-TEE/optee_os/lib/libmbedtls/mbedtls/library/bignum.c:1273 (discriminator 3)
    3ac0:	f94006c0 	ldr	x0, [x22, #8]
    3ac4:	f94006e1 	ldr	x1, [x23, #8]
    3ac8:	b8736803 	ldr	w3, [x0, x19]
    3acc:	aa1803e0 	mov	x0, x24
    3ad0:	f94006a2 	ldr	x2, [x21, #8]
    3ad4:	8b130042 	add	x2, x2, x19
    3ad8:	97fffa56 	bl	2430 <mpi_mul_hlp>
    3adc:	17ffffdb 	b	3a48 <mbedtls_mpi_mul_mpi+0xb8>

0000000000003ae0 <mbedtls_mpi_mul_int>:
mbedtls_mpi_mul_int():
/home/zrz0517/study/TEE/RT-TEE/optee_os/lib/libmbedtls/mbedtls/library/bignum.c:1288
    3ae0:	a9bd7bfd 	stp	x29, x30, [sp, #-48]!
/home/zrz0517/study/TEE/RT-TEE/optee_os/lib/libmbedtls/mbedtls/library/bignum.c:1292
    3ae4:	52800023 	mov	w3, #0x1                   	// #1
/home/zrz0517/study/TEE/RT-TEE/optee_os/lib/libmbedtls/mbedtls/library/bignum.c:1288
    3ae8:	910003fd 	mov	x29, sp
/home/zrz0517/study/TEE/RT-TEE/optee_os/lib/libmbedtls/mbedtls/library/bignum.c:1292
    3aec:	390083e3 	strb	w3, [sp, #32]
/home/zrz0517/study/TEE/RT-TEE/optee_os/lib/libmbedtls/mbedtls/library/bignum.c:1293
    3af0:	52800023 	mov	w3, #0x1                   	// #1
    3af4:	79004be3 	strh	w3, [sp, #36]
/home/zrz0517/study/TEE/RT-TEE/optee_os/lib/libmbedtls/mbedtls/library/bignum.c:1294
    3af8:	910063e3 	add	x3, sp, #0x18
/home/zrz0517/study/TEE/RT-TEE/optee_os/lib/libmbedtls/mbedtls/library/bignum.c:1295
    3afc:	b9001be2 	str	w2, [sp, #24]
/home/zrz0517/study/TEE/RT-TEE/optee_os/lib/libmbedtls/mbedtls/library/bignum.c:1297
    3b00:	910083e2 	add	x2, sp, #0x20
/home/zrz0517/study/TEE/RT-TEE/optee_os/lib/libmbedtls/mbedtls/library/bignum.c:1294
    3b04:	f90017e3 	str	x3, [sp, #40]
/home/zrz0517/study/TEE/RT-TEE/optee_os/lib/libmbedtls/mbedtls/library/bignum.c:1297
    3b08:	97ffffa2 	bl	3990 <mbedtls_mpi_mul_mpi>
/home/zrz0517/study/TEE/RT-TEE/optee_os/lib/libmbedtls/mbedtls/library/bignum.c:1298
    3b0c:	a8c37bfd 	ldp	x29, x30, [sp], #48
    3b10:	d65f03c0 	ret

0000000000003b14 <mbedtls_mpi_read_string>:
mbedtls_mpi_read_string():
/home/zrz0517/study/TEE/RT-TEE/optee_os/lib/libmbedtls/mbedtls/library/bignum.c:502
    3b14:	a9b87bfd 	stp	x29, x30, [sp, #-128]!
/home/zrz0517/study/TEE/RT-TEE/optee_os/lib/libmbedtls/mbedtls/library/bignum.c:508
    3b18:	51000823 	sub	w3, w1, #0x2
    3b1c:	7100387f 	cmp	w3, #0xe
/home/zrz0517/study/TEE/RT-TEE/optee_os/lib/libmbedtls/mbedtls/library/bignum.c:502
    3b20:	910003fd 	mov	x29, sp
    3b24:	a90153f3 	stp	x19, x20, [sp, #16]
    3b28:	a9025bf5 	stp	x21, x22, [sp, #32]
    3b2c:	a90363f7 	stp	x23, x24, [sp, #48]
    3b30:	a9046bf9 	stp	x25, x26, [sp, #64]
    3b34:	f9002bfb 	str	x27, [sp, #80]
/home/zrz0517/study/TEE/RT-TEE/optee_os/lib/libmbedtls/mbedtls/library/bignum.c:508
    3b38:	54000149 	b.ls	3b60 <mbedtls_mpi_read_string+0x4c>  // b.plast
/home/zrz0517/study/TEE/RT-TEE/optee_os/lib/libmbedtls/mbedtls/library/bignum.c:509
    3b3c:	12800073 	mov	w19, #0xfffffffc            	// #-4
/home/zrz0517/study/TEE/RT-TEE/optee_os/lib/libmbedtls/mbedtls/library/bignum.c:568
    3b40:	2a1303e0 	mov	w0, w19
    3b44:	a94153f3 	ldp	x19, x20, [sp, #16]
    3b48:	a9425bf5 	ldp	x21, x22, [sp, #32]
    3b4c:	a94363f7 	ldp	x23, x24, [sp, #48]
    3b50:	a9446bf9 	ldp	x25, x26, [sp, #64]
    3b54:	f9402bfb 	ldr	x27, [sp, #80]
    3b58:	a8c87bfd 	ldp	x29, x30, [sp], #128
    3b5c:	d65f03c0 	ret
/home/zrz0517/study/TEE/RT-TEE/optee_os/lib/libmbedtls/mbedtls/library/bignum.c:511
    3b60:	9101c3f8 	add	x24, sp, #0x70
    3b64:	aa0203f6 	mov	x22, x2
    3b68:	2a0103f7 	mov	w23, w1
    3b6c:	aa0003f4 	mov	x20, x0
    3b70:	aa1803e0 	mov	x0, x24
    3b74:	97fffb80 	bl	2974 <mbedtls_mpi_init_mempool>
/home/zrz0517/study/TEE/RT-TEE/optee_os/lib/libmbedtls/mbedtls/library/bignum.c:513
    3b78:	aa1603e0 	mov	x0, x22
    3b7c:	94000d5b 	bl	70e8 <strlen>
/home/zrz0517/study/TEE/RT-TEE/optee_os/lib/libmbedtls/mbedtls/library/bignum.c:515
    3b80:	710042ff 	cmp	w23, #0x10
/home/zrz0517/study/TEE/RT-TEE/optee_os/lib/libmbedtls/mbedtls/library/bignum.c:513
    3b84:	aa0003f5 	mov	x21, x0
/home/zrz0517/study/TEE/RT-TEE/optee_os/lib/libmbedtls/mbedtls/library/bignum.c:515
    3b88:	54000621 	b.ne	3c4c <mbedtls_mpi_read_string+0x138>  // b.any
/home/zrz0517/study/TEE/RT-TEE/optee_os/lib/libmbedtls/mbedtls/library/bignum.c:517
    3b8c:	92f80000 	mov	x0, #0x3fffffffffffffff    	// #4611686018427387903
    3b90:	eb0002bf 	cmp	x21, x0
    3b94:	54fffd48 	b.hi	3b3c <mbedtls_mpi_read_string+0x28>  // b.pmore
/home/zrz0517/study/TEE/RT-TEE/optee_os/lib/libmbedtls/mbedtls/library/bignum.c:520
    3b98:	d37ef6a1 	lsl	x1, x21, #2
/home/zrz0517/study/TEE/RT-TEE/optee_os/lib/libmbedtls/mbedtls/library/bignum.c:522
    3b9c:	aa1403e0 	mov	x0, x20
/home/zrz0517/study/TEE/RT-TEE/optee_os/lib/libmbedtls/mbedtls/library/bignum.c:520
    3ba0:	f27e083f 	tst	x1, #0x1c
    3ba4:	d345fc21 	lsr	x1, x1, #5
/home/zrz0517/study/TEE/RT-TEE/optee_os/lib/libmbedtls/mbedtls/library/bignum.c:522
    3ba8:	9a810421 	cinc	x1, x1, ne  // ne = any
    3bac:	97fffba8 	bl	2a4c <mbedtls_mpi_grow>
    3bb0:	2a0003f3 	mov	w19, w0
    3bb4:	35000240 	cbnz	w0, 3bfc <mbedtls_mpi_read_string+0xe8>
/home/zrz0517/study/TEE/RT-TEE/optee_os/lib/libmbedtls/mbedtls/library/bignum.c:523
    3bb8:	52800001 	mov	w1, #0x0                   	// #0
    3bbc:	aa1403e0 	mov	x0, x20
    3bc0:	97fffcec 	bl	2f70 <mbedtls_mpi_lset>
    3bc4:	2a0003f3 	mov	w19, w0
    3bc8:	350001a0 	cbnz	w0, 3bfc <mbedtls_mpi_read_string+0xe8>
/home/zrz0517/study/TEE/RT-TEE/optee_os/lib/libmbedtls/mbedtls/library/bignum.c:533
    3bcc:	9101b3e6 	add	x6, sp, #0x6c
/home/zrz0517/study/TEE/RT-TEE/optee_os/lib/libmbedtls/mbedtls/library/bignum.c:525
    3bd0:	d2800005 	mov	x5, #0x0                   	// #0
/home/zrz0517/study/TEE/RT-TEE/optee_os/lib/libmbedtls/mbedtls/library/bignum.c:525 (discriminator 1)
    3bd4:	b5000075 	cbnz	x21, 3be0 <mbedtls_mpi_read_string+0xcc>
/home/zrz0517/study/TEE/RT-TEE/optee_os/lib/libmbedtls/mbedtls/library/bignum.c:533
    3bd8:	52800013 	mov	w19, #0x0                   	// #0
    3bdc:	14000008 	b	3bfc <mbedtls_mpi_read_string+0xe8>
/home/zrz0517/study/TEE/RT-TEE/optee_os/lib/libmbedtls/mbedtls/library/bignum.c:527
    3be0:	f10006bf 	cmp	x21, #0x1
    3be4:	54000121 	b.ne	3c08 <mbedtls_mpi_read_string+0xf4>  // b.any
/home/zrz0517/study/TEE/RT-TEE/optee_os/lib/libmbedtls/mbedtls/library/bignum.c:527 (discriminator 1)
    3be8:	394002c0 	ldrb	w0, [x22]
    3bec:	7100b41f 	cmp	w0, #0x2d
    3bf0:	540000c1 	b.ne	3c08 <mbedtls_mpi_read_string+0xf4>  // b.any
/home/zrz0517/study/TEE/RT-TEE/optee_os/lib/libmbedtls/mbedtls/library/bignum.c:529
    3bf4:	12800000 	mov	w0, #0xffffffff            	// #-1
    3bf8:	39000280 	strb	w0, [x20]
/home/zrz0517/study/TEE/RT-TEE/optee_os/lib/libmbedtls/mbedtls/library/bignum.c:565
    3bfc:	aa1803e0 	mov	x0, x24
    3c00:	97fffb71 	bl	29c4 <mbedtls_mpi_free>
/home/zrz0517/study/TEE/RT-TEE/optee_os/lib/libmbedtls/mbedtls/library/bignum.c:567
    3c04:	17ffffcf 	b	3b40 <mbedtls_mpi_read_string+0x2c>
/home/zrz0517/study/TEE/RT-TEE/optee_os/lib/libmbedtls/mbedtls/library/bignum.c:533
    3c08:	d10006b5 	sub	x21, x21, #0x1
    3c0c:	52800201 	mov	w1, #0x10                  	// #16
    3c10:	aa0603e0 	mov	x0, x6
    3c14:	38756ac2 	ldrb	w2, [x22, x21]
    3c18:	97fff9d5 	bl	236c <mpi_get_digit>
    3c1c:	350006a0 	cbnz	w0, 3cf0 <mbedtls_mpi_read_string+0x1dc>
/home/zrz0517/study/TEE/RT-TEE/optee_os/lib/libmbedtls/mbedtls/library/bignum.c:534 (discriminator 2)
    3c20:	d343fca0 	lsr	x0, x5, #3
    3c24:	b9406fe1 	ldr	w1, [sp, #108]
    3c28:	f9400683 	ldr	x3, [x20, #8]
    3c2c:	d37ef400 	lsl	x0, x0, #2
    3c30:	531e08a2 	ubfiz	w2, w5, #2, #3
/home/zrz0517/study/TEE/RT-TEE/optee_os/lib/libmbedtls/mbedtls/library/bignum.c:525 (discriminator 2)
    3c34:	910004a5 	add	x5, x5, #0x1
/home/zrz0517/study/TEE/RT-TEE/optee_os/lib/libmbedtls/mbedtls/library/bignum.c:534 (discriminator 2)
    3c38:	1ac22022 	lsl	w2, w1, w2
    3c3c:	b8606861 	ldr	w1, [x3, x0]
    3c40:	2a020021 	orr	w1, w1, w2
    3c44:	b8206861 	str	w1, [x3, x0]
    3c48:	17ffffe3 	b	3bd4 <mbedtls_mpi_read_string+0xc0>
/home/zrz0517/study/TEE/RT-TEE/optee_os/lib/libmbedtls/mbedtls/library/bignum.c:539
    3c4c:	52800001 	mov	w1, #0x0                   	// #0
    3c50:	aa1403e0 	mov	x0, x20
    3c54:	97fffcc7 	bl	2f70 <mbedtls_mpi_lset>
    3c58:	2a0003f3 	mov	w19, w0
    3c5c:	35fffd00 	cbnz	w0, 3bfc <mbedtls_mpi_read_string+0xe8>
/home/zrz0517/study/TEE/RT-TEE/optee_os/lib/libmbedtls/mbedtls/library/bignum.c:549
    3c60:	9101b3fa 	add	x26, sp, #0x6c
/home/zrz0517/study/TEE/RT-TEE/optee_os/lib/libmbedtls/mbedtls/library/bignum.c:541
    3c64:	d2800019 	mov	x25, #0x0                   	// #0
/home/zrz0517/study/TEE/RT-TEE/optee_os/lib/libmbedtls/mbedtls/library/bignum.c:545
    3c68:	1280001b 	mov	w27, #0xffffffff            	// #-1
/home/zrz0517/study/TEE/RT-TEE/optee_os/lib/libmbedtls/mbedtls/library/bignum.c:541 (discriminator 1)
    3c6c:	eb15033f 	cmp	x25, x21
    3c70:	54fffb40 	b.eq	3bd8 <mbedtls_mpi_read_string+0xc4>  // b.none
/home/zrz0517/study/TEE/RT-TEE/optee_os/lib/libmbedtls/mbedtls/library/bignum.c:543
    3c74:	b50000f9 	cbnz	x25, 3c90 <mbedtls_mpi_read_string+0x17c>
/home/zrz0517/study/TEE/RT-TEE/optee_os/lib/libmbedtls/mbedtls/library/bignum.c:543 (discriminator 1)
    3c78:	394002c0 	ldrb	w0, [x22]
    3c7c:	7100b41f 	cmp	w0, #0x2d
    3c80:	54000081 	b.ne	3c90 <mbedtls_mpi_read_string+0x17c>  // b.any
/home/zrz0517/study/TEE/RT-TEE/optee_os/lib/libmbedtls/mbedtls/library/bignum.c:545
    3c84:	3900029b 	strb	w27, [x20]
/home/zrz0517/study/TEE/RT-TEE/optee_os/lib/libmbedtls/mbedtls/library/bignum.c:541 (discriminator 2)
    3c88:	91000739 	add	x25, x25, #0x1
    3c8c:	17fffff8 	b	3c6c <mbedtls_mpi_read_string+0x158>
/home/zrz0517/study/TEE/RT-TEE/optee_os/lib/libmbedtls/mbedtls/library/bignum.c:549
    3c90:	38796ac2 	ldrb	w2, [x22, x25]
    3c94:	2a1703e1 	mov	w1, w23
    3c98:	aa1a03e0 	mov	x0, x26
    3c9c:	97fff9b4 	bl	236c <mpi_get_digit>
    3ca0:	2a0003f3 	mov	w19, w0
    3ca4:	35fffac0 	cbnz	w0, 3bfc <mbedtls_mpi_read_string+0xe8>
/home/zrz0517/study/TEE/RT-TEE/optee_os/lib/libmbedtls/mbedtls/library/bignum.c:550
    3ca8:	2a1703e2 	mov	w2, w23
    3cac:	aa1403e1 	mov	x1, x20
    3cb0:	aa1803e0 	mov	x0, x24
    3cb4:	97ffff8b 	bl	3ae0 <mbedtls_mpi_mul_int>
    3cb8:	2a0003f3 	mov	w19, w0
    3cbc:	35fffa00 	cbnz	w0, 3bfc <mbedtls_mpi_read_string+0xe8>
/home/zrz0517/study/TEE/RT-TEE/optee_os/lib/libmbedtls/mbedtls/library/bignum.c:552
    3cc0:	39c00280 	ldrsb	w0, [x20]
/home/zrz0517/study/TEE/RT-TEE/optee_os/lib/libmbedtls/mbedtls/library/bignum.c:554
    3cc4:	aa1803e1 	mov	x1, x24
    3cc8:	b9406fe2 	ldr	w2, [sp, #108]
/home/zrz0517/study/TEE/RT-TEE/optee_os/lib/libmbedtls/mbedtls/library/bignum.c:552
    3ccc:	7100041f 	cmp	w0, #0x1
/home/zrz0517/study/TEE/RT-TEE/optee_os/lib/libmbedtls/mbedtls/library/bignum.c:554
    3cd0:	aa1403e0 	mov	x0, x20
/home/zrz0517/study/TEE/RT-TEE/optee_os/lib/libmbedtls/mbedtls/library/bignum.c:552
    3cd4:	540000a1 	b.ne	3ce8 <mbedtls_mpi_read_string+0x1d4>  // b.any
/home/zrz0517/study/TEE/RT-TEE/optee_os/lib/libmbedtls/mbedtls/library/bignum.c:554
    3cd8:	97ffff10 	bl	3918 <mbedtls_mpi_add_int>
/home/zrz0517/study/TEE/RT-TEE/optee_os/lib/libmbedtls/mbedtls/library/bignum.c:558
    3cdc:	2a0003f3 	mov	w19, w0
    3ce0:	34fffd40 	cbz	w0, 3c88 <mbedtls_mpi_read_string+0x174>
    3ce4:	17ffffc6 	b	3bfc <mbedtls_mpi_read_string+0xe8>
    3ce8:	97ffff1b 	bl	3954 <mbedtls_mpi_sub_int>
    3cec:	17fffffc 	b	3cdc <mbedtls_mpi_read_string+0x1c8>
/home/zrz0517/study/TEE/RT-TEE/optee_os/lib/libmbedtls/mbedtls/library/bignum.c:533
    3cf0:	2a0003f3 	mov	w19, w0
    3cf4:	17ffffc2 	b	3bfc <mbedtls_mpi_read_string+0xe8>

0000000000003cf8 <mbedtls_mpi_div_mpi>:
mbedtls_mpi_div_mpi():
/home/zrz0517/study/TEE/RT-TEE/optee_os/lib/libmbedtls/mbedtls/library/bignum.c:1400
    3cf8:	a9b17bfd 	stp	x29, x30, [sp, #-240]!
    3cfc:	910003fd 	mov	x29, sp
    3d00:	a90153f3 	stp	x19, x20, [sp, #16]
    3d04:	a9025bf5 	stp	x21, x22, [sp, #32]
    3d08:	a90363f7 	stp	x23, x24, [sp, #48]
    3d0c:	aa0103f7 	mov	x23, x1
    3d10:	aa0203f8 	mov	x24, x2
/home/zrz0517/study/TEE/RT-TEE/optee_os/lib/libmbedtls/mbedtls/library/bignum.c:1405
    3d14:	52800001 	mov	w1, #0x0                   	// #0
/home/zrz0517/study/TEE/RT-TEE/optee_os/lib/libmbedtls/mbedtls/library/bignum.c:1400
    3d18:	a9046bf9 	stp	x25, x26, [sp, #64]
    3d1c:	a90573fb 	stp	x27, x28, [sp, #80]
    3d20:	aa0003fc 	mov	x28, x0
/home/zrz0517/study/TEE/RT-TEE/optee_os/lib/libmbedtls/mbedtls/library/bignum.c:1405
    3d24:	aa0303e0 	mov	x0, x3
/home/zrz0517/study/TEE/RT-TEE/optee_os/lib/libmbedtls/mbedtls/library/bignum.c:1400
    3d28:	f90043e3 	str	x3, [sp, #128]
/home/zrz0517/study/TEE/RT-TEE/optee_os/lib/libmbedtls/mbedtls/library/bignum.c:1405
    3d2c:	97fffe2a 	bl	35d4 <mbedtls_mpi_cmp_int>
    3d30:	340027a0 	cbz	w0, 4224 <mbedtls_mpi_div_mpi+0x52c>
/home/zrz0517/study/TEE/RT-TEE/optee_os/lib/libmbedtls/mbedtls/library/bignum.c:1408
    3d34:	910283f4 	add	x20, sp, #0xa0
    3d38:	9102c3f6 	add	x22, sp, #0xb0
    3d3c:	aa1403e0 	mov	x0, x20
    3d40:	97fffb0d 	bl	2974 <mbedtls_mpi_init_mempool>
    3d44:	aa1603e0 	mov	x0, x22
/home/zrz0517/study/TEE/RT-TEE/optee_os/lib/libmbedtls/mbedtls/library/bignum.c:1409
    3d48:	910303fb 	add	x27, sp, #0xc0
/home/zrz0517/study/TEE/RT-TEE/optee_os/lib/libmbedtls/mbedtls/library/bignum.c:1408
    3d4c:	97fffb0a 	bl	2974 <mbedtls_mpi_init_mempool>
/home/zrz0517/study/TEE/RT-TEE/optee_os/lib/libmbedtls/mbedtls/library/bignum.c:1409
    3d50:	910343f5 	add	x21, sp, #0xd0
    3d54:	aa1b03e0 	mov	x0, x27
    3d58:	97fffb07 	bl	2974 <mbedtls_mpi_init_mempool>
    3d5c:	aa1503e0 	mov	x0, x21
    3d60:	97fffb05 	bl	2974 <mbedtls_mpi_init_mempool>
/home/zrz0517/study/TEE/RT-TEE/optee_os/lib/libmbedtls/mbedtls/library/bignum.c:1410
    3d64:	910383e0 	add	x0, sp, #0xe0
    3d68:	f9003be0 	str	x0, [sp, #112]
    3d6c:	97fffb02 	bl	2974 <mbedtls_mpi_init_mempool>
/home/zrz0517/study/TEE/RT-TEE/optee_os/lib/libmbedtls/mbedtls/library/bignum.c:1412
    3d70:	f94043e1 	ldr	x1, [sp, #128]
    3d74:	aa1803e0 	mov	x0, x24
    3d78:	97fffdbb 	bl	3464 <mbedtls_mpi_cmp_abs>
    3d7c:	36f80440 	tbz	w0, #31, 3e04 <mbedtls_mpi_div_mpi+0x10c>
/home/zrz0517/study/TEE/RT-TEE/optee_os/lib/libmbedtls/mbedtls/library/bignum.c:1414
    3d80:	b500017c 	cbnz	x28, 3dac <mbedtls_mpi_div_mpi+0xb4>
/home/zrz0517/study/TEE/RT-TEE/optee_os/lib/libmbedtls/mbedtls/library/bignum.c:1415
    3d84:	b5000357 	cbnz	x23, 3dec <mbedtls_mpi_div_mpi+0xf4>
/home/zrz0517/study/TEE/RT-TEE/optee_os/lib/libmbedtls/mbedtls/library/bignum.c:1416
    3d88:	5280001a 	mov	w26, #0x0                   	// #0
/home/zrz0517/study/TEE/RT-TEE/optee_os/lib/libmbedtls/mbedtls/library/bignum.c:1510
    3d8c:	2a1a03e0 	mov	w0, w26
    3d90:	a94153f3 	ldp	x19, x20, [sp, #16]
    3d94:	a9425bf5 	ldp	x21, x22, [sp, #32]
    3d98:	a94363f7 	ldp	x23, x24, [sp, #48]
    3d9c:	a9446bf9 	ldp	x25, x26, [sp, #64]
    3da0:	a94573fb 	ldp	x27, x28, [sp, #80]
    3da4:	a8cf7bfd 	ldp	x29, x30, [sp], #240
    3da8:	d65f03c0 	ret
/home/zrz0517/study/TEE/RT-TEE/optee_os/lib/libmbedtls/mbedtls/library/bignum.c:1414 (discriminator 1)
    3dac:	52800001 	mov	w1, #0x0                   	// #0
    3db0:	aa1c03e0 	mov	x0, x28
    3db4:	97fffc6f 	bl	2f70 <mbedtls_mpi_lset>
    3db8:	2a0003fa 	mov	w26, w0
    3dbc:	34fffe40 	cbz	w0, 3d84 <mbedtls_mpi_div_mpi+0x8c>
/home/zrz0517/study/TEE/RT-TEE/optee_os/lib/libmbedtls/mbedtls/library/bignum.c:1506
    3dc0:	aa1403e0 	mov	x0, x20
    3dc4:	97fffb00 	bl	29c4 <mbedtls_mpi_free>
    3dc8:	aa1603e0 	mov	x0, x22
    3dcc:	97fffafe 	bl	29c4 <mbedtls_mpi_free>
    3dd0:	aa1b03e0 	mov	x0, x27
    3dd4:	97fffafc 	bl	29c4 <mbedtls_mpi_free>
/home/zrz0517/study/TEE/RT-TEE/optee_os/lib/libmbedtls/mbedtls/library/bignum.c:1507
    3dd8:	aa1503e0 	mov	x0, x21
    3ddc:	97fffafa 	bl	29c4 <mbedtls_mpi_free>
    3de0:	f9403be0 	ldr	x0, [sp, #112]
    3de4:	97fffaf8 	bl	29c4 <mbedtls_mpi_free>
/home/zrz0517/study/TEE/RT-TEE/optee_os/lib/libmbedtls/mbedtls/library/bignum.c:1509
    3de8:	17ffffe9 	b	3d8c <mbedtls_mpi_div_mpi+0x94>
/home/zrz0517/study/TEE/RT-TEE/optee_os/lib/libmbedtls/mbedtls/library/bignum.c:1415 (discriminator 1)
    3dec:	aa1803e1 	mov	x1, x24
    3df0:	aa1703e0 	mov	x0, x23
    3df4:	97fffbb4 	bl	2cc4 <mbedtls_mpi_copy>
    3df8:	2a0003fa 	mov	w26, w0
    3dfc:	35fffe20 	cbnz	w0, 3dc0 <mbedtls_mpi_div_mpi+0xc8>
    3e00:	17ffffe2 	b	3d88 <mbedtls_mpi_div_mpi+0x90>
/home/zrz0517/study/TEE/RT-TEE/optee_os/lib/libmbedtls/mbedtls/library/bignum.c:1419
    3e04:	aa1803e1 	mov	x1, x24
    3e08:	aa1403e0 	mov	x0, x20
    3e0c:	97fffbae 	bl	2cc4 <mbedtls_mpi_copy>
    3e10:	2a0003fa 	mov	w26, w0
    3e14:	35fffd60 	cbnz	w0, 3dc0 <mbedtls_mpi_div_mpi+0xc8>
/home/zrz0517/study/TEE/RT-TEE/optee_os/lib/libmbedtls/mbedtls/library/bignum.c:1420
    3e18:	f94043e1 	ldr	x1, [sp, #128]
    3e1c:	aa1603e0 	mov	x0, x22
    3e20:	97fffba9 	bl	2cc4 <mbedtls_mpi_copy>
    3e24:	2a0003fa 	mov	w26, w0
    3e28:	35fffcc0 	cbnz	w0, 3dc0 <mbedtls_mpi_div_mpi+0xc8>
/home/zrz0517/study/TEE/RT-TEE/optee_os/lib/libmbedtls/mbedtls/library/bignum.c:1423
    3e2c:	79400b01 	ldrh	w1, [x24, #4]
/home/zrz0517/study/TEE/RT-TEE/optee_os/lib/libmbedtls/mbedtls/library/bignum.c:1421
    3e30:	52800020 	mov	w0, #0x1                   	// #1
    3e34:	390283e0 	strb	w0, [sp, #160]
/home/zrz0517/study/TEE/RT-TEE/optee_os/lib/libmbedtls/mbedtls/library/bignum.c:1423
    3e38:	91000821 	add	x1, x1, #0x2
/home/zrz0517/study/TEE/RT-TEE/optee_os/lib/libmbedtls/mbedtls/library/bignum.c:1421
    3e3c:	3902c3e0 	strb	w0, [sp, #176]
/home/zrz0517/study/TEE/RT-TEE/optee_os/lib/libmbedtls/mbedtls/library/bignum.c:1423
    3e40:	aa1b03e0 	mov	x0, x27
    3e44:	97fffb02 	bl	2a4c <mbedtls_mpi_grow>
    3e48:	2a0003fa 	mov	w26, w0
    3e4c:	35fffba0 	cbnz	w0, 3dc0 <mbedtls_mpi_div_mpi+0xc8>
/home/zrz0517/study/TEE/RT-TEE/optee_os/lib/libmbedtls/mbedtls/library/bignum.c:1424
    3e50:	52800001 	mov	w1, #0x0                   	// #0
    3e54:	aa1b03e0 	mov	x0, x27
    3e58:	97fffc46 	bl	2f70 <mbedtls_mpi_lset>
    3e5c:	2a0003fa 	mov	w26, w0
    3e60:	35fffb00 	cbnz	w0, 3dc0 <mbedtls_mpi_div_mpi+0xc8>
/home/zrz0517/study/TEE/RT-TEE/optee_os/lib/libmbedtls/mbedtls/library/bignum.c:1425
    3e64:	d2800041 	mov	x1, #0x2                   	// #2
    3e68:	aa1503e0 	mov	x0, x21
    3e6c:	97fffaf8 	bl	2a4c <mbedtls_mpi_grow>
    3e70:	2a0003fa 	mov	w26, w0
    3e74:	35fffa60 	cbnz	w0, 3dc0 <mbedtls_mpi_div_mpi+0xc8>
/home/zrz0517/study/TEE/RT-TEE/optee_os/lib/libmbedtls/mbedtls/library/bignum.c:1426
    3e78:	f9403be0 	ldr	x0, [sp, #112]
    3e7c:	d2800061 	mov	x1, #0x3                   	// #3
    3e80:	97fffaf3 	bl	2a4c <mbedtls_mpi_grow>
    3e84:	2a0003fa 	mov	w26, w0
    3e88:	35fff9c0 	cbnz	w0, 3dc0 <mbedtls_mpi_div_mpi+0xc8>
/home/zrz0517/study/TEE/RT-TEE/optee_os/lib/libmbedtls/mbedtls/library/bignum.c:1428
    3e8c:	aa1603e0 	mov	x0, x22
    3e90:	97fffc96 	bl	30e8 <mbedtls_mpi_bitlen>
    3e94:	92401000 	and	x0, x0, #0x1f
/home/zrz0517/study/TEE/RT-TEE/optee_os/lib/libmbedtls/mbedtls/library/bignum.c:1429
    3e98:	f1007c1f 	cmp	x0, #0x1f
    3e9c:	54000a40 	b.eq	3fe4 <mbedtls_mpi_div_mpi+0x2ec>  // b.none
/home/zrz0517/study/TEE/RT-TEE/optee_os/lib/libmbedtls/mbedtls/library/bignum.c:1431
    3ea0:	d28003e1 	mov	x1, #0x1f                  	// #31
    3ea4:	cb000020 	sub	x0, x1, x0
/home/zrz0517/study/TEE/RT-TEE/optee_os/lib/libmbedtls/mbedtls/library/bignum.c:1432
    3ea8:	aa0003e1 	mov	x1, x0
/home/zrz0517/study/TEE/RT-TEE/optee_os/lib/libmbedtls/mbedtls/library/bignum.c:1431
    3eac:	f9003fe0 	str	x0, [sp, #120]
/home/zrz0517/study/TEE/RT-TEE/optee_os/lib/libmbedtls/mbedtls/library/bignum.c:1432
    3eb0:	aa1403e0 	mov	x0, x20
    3eb4:	97fffcfb 	bl	32a0 <mbedtls_mpi_shift_l>
    3eb8:	2a0003fa 	mov	w26, w0
    3ebc:	35fff820 	cbnz	w0, 3dc0 <mbedtls_mpi_div_mpi+0xc8>
/home/zrz0517/study/TEE/RT-TEE/optee_os/lib/libmbedtls/mbedtls/library/bignum.c:1433
    3ec0:	f9403fe1 	ldr	x1, [sp, #120]
    3ec4:	aa1603e0 	mov	x0, x22
    3ec8:	97fffcf6 	bl	32a0 <mbedtls_mpi_shift_l>
    3ecc:	2a0003fa 	mov	w26, w0
    3ed0:	35fff780 	cbnz	w0, 3dc0 <mbedtls_mpi_div_mpi+0xc8>
/home/zrz0517/study/TEE/RT-TEE/optee_os/lib/libmbedtls/mbedtls/library/bignum.c:1437
    3ed4:	79414be0 	ldrh	w0, [sp, #164]
    3ed8:	b9006be0 	str	w0, [sp, #104]
/home/zrz0517/study/TEE/RT-TEE/optee_os/lib/libmbedtls/mbedtls/library/bignum.c:1438
    3edc:	79416be0 	ldrh	w0, [sp, #180]
    3ee0:	b9008be0 	str	w0, [sp, #136]
/home/zrz0517/study/TEE/RT-TEE/optee_os/lib/libmbedtls/mbedtls/library/bignum.c:1439
    3ee4:	7940d3f3 	ldrh	w19, [sp, #104]
    3ee8:	794113e0 	ldrh	w0, [sp, #136]
    3eec:	cb202273 	sub	x19, x19, w0, uxth
    3ef0:	aa1603e0 	mov	x0, x22
    3ef4:	d37bea79 	lsl	x25, x19, #5
    3ef8:	aa1903e1 	mov	x1, x25
    3efc:	97fffce9 	bl	32a0 <mbedtls_mpi_shift_l>
    3f00:	2a0003fa 	mov	w26, w0
    3f04:	35fff5e0 	cbnz	w0, 3dc0 <mbedtls_mpi_div_mpi+0xc8>
/home/zrz0517/study/TEE/RT-TEE/optee_os/lib/libmbedtls/mbedtls/library/bignum.c:1443
    3f08:	d37ef673 	lsl	x19, x19, #2
/home/zrz0517/study/TEE/RT-TEE/optee_os/lib/libmbedtls/mbedtls/library/bignum.c:1441
    3f0c:	aa1603e1 	mov	x1, x22
    3f10:	aa1403e0 	mov	x0, x20
    3f14:	97fffd7b 	bl	3500 <mbedtls_mpi_cmp_mpi>
    3f18:	36f806a0 	tbz	w0, #31, 3fec <mbedtls_mpi_div_mpi+0x2f4>
/home/zrz0517/study/TEE/RT-TEE/optee_os/lib/libmbedtls/mbedtls/library/bignum.c:1446
    3f1c:	aa1903e1 	mov	x1, x25
    3f20:	aa1603e0 	mov	x0, x22
    3f24:	97fffd1e 	bl	339c <mbedtls_mpi_shift_r>
    3f28:	2a0003fa 	mov	w26, w0
    3f2c:	35fff4a0 	cbnz	w0, 3dc0 <mbedtls_mpi_div_mpi+0xc8>
/home/zrz0517/study/TEE/RT-TEE/optee_os/lib/libmbedtls/mbedtls/library/bignum.c:1438
    3f30:	b9408be1 	ldr	w1, [sp, #136]
    3f34:	d1001273 	sub	x19, x19, #0x4
/home/zrz0517/study/TEE/RT-TEE/optee_os/lib/libmbedtls/mbedtls/library/bignum.c:1437
    3f38:	b9406be0 	ldr	w0, [sp, #104]
/home/zrz0517/study/TEE/RT-TEE/optee_os/lib/libmbedtls/mbedtls/library/bignum.c:1438
    3f3c:	51000421 	sub	w1, w1, #0x1
/home/zrz0517/study/TEE/RT-TEE/optee_os/lib/libmbedtls/mbedtls/library/bignum.c:1437
    3f40:	51000400 	sub	w0, w0, #0x1
/home/zrz0517/study/TEE/RT-TEE/optee_os/lib/libmbedtls/mbedtls/library/bignum.c:1438
    3f44:	93407c21 	sxtw	x1, w1
    3f48:	f9004be1 	str	x1, [sp, #144]
/home/zrz0517/study/TEE/RT-TEE/optee_os/lib/libmbedtls/mbedtls/library/bignum.c:1437
    3f4c:	93407c19 	sxtw	x25, w0
/home/zrz0517/study/TEE/RT-TEE/optee_os/lib/libmbedtls/mbedtls/library/bignum.c:1450
    3f50:	d37ef421 	lsl	x1, x1, #2
    3f54:	f90047e1 	str	x1, [sp, #136]
    3f58:	928000e1 	mov	x1, #0xfffffffffffffff8    	// #-8
    3f5c:	8b20c820 	add	x0, x1, w0, sxtw #2
    3f60:	f90037e0 	str	x0, [sp, #104]
/home/zrz0517/study/TEE/RT-TEE/optee_os/lib/libmbedtls/mbedtls/library/bignum.c:1448 (discriminator 2)
    3f64:	f9404be0 	ldr	x0, [sp, #144]
    3f68:	eb00033f 	cmp	x25, x0
    3f6c:	54000568 	b.hi	4018 <mbedtls_mpi_div_mpi+0x320>  // b.pmore
/home/zrz0517/study/TEE/RT-TEE/optee_os/lib/libmbedtls/mbedtls/library/bignum.c:1488
    3f70:	b400015c 	cbz	x28, 3f98 <mbedtls_mpi_div_mpi+0x2a0>
/home/zrz0517/study/TEE/RT-TEE/optee_os/lib/libmbedtls/mbedtls/library/bignum.c:1490
    3f74:	aa1b03e1 	mov	x1, x27
    3f78:	aa1c03e0 	mov	x0, x28
    3f7c:	97fffb52 	bl	2cc4 <mbedtls_mpi_copy>
    3f80:	350014e0 	cbnz	w0, 421c <mbedtls_mpi_div_mpi+0x524>
/home/zrz0517/study/TEE/RT-TEE/optee_os/lib/libmbedtls/mbedtls/library/bignum.c:1491
    3f84:	f94043e1 	ldr	x1, [sp, #128]
    3f88:	39400300 	ldrb	w0, [x24]
    3f8c:	39400021 	ldrb	w1, [x1]
    3f90:	1b017c00 	mul	w0, w0, w1
    3f94:	39000380 	strb	w0, [x28]
/home/zrz0517/study/TEE/RT-TEE/optee_os/lib/libmbedtls/mbedtls/library/bignum.c:1494
    3f98:	b4fff157 	cbz	x23, 3dc0 <mbedtls_mpi_div_mpi+0xc8>
/home/zrz0517/study/TEE/RT-TEE/optee_os/lib/libmbedtls/mbedtls/library/bignum.c:1496
    3f9c:	f9403fe1 	ldr	x1, [sp, #120]
    3fa0:	aa1403e0 	mov	x0, x20
    3fa4:	97fffcfe 	bl	339c <mbedtls_mpi_shift_r>
    3fa8:	350013a0 	cbnz	w0, 421c <mbedtls_mpi_div_mpi+0x524>
/home/zrz0517/study/TEE/RT-TEE/optee_os/lib/libmbedtls/mbedtls/library/bignum.c:1497
    3fac:	39400300 	ldrb	w0, [x24]
/home/zrz0517/study/TEE/RT-TEE/optee_os/lib/libmbedtls/mbedtls/library/bignum.c:1498
    3fb0:	aa1403e1 	mov	x1, x20
/home/zrz0517/study/TEE/RT-TEE/optee_os/lib/libmbedtls/mbedtls/library/bignum.c:1497
    3fb4:	390283e0 	strb	w0, [sp, #160]
/home/zrz0517/study/TEE/RT-TEE/optee_os/lib/libmbedtls/mbedtls/library/bignum.c:1498
    3fb8:	aa1703e0 	mov	x0, x23
    3fbc:	97fffb42 	bl	2cc4 <mbedtls_mpi_copy>
    3fc0:	350012e0 	cbnz	w0, 421c <mbedtls_mpi_div_mpi+0x524>
/home/zrz0517/study/TEE/RT-TEE/optee_os/lib/libmbedtls/mbedtls/library/bignum.c:1500
    3fc4:	52800001 	mov	w1, #0x0                   	// #0
    3fc8:	aa1703e0 	mov	x0, x23
    3fcc:	97fffd82 	bl	35d4 <mbedtls_mpi_cmp_int>
    3fd0:	35ffef80 	cbnz	w0, 3dc0 <mbedtls_mpi_div_mpi+0xc8>
/home/zrz0517/study/TEE/RT-TEE/optee_os/lib/libmbedtls/mbedtls/library/bignum.c:1501
    3fd4:	52800020 	mov	w0, #0x1                   	// #1
/home/zrz0517/study/TEE/RT-TEE/optee_os/lib/libmbedtls/mbedtls/library/bignum.c:1498
    3fd8:	5280001a 	mov	w26, #0x0                   	// #0
/home/zrz0517/study/TEE/RT-TEE/optee_os/lib/libmbedtls/mbedtls/library/bignum.c:1501
    3fdc:	390002e0 	strb	w0, [x23]
    3fe0:	17ffff78 	b	3dc0 <mbedtls_mpi_div_mpi+0xc8>
/home/zrz0517/study/TEE/RT-TEE/optee_os/lib/libmbedtls/mbedtls/library/bignum.c:1435
    3fe4:	f9003fff 	str	xzr, [sp, #120]
    3fe8:	17ffffbb 	b	3ed4 <mbedtls_mpi_div_mpi+0x1dc>
/home/zrz0517/study/TEE/RT-TEE/optee_os/lib/libmbedtls/mbedtls/library/bignum.c:1443
    3fec:	f94067e1 	ldr	x1, [sp, #200]
/home/zrz0517/study/TEE/RT-TEE/optee_os/lib/libmbedtls/mbedtls/library/bignum.c:1444
    3ff0:	aa1603e2 	mov	x2, x22
/home/zrz0517/study/TEE/RT-TEE/optee_os/lib/libmbedtls/mbedtls/library/bignum.c:1443
    3ff4:	b8736820 	ldr	w0, [x1, x19]
    3ff8:	11000400 	add	w0, w0, #0x1
    3ffc:	b8336820 	str	w0, [x1, x19]
/home/zrz0517/study/TEE/RT-TEE/optee_os/lib/libmbedtls/mbedtls/library/bignum.c:1444
    4000:	aa1403e1 	mov	x1, x20
    4004:	aa1403e0 	mov	x0, x20
    4008:	97fffe23 	bl	3894 <mbedtls_mpi_sub_mpi>
    400c:	2a0003fa 	mov	w26, w0
    4010:	34fff7e0 	cbz	w0, 3f0c <mbedtls_mpi_div_mpi+0x214>
    4014:	17ffff6b 	b	3dc0 <mbedtls_mpi_div_mpi+0xc8>
/home/zrz0517/study/TEE/RT-TEE/optee_os/lib/libmbedtls/mbedtls/library/bignum.c:1450
    4018:	f94047e3 	ldr	x3, [sp, #136]
    401c:	d37ef721 	lsl	x1, x25, #2
    4020:	f94057e0 	ldr	x0, [sp, #168]
    4024:	f9004fe1 	str	x1, [sp, #152]
    4028:	f9405fe2 	ldr	x2, [sp, #184]
    402c:	f94067e5 	ldr	x5, [sp, #200]
    4030:	b8636842 	ldr	w2, [x2, x3]
    4034:	b8616801 	ldr	w1, [x0, x1]
    4038:	8b1300a4 	add	x4, x5, x19
    403c:	6b02003f 	cmp	w1, w2
    4040:	54000c43 	b.cc	41c8 <mbedtls_mpi_div_mpi+0x4d0>  // b.lo, b.ul, b.last
/home/zrz0517/study/TEE/RT-TEE/optee_os/lib/libmbedtls/mbedtls/library/bignum.c:1451
    4044:	12800000 	mov	w0, #0xffffffff            	// #-1
    4048:	b83368a0 	str	w0, [x5, x19]
/home/zrz0517/study/TEE/RT-TEE/optee_os/lib/libmbedtls/mbedtls/library/bignum.c:1458
    404c:	b9400080 	ldr	w0, [x4]
    4050:	11000400 	add	w0, w0, #0x1
    4054:	b9000080 	str	w0, [x4]
/home/zrz0517/study/TEE/RT-TEE/optee_os/lib/libmbedtls/mbedtls/library/bignum.c:1461
    4058:	f94067e1 	ldr	x1, [sp, #200]
    405c:	b8736820 	ldr	w0, [x1, x19]
    4060:	51000400 	sub	w0, w0, #0x1
    4064:	b8336820 	str	w0, [x1, x19]
/home/zrz0517/study/TEE/RT-TEE/optee_os/lib/libmbedtls/mbedtls/library/bignum.c:1463
    4068:	52800001 	mov	w1, #0x0                   	// #0
    406c:	aa1503e0 	mov	x0, x21
    4070:	97fffbc0 	bl	2f70 <mbedtls_mpi_lset>
    4074:	35000d40 	cbnz	w0, 421c <mbedtls_mpi_div_mpi+0x524>
/home/zrz0517/study/TEE/RT-TEE/optee_os/lib/libmbedtls/mbedtls/library/bignum.c:1464
    4078:	f9404be0 	ldr	x0, [sp, #144]
    407c:	f9405fe1 	ldr	x1, [sp, #184]
    4080:	b4000c20 	cbz	x0, 4204 <mbedtls_mpi_div_mpi+0x50c>
/home/zrz0517/study/TEE/RT-TEE/optee_os/lib/libmbedtls/mbedtls/library/bignum.c:1464 (discriminator 1)
    4084:	f94047e0 	ldr	x0, [sp, #136]
    4088:	8b000020 	add	x0, x1, x0
    408c:	b85fc002 	ldur	w2, [x0, #-4]
/home/zrz0517/study/TEE/RT-TEE/optee_os/lib/libmbedtls/mbedtls/library/bignum.c:1464 (discriminator 4)
    4090:	f9406fe0 	ldr	x0, [sp, #216]
    4094:	b9000002 	str	w2, [x0]
/home/zrz0517/study/TEE/RT-TEE/optee_os/lib/libmbedtls/mbedtls/library/bignum.c:1465 (discriminator 4)
    4098:	f94047e2 	ldr	x2, [sp, #136]
    409c:	b8626821 	ldr	w1, [x1, x2]
    40a0:	b9000401 	str	w1, [x0, #4]
/home/zrz0517/study/TEE/RT-TEE/optee_os/lib/libmbedtls/mbedtls/library/bignum.c:1466 (discriminator 4)
    40a4:	aa1503e1 	mov	x1, x21
    40a8:	f94067e0 	ldr	x0, [sp, #200]
    40ac:	b8736802 	ldr	w2, [x0, x19]
    40b0:	aa1503e0 	mov	x0, x21
    40b4:	97fffe8b 	bl	3ae0 <mbedtls_mpi_mul_int>
    40b8:	35000b20 	cbnz	w0, 421c <mbedtls_mpi_div_mpi+0x524>
/home/zrz0517/study/TEE/RT-TEE/optee_os/lib/libmbedtls/mbedtls/library/bignum.c:1468
    40bc:	f9403be0 	ldr	x0, [sp, #112]
    40c0:	52800001 	mov	w1, #0x0                   	// #0
    40c4:	97fffbab 	bl	2f70 <mbedtls_mpi_lset>
    40c8:	35000aa0 	cbnz	w0, 421c <mbedtls_mpi_div_mpi+0x524>
/home/zrz0517/study/TEE/RT-TEE/optee_os/lib/libmbedtls/mbedtls/library/bignum.c:1469
    40cc:	f100073f 	cmp	x25, #0x1
    40d0:	f94057e1 	ldr	x1, [sp, #168]
    40d4:	540009c9 	b.ls	420c <mbedtls_mpi_div_mpi+0x514>  // b.plast
/home/zrz0517/study/TEE/RT-TEE/optee_os/lib/libmbedtls/mbedtls/library/bignum.c:1469 (discriminator 1)
    40d8:	f94037e0 	ldr	x0, [sp, #104]
    40dc:	b8606822 	ldr	w2, [x1, x0]
/home/zrz0517/study/TEE/RT-TEE/optee_os/lib/libmbedtls/mbedtls/library/bignum.c:1469 (discriminator 4)
    40e0:	f94077e0 	ldr	x0, [sp, #232]
    40e4:	b9000002 	str	w2, [x0]
/home/zrz0517/study/TEE/RT-TEE/optee_os/lib/libmbedtls/mbedtls/library/bignum.c:1470 (discriminator 4)
    40e8:	b4000979 	cbz	x25, 4214 <mbedtls_mpi_div_mpi+0x51c>
/home/zrz0517/study/TEE/RT-TEE/optee_os/lib/libmbedtls/mbedtls/library/bignum.c:1470 (discriminator 1)
    40ec:	f94037e2 	ldr	x2, [sp, #104]
    40f0:	8b020022 	add	x2, x1, x2
    40f4:	b9400442 	ldr	w2, [x2, #4]
/home/zrz0517/study/TEE/RT-TEE/optee_os/lib/libmbedtls/mbedtls/library/bignum.c:1470 (discriminator 4)
    40f8:	b9000402 	str	w2, [x0, #4]
/home/zrz0517/study/TEE/RT-TEE/optee_os/lib/libmbedtls/mbedtls/library/bignum.c:1471 (discriminator 4)
    40fc:	f9404fe2 	ldr	x2, [sp, #152]
    4100:	b8626821 	ldr	w1, [x1, x2]
    4104:	b9000801 	str	w1, [x0, #8]
/home/zrz0517/study/TEE/RT-TEE/optee_os/lib/libmbedtls/mbedtls/library/bignum.c:1473 (discriminator 4)
    4108:	aa1503e0 	mov	x0, x21
    410c:	f9403be1 	ldr	x1, [sp, #112]
    4110:	97fffcfc 	bl	3500 <mbedtls_mpi_cmp_mpi>
    4114:	7100001f 	cmp	w0, #0x0
    4118:	54fffa0c 	b.gt	4058 <mbedtls_mpi_div_mpi+0x360>
/home/zrz0517/study/TEE/RT-TEE/optee_os/lib/libmbedtls/mbedtls/library/bignum.c:1475
    411c:	f94067e0 	ldr	x0, [sp, #200]
    4120:	aa1603e1 	mov	x1, x22
    4124:	b8736802 	ldr	w2, [x0, x19]
    4128:	aa1503e0 	mov	x0, x21
    412c:	97fffe6d 	bl	3ae0 <mbedtls_mpi_mul_int>
    4130:	35000760 	cbnz	w0, 421c <mbedtls_mpi_div_mpi+0x524>
/home/zrz0517/study/TEE/RT-TEE/optee_os/lib/libmbedtls/mbedtls/library/bignum.c:1476
    4134:	d37df260 	lsl	x0, x19, #3
    4138:	f9004fe0 	str	x0, [sp, #152]
    413c:	aa0003e1 	mov	x1, x0
    4140:	aa1503e0 	mov	x0, x21
    4144:	97fffc57 	bl	32a0 <mbedtls_mpi_shift_l>
    4148:	350006a0 	cbnz	w0, 421c <mbedtls_mpi_div_mpi+0x524>
/home/zrz0517/study/TEE/RT-TEE/optee_os/lib/libmbedtls/mbedtls/library/bignum.c:1477
    414c:	aa1503e2 	mov	x2, x21
    4150:	aa1403e1 	mov	x1, x20
    4154:	aa1403e0 	mov	x0, x20
    4158:	97fffdcf 	bl	3894 <mbedtls_mpi_sub_mpi>
    415c:	35000600 	cbnz	w0, 421c <mbedtls_mpi_div_mpi+0x524>
/home/zrz0517/study/TEE/RT-TEE/optee_os/lib/libmbedtls/mbedtls/library/bignum.c:1479
    4160:	52800001 	mov	w1, #0x0                   	// #0
    4164:	aa1403e0 	mov	x0, x20
    4168:	97fffd1b 	bl	35d4 <mbedtls_mpi_cmp_int>
    416c:	36f80240 	tbz	w0, #31, 41b4 <mbedtls_mpi_div_mpi+0x4bc>
/home/zrz0517/study/TEE/RT-TEE/optee_os/lib/libmbedtls/mbedtls/library/bignum.c:1481
    4170:	aa1603e1 	mov	x1, x22
    4174:	aa1503e0 	mov	x0, x21
    4178:	97fffad3 	bl	2cc4 <mbedtls_mpi_copy>
    417c:	35000500 	cbnz	w0, 421c <mbedtls_mpi_div_mpi+0x524>
/home/zrz0517/study/TEE/RT-TEE/optee_os/lib/libmbedtls/mbedtls/library/bignum.c:1482
    4180:	d37df261 	lsl	x1, x19, #3
    4184:	aa1503e0 	mov	x0, x21
    4188:	97fffc46 	bl	32a0 <mbedtls_mpi_shift_l>
    418c:	35000480 	cbnz	w0, 421c <mbedtls_mpi_div_mpi+0x524>
/home/zrz0517/study/TEE/RT-TEE/optee_os/lib/libmbedtls/mbedtls/library/bignum.c:1483
    4190:	aa1503e2 	mov	x2, x21
    4194:	aa1403e1 	mov	x1, x20
    4198:	aa1403e0 	mov	x0, x20
    419c:	97fffd9e 	bl	3814 <mbedtls_mpi_add_mpi>
    41a0:	350003e0 	cbnz	w0, 421c <mbedtls_mpi_div_mpi+0x524>
/home/zrz0517/study/TEE/RT-TEE/optee_os/lib/libmbedtls/mbedtls/library/bignum.c:1484
    41a4:	f94067e1 	ldr	x1, [sp, #200]
    41a8:	b8736820 	ldr	w0, [x1, x19]
    41ac:	51000400 	sub	w0, w0, #0x1
    41b0:	b8336820 	str	w0, [x1, x19]
    41b4:	f94037e0 	ldr	x0, [sp, #104]
/home/zrz0517/study/TEE/RT-TEE/optee_os/lib/libmbedtls/mbedtls/library/bignum.c:1448 (discriminator 2)
    41b8:	d1000739 	sub	x25, x25, #0x1
    41bc:	d1001273 	sub	x19, x19, #0x4
    41c0:	d1001000 	sub	x0, x0, #0x4
    41c4:	17ffff67 	b	3f60 <mbedtls_mpi_div_mpi+0x268>
/home/zrz0517/study/TEE/RT-TEE/optee_os/lib/libmbedtls/mbedtls/library/bignum.c:1454
    41c8:	f94037e3 	ldr	x3, [sp, #104]
    41cc:	8b030000 	add	x0, x0, x3
    41d0:	b9400400 	ldr	w0, [x0, #4]
mbedtls_int_div_int():
/home/zrz0517/study/TEE/RT-TEE/optee_os/lib/libmbedtls/mbedtls/library/bignum.c:1320
    41d4:	34000142 	cbz	w2, 41fc <mbedtls_mpi_div_mpi+0x504>
/home/zrz0517/study/TEE/RT-TEE/optee_os/lib/libmbedtls/mbedtls/library/bignum.c:1329
    41d8:	2a0003e0 	mov	w0, w0
/home/zrz0517/study/TEE/RT-TEE/optee_os/lib/libmbedtls/mbedtls/library/bignum.c:1330
    41dc:	2a0203e2 	mov	w2, w2
/home/zrz0517/study/TEE/RT-TEE/optee_os/lib/libmbedtls/mbedtls/library/bignum.c:1329
    41e0:	aa018000 	orr	x0, x0, x1, lsl #32
/home/zrz0517/study/TEE/RT-TEE/optee_os/lib/libmbedtls/mbedtls/library/bignum.c:1337
    41e4:	b2407fe1 	mov	x1, #0xffffffff            	// #4294967295
/home/zrz0517/study/TEE/RT-TEE/optee_os/lib/libmbedtls/mbedtls/library/bignum.c:1330
    41e8:	9ac20800 	udiv	x0, x0, x2
/home/zrz0517/study/TEE/RT-TEE/optee_os/lib/libmbedtls/mbedtls/library/bignum.c:1337
    41ec:	eb01001f 	cmp	x0, x1
    41f0:	9a819000 	csel	x0, x0, x1, ls  // ls = plast
mbedtls_mpi_div_mpi():
/home/zrz0517/study/TEE/RT-TEE/optee_os/lib/libmbedtls/mbedtls/library/bignum.c:1454
    41f4:	b9000080 	str	w0, [x4]
    41f8:	17ffff95 	b	404c <mbedtls_mpi_div_mpi+0x354>
mbedtls_int_div_int():
/home/zrz0517/study/TEE/RT-TEE/optee_os/lib/libmbedtls/mbedtls/library/bignum.c:1324
    41fc:	12800000 	mov	w0, #0xffffffff            	// #-1
    4200:	17fffffd 	b	41f4 <mbedtls_mpi_div_mpi+0x4fc>
mbedtls_mpi_div_mpi():
/home/zrz0517/study/TEE/RT-TEE/optee_os/lib/libmbedtls/mbedtls/library/bignum.c:1464
    4204:	52800002 	mov	w2, #0x0                   	// #0
    4208:	17ffffa2 	b	4090 <mbedtls_mpi_div_mpi+0x398>
/home/zrz0517/study/TEE/RT-TEE/optee_os/lib/libmbedtls/mbedtls/library/bignum.c:1469
    420c:	52800002 	mov	w2, #0x0                   	// #0
    4210:	17ffffb4 	b	40e0 <mbedtls_mpi_div_mpi+0x3e8>
/home/zrz0517/study/TEE/RT-TEE/optee_os/lib/libmbedtls/mbedtls/library/bignum.c:1470
    4214:	52800002 	mov	w2, #0x0                   	// #0
    4218:	17ffffb8 	b	40f8 <mbedtls_mpi_div_mpi+0x400>
    421c:	2a0003fa 	mov	w26, w0
    4220:	17fffee8 	b	3dc0 <mbedtls_mpi_div_mpi+0xc8>
/home/zrz0517/study/TEE/RT-TEE/optee_os/lib/libmbedtls/mbedtls/library/bignum.c:1406
    4224:	1280017a 	mov	w26, #0xfffffff4            	// #-12
    4228:	17fffed9 	b	3d8c <mbedtls_mpi_div_mpi+0x94>

000000000000422c <mbedtls_mpi_div_int>:
mbedtls_mpi_div_int():
/home/zrz0517/study/TEE/RT-TEE/optee_os/lib/libmbedtls/mbedtls/library/bignum.c:1516
    422c:	a9bd7bfd 	stp	x29, x30, [sp, #-48]!
/home/zrz0517/study/TEE/RT-TEE/optee_os/lib/libmbedtls/mbedtls/library/bignum.c:1520
    4230:	7100007f 	cmp	w3, #0x0
    4234:	5a83a464 	cneg	w4, w3, lt  // lt = tstop
/home/zrz0517/study/TEE/RT-TEE/optee_os/lib/libmbedtls/mbedtls/library/bignum.c:1516
    4238:	910003fd 	mov	x29, sp
/home/zrz0517/study/TEE/RT-TEE/optee_os/lib/libmbedtls/mbedtls/library/bignum.c:1520
    423c:	b9001be4 	str	w4, [sp, #24]
/home/zrz0517/study/TEE/RT-TEE/optee_os/lib/libmbedtls/mbedtls/library/bignum.c:1521
    4240:	52800024 	mov	w4, #0x1                   	// #1
    4244:	5a84a483 	cneg	w3, w4, lt  // lt = tstop
    4248:	390083e3 	strb	w3, [sp, #32]
/home/zrz0517/study/TEE/RT-TEE/optee_os/lib/libmbedtls/mbedtls/library/bignum.c:1523
    424c:	910063e3 	add	x3, sp, #0x18
/home/zrz0517/study/TEE/RT-TEE/optee_os/lib/libmbedtls/mbedtls/library/bignum.c:1522
    4250:	79004be4 	strh	w4, [sp, #36]
/home/zrz0517/study/TEE/RT-TEE/optee_os/lib/libmbedtls/mbedtls/library/bignum.c:1523
    4254:	f90017e3 	str	x3, [sp, #40]
/home/zrz0517/study/TEE/RT-TEE/optee_os/lib/libmbedtls/mbedtls/library/bignum.c:1525
    4258:	910083e3 	add	x3, sp, #0x20
    425c:	97fffea7 	bl	3cf8 <mbedtls_mpi_div_mpi>
/home/zrz0517/study/TEE/RT-TEE/optee_os/lib/libmbedtls/mbedtls/library/bignum.c:1526
    4260:	a8c37bfd 	ldp	x29, x30, [sp], #48
    4264:	d65f03c0 	ret

0000000000004268 <mbedtls_mpi_mod_mpi>:
mbedtls_mpi_mod_mpi():
/home/zrz0517/study/TEE/RT-TEE/optee_os/lib/libmbedtls/mbedtls/library/bignum.c:1532
    4268:	a9bd7bfd 	stp	x29, x30, [sp, #-48]!
    426c:	aa0103e6 	mov	x6, x1
/home/zrz0517/study/TEE/RT-TEE/optee_os/lib/libmbedtls/mbedtls/library/bignum.c:1535
    4270:	52800001 	mov	w1, #0x0                   	// #0
/home/zrz0517/study/TEE/RT-TEE/optee_os/lib/libmbedtls/mbedtls/library/bignum.c:1532
    4274:	910003fd 	mov	x29, sp
    4278:	a90153f3 	stp	x19, x20, [sp, #16]
    427c:	aa0003f3 	mov	x19, x0
/home/zrz0517/study/TEE/RT-TEE/optee_os/lib/libmbedtls/mbedtls/library/bignum.c:1535
    4280:	aa0203e0 	mov	x0, x2
/home/zrz0517/study/TEE/RT-TEE/optee_os/lib/libmbedtls/mbedtls/library/bignum.c:1532
    4284:	f90013f5 	str	x21, [sp, #32]
    4288:	aa0203f5 	mov	x21, x2
/home/zrz0517/study/TEE/RT-TEE/optee_os/lib/libmbedtls/mbedtls/library/bignum.c:1535
    428c:	97fffcd2 	bl	35d4 <mbedtls_mpi_cmp_int>
    4290:	37f80420 	tbnz	w0, #31, 4314 <mbedtls_mpi_mod_mpi+0xac>
/home/zrz0517/study/TEE/RT-TEE/optee_os/lib/libmbedtls/mbedtls/library/bignum.c:1538
    4294:	aa1503e3 	mov	x3, x21
    4298:	aa0603e2 	mov	x2, x6
    429c:	aa1303e1 	mov	x1, x19
    42a0:	d2800000 	mov	x0, #0x0                   	// #0
    42a4:	97fffe95 	bl	3cf8 <mbedtls_mpi_div_mpi>
    42a8:	2a0003f4 	mov	w20, w0
    42ac:	34000160 	cbz	w0, 42d8 <mbedtls_mpi_mod_mpi+0x70>
/home/zrz0517/study/TEE/RT-TEE/optee_os/lib/libmbedtls/mbedtls/library/bignum.c:1549
    42b0:	2a1403e0 	mov	w0, w20
    42b4:	a94153f3 	ldp	x19, x20, [sp, #16]
    42b8:	f94013f5 	ldr	x21, [sp, #32]
    42bc:	a8c37bfd 	ldp	x29, x30, [sp], #48
    42c0:	d65f03c0 	ret
/home/zrz0517/study/TEE/RT-TEE/optee_os/lib/libmbedtls/mbedtls/library/bignum.c:1541
    42c4:	aa1503e2 	mov	x2, x21
    42c8:	aa1303e1 	mov	x1, x19
    42cc:	aa1303e0 	mov	x0, x19
    42d0:	97fffd51 	bl	3814 <mbedtls_mpi_add_mpi>
    42d4:	350001c0 	cbnz	w0, 430c <mbedtls_mpi_mod_mpi+0xa4>
/home/zrz0517/study/TEE/RT-TEE/optee_os/lib/libmbedtls/mbedtls/library/bignum.c:1540
    42d8:	52800001 	mov	w1, #0x0                   	// #0
    42dc:	aa1303e0 	mov	x0, x19
    42e0:	97fffcbd 	bl	35d4 <mbedtls_mpi_cmp_int>
    42e4:	37ffff00 	tbnz	w0, #31, 42c4 <mbedtls_mpi_mod_mpi+0x5c>
/home/zrz0517/study/TEE/RT-TEE/optee_os/lib/libmbedtls/mbedtls/library/bignum.c:1543
    42e8:	aa1503e1 	mov	x1, x21
    42ec:	aa1303e0 	mov	x0, x19
    42f0:	97fffc84 	bl	3500 <mbedtls_mpi_cmp_mpi>
    42f4:	37fffde0 	tbnz	w0, #31, 42b0 <mbedtls_mpi_mod_mpi+0x48>
/home/zrz0517/study/TEE/RT-TEE/optee_os/lib/libmbedtls/mbedtls/library/bignum.c:1544
    42f8:	aa1503e2 	mov	x2, x21
    42fc:	aa1303e1 	mov	x1, x19
    4300:	aa1303e0 	mov	x0, x19
    4304:	97fffd64 	bl	3894 <mbedtls_mpi_sub_mpi>
    4308:	34ffff00 	cbz	w0, 42e8 <mbedtls_mpi_mod_mpi+0x80>
    430c:	2a0003f4 	mov	w20, w0
    4310:	17ffffe8 	b	42b0 <mbedtls_mpi_mod_mpi+0x48>
/home/zrz0517/study/TEE/RT-TEE/optee_os/lib/libmbedtls/mbedtls/library/bignum.c:1536
    4314:	12800134 	mov	w20, #0xfffffff6            	// #-10
    4318:	17ffffe6 	b	42b0 <mbedtls_mpi_mod_mpi+0x48>

000000000000431c <mbedtls_mpi_mod_int>:
mbedtls_mpi_mod_int():
/home/zrz0517/study/TEE/RT-TEE/optee_os/lib/libmbedtls/mbedtls/library/bignum.c:1555
    431c:	aa0003e4 	mov	x4, x0
/home/zrz0517/study/TEE/RT-TEE/optee_os/lib/libmbedtls/mbedtls/library/bignum.c:1559
    4320:	7100005f 	cmp	w2, #0x0
    4324:	540001e0 	b.eq	4360 <mbedtls_mpi_mod_int+0x44>  // b.none
/home/zrz0517/study/TEE/RT-TEE/optee_os/lib/libmbedtls/mbedtls/library/bignum.c:1562
    4328:	5400020b 	b.lt	4368 <mbedtls_mpi_mod_int+0x4c>  // b.tstop
/home/zrz0517/study/TEE/RT-TEE/optee_os/lib/libmbedtls/mbedtls/library/bignum.c:1568
    432c:	7100045f 	cmp	w2, #0x1
    4330:	54000081 	b.ne	4340 <mbedtls_mpi_mod_int+0x24>  // b.any
/home/zrz0517/study/TEE/RT-TEE/optee_os/lib/libmbedtls/mbedtls/library/bignum.c:1570
    4334:	b900001f 	str	wzr, [x0]
/home/zrz0517/study/TEE/RT-TEE/optee_os/lib/libmbedtls/mbedtls/library/bignum.c:1577
    4338:	52800000 	mov	w0, #0x0                   	// #0
/home/zrz0517/study/TEE/RT-TEE/optee_os/lib/libmbedtls/mbedtls/library/bignum.c:1606
    433c:	d65f03c0 	ret
/home/zrz0517/study/TEE/RT-TEE/optee_os/lib/libmbedtls/mbedtls/library/bignum.c:1574
    4340:	7100085f 	cmp	w2, #0x2
    4344:	540000c1 	b.ne	435c <mbedtls_mpi_mod_int+0x40>  // b.any
/home/zrz0517/study/TEE/RT-TEE/optee_os/lib/libmbedtls/mbedtls/library/bignum.c:1576
    4348:	f9400420 	ldr	x0, [x1, #8]
    434c:	b9400000 	ldr	w0, [x0]
    4350:	12000000 	and	w0, w0, #0x1
    4354:	b9000080 	str	w0, [x4]
    4358:	17fffff8 	b	4338 <mbedtls_mpi_mod_int+0x1c>
    435c:	17fff96a 	b	2904 <mbedtls_mpi_mod_int.part.3>
/home/zrz0517/study/TEE/RT-TEE/optee_os/lib/libmbedtls/mbedtls/library/bignum.c:1560
    4360:	12800160 	mov	w0, #0xfffffff4            	// #-12
    4364:	17fffff6 	b	433c <mbedtls_mpi_mod_int+0x20>
/home/zrz0517/study/TEE/RT-TEE/optee_os/lib/libmbedtls/mbedtls/library/bignum.c:1563
    4368:	12800120 	mov	w0, #0xfffffff6            	// #-10
    436c:	17fffff4 	b	433c <mbedtls_mpi_mod_int+0x20>

0000000000004370 <mpi_write_hlp>:
mpi_write_hlp():
/home/zrz0517/study/TEE/RT-TEE/optee_os/lib/libmbedtls/mbedtls/library/bignum.c:574
    4370:	a9bc7bfd 	stp	x29, x30, [sp, #-64]!
/home/zrz0517/study/TEE/RT-TEE/optee_os/lib/libmbedtls/mbedtls/library/bignum.c:578
    4374:	51000823 	sub	w3, w1, #0x2
    4378:	7100387f 	cmp	w3, #0xe
/home/zrz0517/study/TEE/RT-TEE/optee_os/lib/libmbedtls/mbedtls/library/bignum.c:574
    437c:	910003fd 	mov	x29, sp
    4380:	a90153f3 	stp	x19, x20, [sp, #16]
    4384:	a9025bf5 	stp	x21, x22, [sp, #32]
/home/zrz0517/study/TEE/RT-TEE/optee_os/lib/libmbedtls/mbedtls/library/bignum.c:578
    4388:	540005a8 	b.hi	443c <mpi_write_hlp+0xcc>  // b.pmore
    438c:	aa0203f5 	mov	x21, x2
    4390:	2a0103f6 	mov	w22, w1
/home/zrz0517/study/TEE/RT-TEE/optee_os/lib/libmbedtls/mbedtls/library/bignum.c:581
    4394:	2a0103e2 	mov	w2, w1
    4398:	aa0003f3 	mov	x19, x0
    439c:	aa0003e1 	mov	x1, x0
    43a0:	9100f3e0 	add	x0, sp, #0x3c
    43a4:	97ffffde 	bl	431c <mbedtls_mpi_mod_int>
    43a8:	2a0003f4 	mov	w20, w0
    43ac:	350003e0 	cbnz	w0, 4428 <mpi_write_hlp+0xb8>
/home/zrz0517/study/TEE/RT-TEE/optee_os/lib/libmbedtls/mbedtls/library/bignum.c:582
    43b0:	2a1603e3 	mov	w3, w22
    43b4:	aa1303e2 	mov	x2, x19
    43b8:	d2800001 	mov	x1, #0x0                   	// #0
    43bc:	aa1303e0 	mov	x0, x19
    43c0:	97ffff9b 	bl	422c <mbedtls_mpi_div_int>
    43c4:	2a0003f4 	mov	w20, w0
    43c8:	35000300 	cbnz	w0, 4428 <mpi_write_hlp+0xb8>
/home/zrz0517/study/TEE/RT-TEE/optee_os/lib/libmbedtls/mbedtls/library/bignum.c:584
    43cc:	52800001 	mov	w1, #0x0                   	// #0
    43d0:	aa1303e0 	mov	x0, x19
    43d4:	97fffc80 	bl	35d4 <mbedtls_mpi_cmp_int>
    43d8:	35000140 	cbnz	w0, 4400 <mpi_write_hlp+0x90>
/home/zrz0517/study/TEE/RT-TEE/optee_os/lib/libmbedtls/mbedtls/library/bignum.c:587
    43dc:	f94002a1 	ldr	x1, [x21]
    43e0:	b9403fe3 	ldr	w3, [sp, #60]
    43e4:	91000422 	add	x2, x1, #0x1
    43e8:	12001c60 	and	w0, w3, #0xff
    43ec:	7100247f 	cmp	w3, #0x9
    43f0:	54000169 	b.ls	441c <mpi_write_hlp+0xac>  // b.plast
/home/zrz0517/study/TEE/RT-TEE/optee_os/lib/libmbedtls/mbedtls/library/bignum.c:590
    43f4:	1100dc00 	add	w0, w0, #0x37
    43f8:	f90002a2 	str	x2, [x21]
    43fc:	1400000a 	b	4424 <mpi_write_hlp+0xb4>
/home/zrz0517/study/TEE/RT-TEE/optee_os/lib/libmbedtls/mbedtls/library/bignum.c:585
    4400:	aa1503e2 	mov	x2, x21
    4404:	2a1603e1 	mov	w1, w22
    4408:	aa1303e0 	mov	x0, x19
    440c:	97ffffd9 	bl	4370 <mpi_write_hlp>
    4410:	34fffe60 	cbz	w0, 43dc <mpi_write_hlp+0x6c>
    4414:	2a0003f4 	mov	w20, w0
    4418:	14000004 	b	4428 <mpi_write_hlp+0xb8>
/home/zrz0517/study/TEE/RT-TEE/optee_os/lib/libmbedtls/mbedtls/library/bignum.c:588
    441c:	1100c000 	add	w0, w0, #0x30
    4420:	f90002a2 	str	x2, [x21]
/home/zrz0517/study/TEE/RT-TEE/optee_os/lib/libmbedtls/mbedtls/library/bignum.c:590
    4424:	39000020 	strb	w0, [x1]
/home/zrz0517/study/TEE/RT-TEE/optee_os/lib/libmbedtls/mbedtls/library/bignum.c:595
    4428:	2a1403e0 	mov	w0, w20
    442c:	a94153f3 	ldp	x19, x20, [sp, #16]
    4430:	a9425bf5 	ldp	x21, x22, [sp, #32]
    4434:	a8c47bfd 	ldp	x29, x30, [sp], #64
    4438:	d65f03c0 	ret
/home/zrz0517/study/TEE/RT-TEE/optee_os/lib/libmbedtls/mbedtls/library/bignum.c:579
    443c:	12800074 	mov	w20, #0xfffffffc            	// #-4
    4440:	17fffffa 	b	4428 <mpi_write_hlp+0xb8>

0000000000004444 <mbedtls_mpi_write_string>:
mbedtls_mpi_write_string():
/home/zrz0517/study/TEE/RT-TEE/optee_os/lib/libmbedtls/mbedtls/library/bignum.c:602
    4444:	a9ba7bfd 	stp	x29, x30, [sp, #-96]!
/home/zrz0517/study/TEE/RT-TEE/optee_os/lib/libmbedtls/mbedtls/library/bignum.c:608
    4448:	51000826 	sub	w6, w1, #0x2
    444c:	710038df 	cmp	w6, #0xe
/home/zrz0517/study/TEE/RT-TEE/optee_os/lib/libmbedtls/mbedtls/library/bignum.c:602
    4450:	910003fd 	mov	x29, sp
    4454:	a90153f3 	stp	x19, x20, [sp, #16]
    4458:	a9025bf5 	stp	x21, x22, [sp, #32]
    445c:	f9001bf7 	str	x23, [sp, #48]
/home/zrz0517/study/TEE/RT-TEE/optee_os/lib/libmbedtls/mbedtls/library/bignum.c:608
    4460:	54000d88 	b.hi	4610 <mbedtls_mpi_write_string+0x1cc>  // b.pmore
    4464:	aa0403f5 	mov	x21, x4
    4468:	aa0303e6 	mov	x6, x3
    446c:	aa0003e4 	mov	x4, x0
/home/zrz0517/study/TEE/RT-TEE/optee_os/lib/libmbedtls/mbedtls/library/bignum.c:611
    4470:	2a0103f4 	mov	w20, w1
    4474:	aa0203f7 	mov	x23, x2
    4478:	97fffb1c 	bl	30e8 <mbedtls_mpi_bitlen>
/home/zrz0517/study/TEE/RT-TEE/optee_os/lib/libmbedtls/mbedtls/library/bignum.c:612
    447c:	71000e9f 	cmp	w20, #0x3
    4480:	5400004d 	b.le	4488 <mbedtls_mpi_write_string+0x44>
/home/zrz0517/study/TEE/RT-TEE/optee_os/lib/libmbedtls/mbedtls/library/bignum.c:612 (discriminator 1)
    4484:	d341fc00 	lsr	x0, x0, #1
/home/zrz0517/study/TEE/RT-TEE/optee_os/lib/libmbedtls/mbedtls/library/bignum.c:613
    4488:	7100429f 	cmp	w20, #0x10
    448c:	54000041 	b.ne	4494 <mbedtls_mpi_write_string+0x50>  // b.any
/home/zrz0517/study/TEE/RT-TEE/optee_os/lib/libmbedtls/mbedtls/library/bignum.c:613 (discriminator 1)
    4490:	d341fc00 	lsr	x0, x0, #1
/home/zrz0517/study/TEE/RT-TEE/optee_os/lib/libmbedtls/mbedtls/library/bignum.c:619
    4494:	91000401 	add	x1, x0, #0x1
    4498:	91000c05 	add	x5, x0, #0x3
    449c:	92400021 	and	x1, x1, #0x1
    44a0:	8b050020 	add	x0, x1, x5
/home/zrz0517/study/TEE/RT-TEE/optee_os/lib/libmbedtls/mbedtls/library/bignum.c:621
    44a4:	eb06001f 	cmp	x0, x6
    44a8:	54000129 	b.ls	44cc <mbedtls_mpi_write_string+0x88>  // b.plast
/home/zrz0517/study/TEE/RT-TEE/optee_os/lib/libmbedtls/mbedtls/library/bignum.c:624
    44ac:	128000f3 	mov	w19, #0xfffffff8            	// #-8
/home/zrz0517/study/TEE/RT-TEE/optee_os/lib/libmbedtls/mbedtls/library/bignum.c:623
    44b0:	f90002a0 	str	x0, [x21]
/home/zrz0517/study/TEE/RT-TEE/optee_os/lib/libmbedtls/mbedtls/library/bignum.c:671
    44b4:	2a1303e0 	mov	w0, w19
    44b8:	a94153f3 	ldp	x19, x20, [sp, #16]
    44bc:	a9425bf5 	ldp	x21, x22, [sp, #32]
    44c0:	f9401bf7 	ldr	x23, [sp, #48]
    44c4:	a8c67bfd 	ldp	x29, x30, [sp], #96
    44c8:	d65f03c0 	ret
/home/zrz0517/study/TEE/RT-TEE/optee_os/lib/libmbedtls/mbedtls/library/bignum.c:628
    44cc:	910143f6 	add	x22, sp, #0x50
/home/zrz0517/study/TEE/RT-TEE/optee_os/lib/libmbedtls/mbedtls/library/bignum.c:627
    44d0:	f90027f7 	str	x23, [sp, #72]
/home/zrz0517/study/TEE/RT-TEE/optee_os/lib/libmbedtls/mbedtls/library/bignum.c:628
    44d4:	aa1603e0 	mov	x0, x22
    44d8:	97fff927 	bl	2974 <mbedtls_mpi_init_mempool>
/home/zrz0517/study/TEE/RT-TEE/optee_os/lib/libmbedtls/mbedtls/library/bignum.c:630
    44dc:	39c00080 	ldrsb	w0, [x4]
    44e0:	3100041f 	cmn	w0, #0x1
    44e4:	540000c1 	b.ne	44fc <mbedtls_mpi_write_string+0xb8>  // b.any
/home/zrz0517/study/TEE/RT-TEE/optee_os/lib/libmbedtls/mbedtls/library/bignum.c:631
    44e8:	f94027e0 	ldr	x0, [sp, #72]
    44ec:	91000401 	add	x1, x0, #0x1
    44f0:	f90027e1 	str	x1, [sp, #72]
    44f4:	528005a1 	mov	w1, #0x2d                  	// #45
    44f8:	39000001 	strb	w1, [x0]
/home/zrz0517/study/TEE/RT-TEE/optee_os/lib/libmbedtls/mbedtls/library/bignum.c:633
    44fc:	7100429f 	cmp	w20, #0x10
    4500:	54000661 	b.ne	45cc <mbedtls_mpi_write_string+0x188>  // b.any
/home/zrz0517/study/TEE/RT-TEE/optee_os/lib/libmbedtls/mbedtls/library/bignum.c:638
    4504:	79400880 	ldrh	w0, [x4, #4]
/home/zrz0517/study/TEE/RT-TEE/optee_os/lib/libmbedtls/mbedtls/library/bignum.c:647
    4508:	d0000022 	adrp	x2, a000 <__func__.4888+0x13>
    450c:	91041c42 	add	x2, x2, #0x107
/home/zrz0517/study/TEE/RT-TEE/optee_os/lib/libmbedtls/mbedtls/library/bignum.c:638
    4510:	d2800005 	mov	x5, #0x0                   	// #0
/home/zrz0517/study/TEE/RT-TEE/optee_os/lib/libmbedtls/mbedtls/library/bignum.c:638 (discriminator 1)
    4514:	b5000180 	cbnz	x0, 4544 <mbedtls_mpi_write_string+0x100>
/home/zrz0517/study/TEE/RT-TEE/optee_os/lib/libmbedtls/mbedtls/library/bignum.c:663
    4518:	f94027e0 	ldr	x0, [sp, #72]
/home/zrz0517/study/TEE/RT-TEE/optee_os/lib/libmbedtls/mbedtls/library/bignum.c:664
    451c:	52800013 	mov	w19, #0x0                   	// #0
/home/zrz0517/study/TEE/RT-TEE/optee_os/lib/libmbedtls/mbedtls/library/bignum.c:663
    4520:	91000401 	add	x1, x0, #0x1
    4524:	f90027e1 	str	x1, [sp, #72]
    4528:	3900001f 	strb	wzr, [x0]
/home/zrz0517/study/TEE/RT-TEE/optee_os/lib/libmbedtls/mbedtls/library/bignum.c:664
    452c:	f94027e2 	ldr	x2, [sp, #72]
    4530:	cb170057 	sub	x23, x2, x23
    4534:	f90002b7 	str	x23, [x21]
/home/zrz0517/study/TEE/RT-TEE/optee_os/lib/libmbedtls/mbedtls/library/bignum.c:668
    4538:	aa1603e0 	mov	x0, x22
    453c:	97fff922 	bl	29c4 <mbedtls_mpi_free>
/home/zrz0517/study/TEE/RT-TEE/optee_os/lib/libmbedtls/mbedtls/library/bignum.c:670
    4540:	17ffffdd 	b	44b4 <mbedtls_mpi_write_string+0x70>
/home/zrz0517/study/TEE/RT-TEE/optee_os/lib/libmbedtls/mbedtls/library/bignum.c:642
    4544:	d37ef406 	lsl	x6, x0, #2
/home/zrz0517/study/TEE/RT-TEE/optee_os/lib/libmbedtls/mbedtls/library/bignum.c:640
    4548:	d2800081 	mov	x1, #0x4                   	// #4
/home/zrz0517/study/TEE/RT-TEE/optee_os/lib/libmbedtls/mbedtls/library/bignum.c:642
    454c:	d10010c6 	sub	x6, x6, #0x4
    4550:	f9400488 	ldr	x8, [x4, #8]
    4554:	531d7023 	lsl	w3, w1, #3
    4558:	51002067 	sub	w7, w3, #0x8
/home/zrz0517/study/TEE/RT-TEE/optee_os/lib/libmbedtls/mbedtls/library/bignum.c:644
    455c:	520000a5 	eor	w5, w5, #0x1
/home/zrz0517/study/TEE/RT-TEE/optee_os/lib/libmbedtls/mbedtls/library/bignum.c:642
    4560:	b8666903 	ldr	w3, [x8, x6]
    4564:	1ac72463 	lsr	w3, w3, w7
/home/zrz0517/study/TEE/RT-TEE/optee_os/lib/libmbedtls/mbedtls/library/bignum.c:644
    4568:	72001c67 	ands	w7, w3, #0xff
    456c:	1a9f00a5 	csel	w5, w5, wzr, eq  // eq = none
    4570:	34000085 	cbz	w5, 4580 <mbedtls_mpi_write_string+0x13c>
/home/zrz0517/study/TEE/RT-TEE/optee_os/lib/libmbedtls/mbedtls/library/bignum.c:644 (discriminator 1)
    4574:	8b010005 	add	x5, x0, x1
    4578:	f10008bf 	cmp	x5, #0x2
    457c:	54000241 	b.ne	45c4 <mbedtls_mpi_write_string+0x180>  // b.any
/home/zrz0517/study/TEE/RT-TEE/optee_os/lib/libmbedtls/mbedtls/library/bignum.c:647
    4580:	f94027e8 	ldr	x8, [sp, #72]
/home/zrz0517/study/TEE/RT-TEE/optee_os/lib/libmbedtls/mbedtls/library/bignum.c:648
    4584:	92400c63 	and	x3, x3, #0xf
/home/zrz0517/study/TEE/RT-TEE/optee_os/lib/libmbedtls/mbedtls/library/bignum.c:647
    4588:	91000505 	add	x5, x8, #0x1
    458c:	f90027e5 	str	x5, [sp, #72]
    4590:	d3441ce5 	ubfx	x5, x7, #4, #4
/home/zrz0517/study/TEE/RT-TEE/optee_os/lib/libmbedtls/mbedtls/library/bignum.c:648
    4594:	38636843 	ldrb	w3, [x2, x3]
/home/zrz0517/study/TEE/RT-TEE/optee_os/lib/libmbedtls/mbedtls/library/bignum.c:647
    4598:	38656845 	ldrb	w5, [x2, x5]
    459c:	39000105 	strb	w5, [x8]
/home/zrz0517/study/TEE/RT-TEE/optee_os/lib/libmbedtls/mbedtls/library/bignum.c:648
    45a0:	f94027e5 	ldr	x5, [sp, #72]
    45a4:	910004a7 	add	x7, x5, #0x1
    45a8:	f90027e7 	str	x7, [sp, #72]
    45ac:	390000a3 	strb	w3, [x5]
/home/zrz0517/study/TEE/RT-TEE/optee_os/lib/libmbedtls/mbedtls/library/bignum.c:649
    45b0:	d2800025 	mov	x5, #0x1                   	// #1
/home/zrz0517/study/TEE/RT-TEE/optee_os/lib/libmbedtls/mbedtls/library/bignum.c:640 (discriminator 2)
    45b4:	f1000421 	subs	x1, x1, #0x1
    45b8:	54fffcc1 	b.ne	4550 <mbedtls_mpi_write_string+0x10c>  // b.any
/home/zrz0517/study/TEE/RT-TEE/optee_os/lib/libmbedtls/mbedtls/library/bignum.c:638 (discriminator 2)
    45bc:	d1000400 	sub	x0, x0, #0x1
    45c0:	17ffffd5 	b	4514 <mbedtls_mpi_write_string+0xd0>
    45c4:	d2800005 	mov	x5, #0x0                   	// #0
    45c8:	17fffffb 	b	45b4 <mbedtls_mpi_write_string+0x170>
/home/zrz0517/study/TEE/RT-TEE/optee_os/lib/libmbedtls/mbedtls/library/bignum.c:655
    45cc:	aa0403e1 	mov	x1, x4
    45d0:	aa1603e0 	mov	x0, x22
    45d4:	97fff9bc 	bl	2cc4 <mbedtls_mpi_copy>
    45d8:	2a0003f3 	mov	w19, w0
    45dc:	35fffae0 	cbnz	w0, 4538 <mbedtls_mpi_write_string+0xf4>
/home/zrz0517/study/TEE/RT-TEE/optee_os/lib/libmbedtls/mbedtls/library/bignum.c:657
    45e0:	39c143e0 	ldrsb	w0, [sp, #80]
    45e4:	3100041f 	cmn	w0, #0x1
    45e8:	54000061 	b.ne	45f4 <mbedtls_mpi_write_string+0x1b0>  // b.any
/home/zrz0517/study/TEE/RT-TEE/optee_os/lib/libmbedtls/mbedtls/library/bignum.c:658
    45ec:	52800020 	mov	w0, #0x1                   	// #1
    45f0:	390143e0 	strb	w0, [sp, #80]
/home/zrz0517/study/TEE/RT-TEE/optee_os/lib/libmbedtls/mbedtls/library/bignum.c:660
    45f4:	910123e2 	add	x2, sp, #0x48
    45f8:	2a1403e1 	mov	w1, w20
    45fc:	aa1603e0 	mov	x0, x22
    4600:	97ffff5c 	bl	4370 <mpi_write_hlp>
    4604:	2a0003f3 	mov	w19, w0
    4608:	34fff880 	cbz	w0, 4518 <mbedtls_mpi_write_string+0xd4>
    460c:	17ffffcb 	b	4538 <mbedtls_mpi_write_string+0xf4>
/home/zrz0517/study/TEE/RT-TEE/optee_os/lib/libmbedtls/mbedtls/library/bignum.c:609
    4610:	12800073 	mov	w19, #0xfffffffc            	// #-4
    4614:	17ffffa8 	b	44b4 <mbedtls_mpi_write_string+0x70>

0000000000004618 <mpi_check_small_factors>:
mpi_check_small_factors():
/home/zrz0517/study/TEE/RT-TEE/optee_os/lib/libmbedtls/mbedtls/library/bignum.c:2108
    4618:	f9400401 	ldr	x1, [x0, #8]
    461c:	b9400021 	ldr	w1, [x1]
    4620:	360003c1 	tbz	w1, #0, 4698 <mpi_check_small_factors+0x80>
/home/zrz0517/study/TEE/RT-TEE/optee_os/lib/libmbedtls/mbedtls/library/bignum.c:2103
    4624:	a9be7bfd 	stp	x29, x30, [sp, #-32]!
    4628:	b0000027 	adrp	x7, 9000 <__text_end+0xd6c>
    462c:	aa0003e8 	mov	x8, x0
    4630:	912c40e7 	add	x7, x7, #0xb10
/home/zrz0517/study/TEE/RT-TEE/optee_os/lib/libmbedtls/mbedtls/library/bignum.c:2116
    4634:	910073e9 	add	x9, sp, #0x1c
/home/zrz0517/study/TEE/RT-TEE/optee_os/lib/libmbedtls/mbedtls/library/bignum.c:2103
    4638:	910003fd 	mov	x29, sp
/home/zrz0517/study/TEE/RT-TEE/optee_os/lib/libmbedtls/mbedtls/library/bignum.c:2111
    463c:	b94000e6 	ldr	w6, [x7]
    4640:	710000df 	cmp	w6, #0x0
    4644:	5400008c 	b.gt	4654 <mpi_check_small_factors+0x3c>
    4648:	52800000 	mov	w0, #0x0                   	// #0
/home/zrz0517/study/TEE/RT-TEE/optee_os/lib/libmbedtls/mbedtls/library/bignum.c:2124
    464c:	a8c27bfd 	ldp	x29, x30, [sp], #32
    4650:	d65f03c0 	ret
/home/zrz0517/study/TEE/RT-TEE/optee_os/lib/libmbedtls/mbedtls/library/bignum.c:2113
    4654:	2a0603e1 	mov	w1, w6
    4658:	aa0803e0 	mov	x0, x8
    465c:	97fffbde 	bl	35d4 <mbedtls_mpi_cmp_int>
    4660:	7100001f 	cmp	w0, #0x0
    4664:	5400016d 	b.le	4690 <mpi_check_small_factors+0x78>
/home/zrz0517/study/TEE/RT-TEE/optee_os/lib/libmbedtls/mbedtls/library/bignum.c:2116
    4668:	2a0603e2 	mov	w2, w6
    466c:	aa0803e1 	mov	x1, x8
    4670:	aa0903e0 	mov	x0, x9
    4674:	97ffff2a 	bl	431c <mbedtls_mpi_mod_int>
    4678:	35fffea0 	cbnz	w0, 464c <mpi_check_small_factors+0x34>
/home/zrz0517/study/TEE/RT-TEE/optee_os/lib/libmbedtls/mbedtls/library/bignum.c:2118
    467c:	b9401fe0 	ldr	w0, [sp, #28]
    4680:	910010e7 	add	x7, x7, #0x4
    4684:	35fffdc0 	cbnz	w0, 463c <mpi_check_small_factors+0x24>
/home/zrz0517/study/TEE/RT-TEE/optee_os/lib/libmbedtls/mbedtls/library/bignum.c:2119
    4688:	128001a0 	mov	w0, #0xfffffff2            	// #-14
    468c:	17fffff0 	b	464c <mpi_check_small_factors+0x34>
/home/zrz0517/study/TEE/RT-TEE/optee_os/lib/libmbedtls/mbedtls/library/bignum.c:2114
    4690:	52800020 	mov	w0, #0x1                   	// #1
    4694:	17ffffee 	b	464c <mpi_check_small_factors+0x34>
/home/zrz0517/study/TEE/RT-TEE/optee_os/lib/libmbedtls/mbedtls/library/bignum.c:2109
    4698:	128001a0 	mov	w0, #0xfffffff2            	// #-14
/home/zrz0517/study/TEE/RT-TEE/optee_os/lib/libmbedtls/mbedtls/library/bignum.c:2124
    469c:	d65f03c0 	ret

00000000000046a0 <mbedtls_mpi_montg_init>:
mbedtls_mpi_montg_init():
/home/zrz0517/study/TEE/RT-TEE/optee_os/lib/libmbedtls/mbedtls/library/bignum.c:1613
    46a0:	f9400421 	ldr	x1, [x1, #8]
/home/zrz0517/study/TEE/RT-TEE/optee_os/lib/libmbedtls/mbedtls/library/bignum.c:1617
    46a4:	52800062 	mov	w2, #0x3                   	// #3
/home/zrz0517/study/TEE/RT-TEE/optee_os/lib/libmbedtls/mbedtls/library/bignum.c:1620
    46a8:	52800045 	mov	w5, #0x2                   	// #2
/home/zrz0517/study/TEE/RT-TEE/optee_os/lib/libmbedtls/mbedtls/library/bignum.c:1613
    46ac:	b9400023 	ldr	w3, [x1]
/home/zrz0517/study/TEE/RT-TEE/optee_os/lib/libmbedtls/mbedtls/library/bignum.c:1617
    46b0:	11000861 	add	w1, w3, #0x2
    46b4:	531f7821 	lsl	w1, w1, #1
    46b8:	121d0021 	and	w1, w1, #0x8
    46bc:	0b030021 	add	w1, w1, w3
/home/zrz0517/study/TEE/RT-TEE/optee_os/lib/libmbedtls/mbedtls/library/bignum.c:1620 (discriminator 3)
    46c0:	1b019464 	msub	w4, w3, w1, w5
/home/zrz0517/study/TEE/RT-TEE/optee_os/lib/libmbedtls/mbedtls/library/bignum.c:1619 (discriminator 3)
    46c4:	71000442 	subs	w2, w2, #0x1
/home/zrz0517/study/TEE/RT-TEE/optee_os/lib/libmbedtls/mbedtls/library/bignum.c:1620 (discriminator 3)
    46c8:	1b047c21 	mul	w1, w1, w4
/home/zrz0517/study/TEE/RT-TEE/optee_os/lib/libmbedtls/mbedtls/library/bignum.c:1619 (discriminator 3)
    46cc:	54ffffa1 	b.ne	46c0 <mbedtls_mpi_montg_init+0x20>  // b.any
/home/zrz0517/study/TEE/RT-TEE/optee_os/lib/libmbedtls/mbedtls/library/bignum.c:1622
    46d0:	4b0103e1 	neg	w1, w1
    46d4:	b9000001 	str	w1, [x0]
/home/zrz0517/study/TEE/RT-TEE/optee_os/lib/libmbedtls/mbedtls/library/bignum.c:1623
    46d8:	d65f03c0 	ret

00000000000046dc <mbedtls_mpi_montmul>:
mbedtls_mpi_montmul():
/home/zrz0517/study/TEE/RT-TEE/optee_os/lib/libmbedtls/mbedtls/library/bignum.c:1635
    46dc:	79400886 	ldrh	w6, [x4, #4]
    46e0:	79400845 	ldrh	w5, [x2, #4]
    46e4:	6b0600bf 	cmp	w5, w6
    46e8:	540008e2 	b.cs	4804 <mbedtls_mpi_montmul+0x128>  // b.hs, b.nlast
/home/zrz0517/study/TEE/RT-TEE/optee_os/lib/libmbedtls/mbedtls/library/bignum.c:1635 (discriminator 1)
    46ec:	f9400485 	ldr	x5, [x4, #8]
    46f0:	b40008a5 	cbz	x5, 4804 <mbedtls_mpi_montmul+0x128>
/home/zrz0517/study/TEE/RT-TEE/optee_os/lib/libmbedtls/mbedtls/library/bignum.c:1631
    46f4:	a9bb7bfd 	stp	x29, x30, [sp, #-80]!
    46f8:	910003fd 	mov	x29, sp
    46fc:	a90153f3 	stp	x19, x20, [sp, #16]
    4700:	aa0203f4 	mov	x20, x2
/home/zrz0517/study/TEE/RT-TEE/optee_os/lib/libmbedtls/mbedtls/library/bignum.c:1638
    4704:	d37e3cc2 	ubfiz	x2, x6, #2, #16
/home/zrz0517/study/TEE/RT-TEE/optee_os/lib/libmbedtls/mbedtls/library/bignum.c:1631
    4708:	a9025bf5 	stp	x21, x22, [sp, #32]
    470c:	aa0403f6 	mov	x22, x4
    4710:	aa0003f5 	mov	x21, x0
    4714:	a90363f7 	stp	x23, x24, [sp, #48]
    4718:	aa0103f8 	mov	x24, x1
    471c:	2a0303f7 	mov	w23, w3
/home/zrz0517/study/TEE/RT-TEE/optee_os/lib/libmbedtls/mbedtls/library/bignum.c:1638
    4720:	52800001 	mov	w1, #0x0                   	// #0
    4724:	aa0503e0 	mov	x0, x5
/home/zrz0517/study/TEE/RT-TEE/optee_os/lib/libmbedtls/mbedtls/library/bignum.c:1631
    4728:	a9046bf9 	stp	x25, x26, [sp, #64]
/home/zrz0517/study/TEE/RT-TEE/optee_os/lib/libmbedtls/mbedtls/library/bignum.c:1638
    472c:	94000a68 	bl	70cc <memset>
/home/zrz0517/study/TEE/RT-TEE/optee_os/lib/libmbedtls/mbedtls/library/bignum.c:1641
    4730:	79400a9a 	ldrh	w26, [x20, #4]
/home/zrz0517/study/TEE/RT-TEE/optee_os/lib/libmbedtls/mbedtls/library/bignum.c:1642
    4734:	79400b00 	ldrh	w0, [x24, #4]
/home/zrz0517/study/TEE/RT-TEE/optee_os/lib/libmbedtls/mbedtls/library/bignum.c:1644
    4738:	d280000e 	mov	x14, #0x0                   	// #0
/home/zrz0517/study/TEE/RT-TEE/optee_os/lib/libmbedtls/mbedtls/library/bignum.c:1641
    473c:	92403f53 	and	x19, x26, #0xffff
/home/zrz0517/study/TEE/RT-TEE/optee_os/lib/libmbedtls/mbedtls/library/bignum.c:1640
    4740:	f94006d9 	ldr	x25, [x22, #8]
/home/zrz0517/study/TEE/RT-TEE/optee_os/lib/libmbedtls/mbedtls/library/bignum.c:1655
    4744:	9100066d 	add	x13, x19, #0x1
/home/zrz0517/study/TEE/RT-TEE/optee_os/lib/libmbedtls/mbedtls/library/bignum.c:1642
    4748:	eb13001f 	cmp	x0, x19
    474c:	9a93900f 	csel	x15, x0, x19, ls  // ls = plast
/home/zrz0517/study/TEE/RT-TEE/optee_os/lib/libmbedtls/mbedtls/library/bignum.c:1655
    4750:	d37ef5ad 	lsl	x13, x13, #2
/home/zrz0517/study/TEE/RT-TEE/optee_os/lib/libmbedtls/mbedtls/library/bignum.c:1640
    4754:	aa1903eb 	mov	x11, x25
/home/zrz0517/study/TEE/RT-TEE/optee_os/lib/libmbedtls/mbedtls/library/bignum.c:1644 (discriminator 1)
    4758:	eb1301df 	cmp	x14, x19
    475c:	f94006a0 	ldr	x0, [x21, #8]
    4760:	54000263 	b.cc	47ac <mbedtls_mpi_montmul+0xd0>  // b.lo, b.ul, b.last
/home/zrz0517/study/TEE/RT-TEE/optee_os/lib/libmbedtls/mbedtls/library/bignum.c:1658
    4764:	aa0d03e2 	mov	x2, x13
    4768:	8b3a2b21 	add	x1, x25, w26, uxth #2
    476c:	94000a39 	bl	7050 <memcpy>
/home/zrz0517/study/TEE/RT-TEE/optee_os/lib/libmbedtls/mbedtls/library/bignum.c:1660
    4770:	aa1403e1 	mov	x1, x20
    4774:	aa1503e0 	mov	x0, x21
    4778:	97fffb3b 	bl	3464 <mbedtls_mpi_cmp_abs>
    477c:	37f803e0 	tbnz	w0, #31, 47f8 <mbedtls_mpi_montmul+0x11c>
/home/zrz0517/study/TEE/RT-TEE/optee_os/lib/libmbedtls/mbedtls/library/bignum.c:1661
    4780:	f9400681 	ldr	x1, [x20, #8]
    4784:	f94006a2 	ldr	x2, [x21, #8]
/home/zrz0517/study/TEE/RT-TEE/optee_os/lib/libmbedtls/mbedtls/library/bignum.c:1664
    4788:	aa1303e0 	mov	x0, x19
    478c:	97fff711 	bl	23d0 <mpi_sub_hlp>
/home/zrz0517/study/TEE/RT-TEE/optee_os/lib/libmbedtls/mbedtls/library/bignum.c:1666
    4790:	52800000 	mov	w0, #0x0                   	// #0
/home/zrz0517/study/TEE/RT-TEE/optee_os/lib/libmbedtls/mbedtls/library/bignum.c:1667
    4794:	a94153f3 	ldp	x19, x20, [sp, #16]
    4798:	a9425bf5 	ldp	x21, x22, [sp, #32]
    479c:	a94363f7 	ldp	x23, x24, [sp, #48]
    47a0:	a9446bf9 	ldp	x25, x26, [sp, #64]
    47a4:	a8c57bfd 	ldp	x29, x30, [sp], #80
    47a8:	d65f03c0 	ret
/home/zrz0517/study/TEE/RT-TEE/optee_os/lib/libmbedtls/mbedtls/library/bignum.c:1650 (discriminator 3)
    47ac:	f9400701 	ldr	x1, [x24, #8]
/home/zrz0517/study/TEE/RT-TEE/optee_os/lib/libmbedtls/mbedtls/library/bignum.c:1652 (discriminator 3)
    47b0:	aa0b03e2 	mov	x2, x11
/home/zrz0517/study/TEE/RT-TEE/optee_os/lib/libmbedtls/mbedtls/library/bignum.c:1649 (discriminator 3)
    47b4:	b86e7812 	ldr	w18, [x0, x14, lsl #2]
/home/zrz0517/study/TEE/RT-TEE/optee_os/lib/libmbedtls/mbedtls/library/bignum.c:1650 (discriminator 3)
    47b8:	b9400160 	ldr	w0, [x11]
    47bc:	b940002c 	ldr	w12, [x1]
/home/zrz0517/study/TEE/RT-TEE/optee_os/lib/libmbedtls/mbedtls/library/bignum.c:1652 (discriminator 3)
    47c0:	2a1203e3 	mov	w3, w18
/home/zrz0517/study/TEE/RT-TEE/optee_os/lib/libmbedtls/mbedtls/library/bignum.c:1650 (discriminator 3)
    47c4:	1b0c024c 	madd	w12, w18, w12, w0
/home/zrz0517/study/TEE/RT-TEE/optee_os/lib/libmbedtls/mbedtls/library/bignum.c:1652 (discriminator 3)
    47c8:	aa0f03e0 	mov	x0, x15
/home/zrz0517/study/TEE/RT-TEE/optee_os/lib/libmbedtls/mbedtls/library/bignum.c:1650 (discriminator 3)
    47cc:	1b177d8c 	mul	w12, w12, w23
/home/zrz0517/study/TEE/RT-TEE/optee_os/lib/libmbedtls/mbedtls/library/bignum.c:1652 (discriminator 3)
    47d0:	97fff718 	bl	2430 <mpi_mul_hlp>
/home/zrz0517/study/TEE/RT-TEE/optee_os/lib/libmbedtls/mbedtls/library/bignum.c:1653 (discriminator 3)
    47d4:	aa0b03e2 	mov	x2, x11
    47d8:	f9400681 	ldr	x1, [x20, #8]
    47dc:	2a0c03e3 	mov	w3, w12
    47e0:	aa1303e0 	mov	x0, x19
    47e4:	97fff713 	bl	2430 <mpi_mul_hlp>
/home/zrz0517/study/TEE/RT-TEE/optee_os/lib/libmbedtls/mbedtls/library/bignum.c:1655 (discriminator 3)
    47e8:	b8004572 	str	w18, [x11], #4
/home/zrz0517/study/TEE/RT-TEE/optee_os/lib/libmbedtls/mbedtls/library/bignum.c:1644 (discriminator 3)
    47ec:	910005ce 	add	x14, x14, #0x1
/home/zrz0517/study/TEE/RT-TEE/optee_os/lib/libmbedtls/mbedtls/library/bignum.c:1655 (discriminator 3)
    47f0:	b82d697f 	str	wzr, [x11, x13]
    47f4:	17ffffd9 	b	4758 <mbedtls_mpi_montmul+0x7c>
/home/zrz0517/study/TEE/RT-TEE/optee_os/lib/libmbedtls/mbedtls/library/bignum.c:1664
    47f8:	f94006a1 	ldr	x1, [x21, #8]
    47fc:	f94006c2 	ldr	x2, [x22, #8]
    4800:	17ffffe2 	b	4788 <mbedtls_mpi_montmul+0xac>
/home/zrz0517/study/TEE/RT-TEE/optee_os/lib/libmbedtls/mbedtls/library/bignum.c:1636
    4804:	12800060 	mov	w0, #0xfffffffc            	// #-4
/home/zrz0517/study/TEE/RT-TEE/optee_os/lib/libmbedtls/mbedtls/library/bignum.c:1667
    4808:	d65f03c0 	ret

000000000000480c <mbedtls_mpi_montred>:
mbedtls_mpi_montred():
/home/zrz0517/study/TEE/RT-TEE/optee_os/lib/libmbedtls/mbedtls/library/bignum.c:1674
    480c:	a9bd7bfd 	stp	x29, x30, [sp, #-48]!
/home/zrz0517/study/TEE/RT-TEE/optee_os/lib/libmbedtls/mbedtls/library/bignum.c:1675
    4810:	52800024 	mov	w4, #0x1                   	// #1
/home/zrz0517/study/TEE/RT-TEE/optee_os/lib/libmbedtls/mbedtls/library/bignum.c:1674
    4814:	910003fd 	mov	x29, sp
/home/zrz0517/study/TEE/RT-TEE/optee_os/lib/libmbedtls/mbedtls/library/bignum.c:1675
    4818:	b9001fe4 	str	w4, [sp, #28]
/home/zrz0517/study/TEE/RT-TEE/optee_os/lib/libmbedtls/mbedtls/library/bignum.c:1678
    481c:	390083e4 	strb	w4, [sp, #32]
    4820:	79004be4 	strh	w4, [sp, #36]
/home/zrz0517/study/TEE/RT-TEE/optee_os/lib/libmbedtls/mbedtls/library/bignum.c:1679
    4824:	910073e4 	add	x4, sp, #0x1c
    4828:	f90017e4 	str	x4, [sp, #40]
/home/zrz0517/study/TEE/RT-TEE/optee_os/lib/libmbedtls/mbedtls/library/bignum.c:1681
    482c:	aa0303e4 	mov	x4, x3
    4830:	2a0203e3 	mov	w3, w2
    4834:	aa0103e2 	mov	x2, x1
    4838:	910083e1 	add	x1, sp, #0x20
    483c:	97ffffa8 	bl	46dc <mbedtls_mpi_montmul>
/home/zrz0517/study/TEE/RT-TEE/optee_os/lib/libmbedtls/mbedtls/library/bignum.c:1682
    4840:	a8c37bfd 	ldp	x29, x30, [sp], #48
    4844:	d65f03c0 	ret

0000000000004848 <mbedtls_mpi_exp_mod>:
mbedtls_mpi_exp_mod():
/home/zrz0517/study/TEE/RT-TEE/optee_os/lib/libmbedtls/mbedtls/library/bignum.c:1688
    4848:	d12383ff 	sub	sp, sp, #0x8e0
    484c:	a9007bfd 	stp	x29, x30, [sp]
    4850:	910003fd 	mov	x29, sp
    4854:	a90153f3 	stp	x19, x20, [sp, #16]
    4858:	aa0003f4 	mov	x20, x0
    485c:	aa0303f3 	mov	x19, x3
/home/zrz0517/study/TEE/RT-TEE/optee_os/lib/libmbedtls/mbedtls/library/bignum.c:1697
    4860:	aa0303e0 	mov	x0, x3
/home/zrz0517/study/TEE/RT-TEE/optee_os/lib/libmbedtls/mbedtls/library/bignum.c:1688
    4864:	a9025bf5 	stp	x21, x22, [sp, #32]
    4868:	a90363f7 	stp	x23, x24, [sp, #48]
    486c:	a9046bf9 	stp	x25, x26, [sp, #64]
    4870:	aa0203fa 	mov	x26, x2
    4874:	aa0403f9 	mov	x25, x4
    4878:	a90573fb 	stp	x27, x28, [sp, #80]
    487c:	aa0103fc 	mov	x28, x1
/home/zrz0517/study/TEE/RT-TEE/optee_os/lib/libmbedtls/mbedtls/library/bignum.c:1697
    4880:	52800001 	mov	w1, #0x0                   	// #0
    4884:	97fffb54 	bl	35d4 <mbedtls_mpi_cmp_int>
    4888:	37f82f80 	tbnz	w0, #31, 4e78 <mbedtls_mpi_exp_mod+0x630>
/home/zrz0517/study/TEE/RT-TEE/optee_os/lib/libmbedtls/mbedtls/library/bignum.c:1697 (discriminator 1)
    488c:	f9400660 	ldr	x0, [x19, #8]
    4890:	b9400000 	ldr	w0, [x0]
    4894:	36002f20 	tbz	w0, #0, 4e78 <mbedtls_mpi_exp_mod+0x630>
/home/zrz0517/study/TEE/RT-TEE/optee_os/lib/libmbedtls/mbedtls/library/bignum.c:1700
    4898:	52800001 	mov	w1, #0x0                   	// #0
    489c:	aa1a03e0 	mov	x0, x26
    48a0:	97fffb4d 	bl	35d4 <mbedtls_mpi_cmp_int>
    48a4:	37f82ea0 	tbnz	w0, #31, 4e78 <mbedtls_mpi_exp_mod+0x630>
/home/zrz0517/study/TEE/RT-TEE/optee_os/lib/libmbedtls/mbedtls/library/bignum.c:1706
    48a8:	aa1303e1 	mov	x1, x19
    48ac:	9102b3e0 	add	x0, sp, #0xac
/home/zrz0517/study/TEE/RT-TEE/optee_os/lib/libmbedtls/mbedtls/library/bignum.c:1707
    48b0:	9102c3f8 	add	x24, sp, #0xb0
/home/zrz0517/study/TEE/RT-TEE/optee_os/lib/libmbedtls/mbedtls/library/bignum.c:1706
    48b4:	97ffff7b 	bl	46a0 <mbedtls_mpi_montg_init>
/home/zrz0517/study/TEE/RT-TEE/optee_os/lib/libmbedtls/mbedtls/library/bignum.c:1707
    48b8:	aa1803e0 	mov	x0, x24
    48bc:	910303f5 	add	x21, sp, #0xc0
    48c0:	97fff82d 	bl	2974 <mbedtls_mpi_init_mempool>
/home/zrz0517/study/TEE/RT-TEE/optee_os/lib/libmbedtls/mbedtls/library/bignum.c:1709
    48c4:	910383f7 	add	x23, sp, #0xe0
/home/zrz0517/study/TEE/RT-TEE/optee_os/lib/libmbedtls/mbedtls/library/bignum.c:1707
    48c8:	aa1503e0 	mov	x0, x21
    48cc:	97fff82a 	bl	2974 <mbedtls_mpi_init_mempool>
/home/zrz0517/study/TEE/RT-TEE/optee_os/lib/libmbedtls/mbedtls/library/bignum.c:1708
    48d0:	910343e0 	add	x0, sp, #0xd0
    48d4:	f90037e0 	str	x0, [sp, #104]
    48d8:	97fff827 	bl	2974 <mbedtls_mpi_init_mempool>
/home/zrz0517/study/TEE/RT-TEE/optee_os/lib/libmbedtls/mbedtls/library/bignum.c:1709
    48dc:	d2810002 	mov	x2, #0x800                 	// #2048
    48e0:	52800001 	mov	w1, #0x0                   	// #0
    48e4:	aa1703e0 	mov	x0, x23
    48e8:	940009f9 	bl	70cc <memset>
/home/zrz0517/study/TEE/RT-TEE/optee_os/lib/libmbedtls/mbedtls/library/bignum.c:1711
    48ec:	aa1a03e0 	mov	x0, x26
    48f0:	97fff9fe 	bl	30e8 <mbedtls_mpi_bitlen>
/home/zrz0517/study/TEE/RT-TEE/optee_os/lib/libmbedtls/mbedtls/library/bignum.c:1713
    48f4:	f10a7c1f 	cmp	x0, #0x29f
    48f8:	54001128 	b.hi	4b1c <mbedtls_mpi_exp_mod+0x2d4>  // b.pmore
/home/zrz0517/study/TEE/RT-TEE/optee_os/lib/libmbedtls/mbedtls/library/bignum.c:1713 (discriminator 1)
    48fc:	f103bc1f 	cmp	x0, #0xef
    4900:	54001128 	b.hi	4b24 <mbedtls_mpi_exp_mod+0x2dc>  // b.pmore
/home/zrz0517/study/TEE/RT-TEE/optee_os/lib/libmbedtls/mbedtls/library/bignum.c:1713 (discriminator 3)
    4904:	f1013c1f 	cmp	x0, #0x4f
    4908:	54001128 	b.hi	4b2c <mbedtls_mpi_exp_mod+0x2e4>  // b.pmore
/home/zrz0517/study/TEE/RT-TEE/optee_os/lib/libmbedtls/mbedtls/library/bignum.c:1713 (discriminator 5)
    490c:	f1005c1f 	cmp	x0, #0x17
    4910:	d2800076 	mov	x22, #0x3                   	// #3
    4914:	9a9f86d6 	csinc	x22, x22, xzr, hi  // hi = pmore
/home/zrz0517/study/TEE/RT-TEE/optee_os/lib/libmbedtls/mbedtls/library/bignum.c:1719
    4918:	79400a63 	ldrh	w3, [x19, #4]
/home/zrz0517/study/TEE/RT-TEE/optee_os/lib/libmbedtls/mbedtls/library/bignum.c:1720
    491c:	aa1403e0 	mov	x0, x20
/home/zrz0517/study/TEE/RT-TEE/optee_os/lib/libmbedtls/mbedtls/library/bignum.c:1719
    4920:	91000463 	add	x3, x3, #0x1
/home/zrz0517/study/TEE/RT-TEE/optee_os/lib/libmbedtls/mbedtls/library/bignum.c:1720
    4924:	f9003be3 	str	x3, [sp, #112]
    4928:	aa0303e1 	mov	x1, x3
    492c:	97fff848 	bl	2a4c <mbedtls_mpi_grow>
    4930:	2a0003fb 	mov	w27, w0
    4934:	35002660 	cbnz	w0, 4e00 <mbedtls_mpi_exp_mod+0x5b8>
/home/zrz0517/study/TEE/RT-TEE/optee_os/lib/libmbedtls/mbedtls/library/bignum.c:1721
    4938:	f9403be3 	ldr	x3, [sp, #112]
    493c:	910042e0 	add	x0, x23, #0x10
    4940:	aa0303e1 	mov	x1, x3
    4944:	97fff842 	bl	2a4c <mbedtls_mpi_grow>
    4948:	2a0003fb 	mov	w27, w0
    494c:	350025a0 	cbnz	w0, 4e00 <mbedtls_mpi_exp_mod+0x5b8>
/home/zrz0517/study/TEE/RT-TEE/optee_os/lib/libmbedtls/mbedtls/library/bignum.c:1722
    4950:	f9403be3 	ldr	x3, [sp, #112]
    4954:	aa1503e0 	mov	x0, x21
    4958:	d37ff861 	lsl	x1, x3, #1
    495c:	97fff83c 	bl	2a4c <mbedtls_mpi_grow>
    4960:	2a0003fb 	mov	w27, w0
    4964:	350024e0 	cbnz	w0, 4e00 <mbedtls_mpi_exp_mod+0x5b8>
/home/zrz0517/study/TEE/RT-TEE/optee_os/lib/libmbedtls/mbedtls/library/bignum.c:1727
    4968:	39c00380 	ldrsb	w0, [x28]
    496c:	b90073e0 	str	w0, [sp, #112]
/home/zrz0517/study/TEE/RT-TEE/optee_os/lib/libmbedtls/mbedtls/library/bignum.c:1728
    4970:	3100041f 	cmn	w0, #0x1
    4974:	54000121 	b.ne	4998 <mbedtls_mpi_exp_mod+0x150>  // b.any
/home/zrz0517/study/TEE/RT-TEE/optee_os/lib/libmbedtls/mbedtls/library/bignum.c:1730
    4978:	f94037e0 	ldr	x0, [sp, #104]
    497c:	aa1c03e1 	mov	x1, x28
    4980:	97fff8d1 	bl	2cc4 <mbedtls_mpi_copy>
    4984:	2a0003fb 	mov	w27, w0
    4988:	350023c0 	cbnz	w0, 4e00 <mbedtls_mpi_exp_mod+0x5b8>
/home/zrz0517/study/TEE/RT-TEE/optee_os/lib/libmbedtls/mbedtls/library/bignum.c:1732
    498c:	f94037fc 	ldr	x28, [sp, #104]
/home/zrz0517/study/TEE/RT-TEE/optee_os/lib/libmbedtls/mbedtls/library/bignum.c:1731
    4990:	52800020 	mov	w0, #0x1                   	// #1
    4994:	390343e0 	strb	w0, [sp, #208]
/home/zrz0517/study/TEE/RT-TEE/optee_os/lib/libmbedtls/mbedtls/library/bignum.c:1738
    4998:	b4000079 	cbz	x25, 49a4 <mbedtls_mpi_exp_mod+0x15c>
/home/zrz0517/study/TEE/RT-TEE/optee_os/lib/libmbedtls/mbedtls/library/bignum.c:1738 (discriminator 1)
    499c:	f9400720 	ldr	x0, [x25, #8]
    49a0:	b5000ca0 	cbnz	x0, 4b34 <mbedtls_mpi_exp_mod+0x2ec>
/home/zrz0517/study/TEE/RT-TEE/optee_os/lib/libmbedtls/mbedtls/library/bignum.c:1740
    49a4:	52800021 	mov	w1, #0x1                   	// #1
    49a8:	aa1803e0 	mov	x0, x24
    49ac:	97fff971 	bl	2f70 <mbedtls_mpi_lset>
    49b0:	2a0003fb 	mov	w27, w0
    49b4:	35002260 	cbnz	w0, 4e00 <mbedtls_mpi_exp_mod+0x5b8>
/home/zrz0517/study/TEE/RT-TEE/optee_os/lib/libmbedtls/mbedtls/library/bignum.c:1741
    49b8:	79400a61 	ldrh	w1, [x19, #4]
    49bc:	aa1803e0 	mov	x0, x24
    49c0:	d37a3c21 	ubfiz	x1, x1, #6, #16
    49c4:	97fffa37 	bl	32a0 <mbedtls_mpi_shift_l>
    49c8:	2a0003fb 	mov	w27, w0
    49cc:	350021a0 	cbnz	w0, 4e00 <mbedtls_mpi_exp_mod+0x5b8>
/home/zrz0517/study/TEE/RT-TEE/optee_os/lib/libmbedtls/mbedtls/library/bignum.c:1742
    49d0:	aa1303e2 	mov	x2, x19
    49d4:	aa1803e1 	mov	x1, x24
    49d8:	aa1803e0 	mov	x0, x24
    49dc:	97fffe23 	bl	4268 <mbedtls_mpi_mod_mpi>
    49e0:	2a0003fb 	mov	w27, w0
    49e4:	350020e0 	cbnz	w0, 4e00 <mbedtls_mpi_exp_mod+0x5b8>
/home/zrz0517/study/TEE/RT-TEE/optee_os/lib/libmbedtls/mbedtls/library/bignum.c:1744
    49e8:	b40000b9 	cbz	x25, 49fc <mbedtls_mpi_exp_mod+0x1b4>
/home/zrz0517/study/TEE/RT-TEE/optee_os/lib/libmbedtls/mbedtls/library/bignum.c:1745
    49ec:	aa1803e1 	mov	x1, x24
    49f0:	aa1903e0 	mov	x0, x25
    49f4:	d2800202 	mov	x2, #0x10                  	// #16
/home/zrz0517/study/TEE/RT-TEE/optee_os/lib/libmbedtls/mbedtls/library/bignum.c:1748
    49f8:	94000996 	bl	7050 <memcpy>
/home/zrz0517/study/TEE/RT-TEE/optee_os/lib/libmbedtls/mbedtls/library/bignum.c:1753
    49fc:	aa1303e1 	mov	x1, x19
    4a00:	aa1c03e0 	mov	x0, x28
    4a04:	97fffabf 	bl	3500 <mbedtls_mpi_cmp_mpi>
    4a08:	37f809e0 	tbnz	w0, #31, 4b44 <mbedtls_mpi_exp_mod+0x2fc>
/home/zrz0517/study/TEE/RT-TEE/optee_os/lib/libmbedtls/mbedtls/library/bignum.c:1754
    4a0c:	aa1303e2 	mov	x2, x19
    4a10:	aa1c03e1 	mov	x1, x28
    4a14:	910042e0 	add	x0, x23, #0x10
    4a18:	97fffe14 	bl	4268 <mbedtls_mpi_mod_mpi>
    4a1c:	2a0003fb 	mov	w27, w0
    4a20:	35001f00 	cbnz	w0, 4e00 <mbedtls_mpi_exp_mod+0x5b8>
/home/zrz0517/study/TEE/RT-TEE/optee_os/lib/libmbedtls/mbedtls/library/bignum.c:1758
    4a24:	b940afe3 	ldr	w3, [sp, #172]
    4a28:	910042fc 	add	x28, x23, #0x10
    4a2c:	aa1503e4 	mov	x4, x21
    4a30:	aa1303e2 	mov	x2, x19
    4a34:	aa1803e1 	mov	x1, x24
    4a38:	aa1c03e0 	mov	x0, x28
    4a3c:	97ffff28 	bl	46dc <mbedtls_mpi_montmul>
    4a40:	2a0003fb 	mov	w27, w0
    4a44:	35001de0 	cbnz	w0, 4e00 <mbedtls_mpi_exp_mod+0x5b8>
/home/zrz0517/study/TEE/RT-TEE/optee_os/lib/libmbedtls/mbedtls/library/bignum.c:1763
    4a48:	aa1803e1 	mov	x1, x24
    4a4c:	aa1403e0 	mov	x0, x20
    4a50:	97fff89d 	bl	2cc4 <mbedtls_mpi_copy>
    4a54:	2a0003fb 	mov	w27, w0
    4a58:	35001d40 	cbnz	w0, 4e00 <mbedtls_mpi_exp_mod+0x5b8>
/home/zrz0517/study/TEE/RT-TEE/optee_os/lib/libmbedtls/mbedtls/library/bignum.c:1764
    4a5c:	b940afe2 	ldr	w2, [sp, #172]
    4a60:	aa1503e3 	mov	x3, x21
    4a64:	aa1303e1 	mov	x1, x19
    4a68:	aa1403e0 	mov	x0, x20
    4a6c:	97ffff68 	bl	480c <mbedtls_mpi_montred>
    4a70:	2a0003fb 	mov	w27, w0
    4a74:	35001c60 	cbnz	w0, 4e00 <mbedtls_mpi_exp_mod+0x5b8>
    4a78:	b90083f6 	str	w22, [sp, #128]
/home/zrz0517/study/TEE/RT-TEE/optee_os/lib/libmbedtls/mbedtls/library/bignum.c:1766
    4a7c:	f10006df 	cmp	x22, #0x1
    4a80:	540006a1 	b.ne	4b54 <mbedtls_mpi_exp_mod+0x30c>  // b.any
/home/zrz0517/study/TEE/RT-TEE/optee_os/lib/libmbedtls/mbedtls/library/bignum.c:1791
    4a84:	79400b5c 	ldrh	w28, [x26, #4]
/home/zrz0517/study/TEE/RT-TEE/optee_os/lib/libmbedtls/mbedtls/library/bignum.c:1795
    4a88:	52800003 	mov	w3, #0x0                   	// #0
/home/zrz0517/study/TEE/RT-TEE/optee_os/lib/libmbedtls/mbedtls/library/bignum.c:1793
    4a8c:	d2800005 	mov	x5, #0x0                   	// #0
/home/zrz0517/study/TEE/RT-TEE/optee_os/lib/libmbedtls/mbedtls/library/bignum.c:1792
    4a90:	d2800007 	mov	x7, #0x0                   	// #0
/home/zrz0517/study/TEE/RT-TEE/optee_os/lib/libmbedtls/mbedtls/library/bignum.c:1794
    4a94:	d2800006 	mov	x6, #0x0                   	// #0
/home/zrz0517/study/TEE/RT-TEE/optee_os/lib/libmbedtls/mbedtls/library/bignum.c:1799
    4a98:	b5001007 	cbnz	x7, 4c98 <mbedtls_mpi_exp_mod+0x450>
/home/zrz0517/study/TEE/RT-TEE/optee_os/lib/libmbedtls/mbedtls/library/bignum.c:1801
    4a9c:	b5000fbc 	cbnz	x28, 4c90 <mbedtls_mpi_exp_mod+0x448>
/home/zrz0517/study/TEE/RT-TEE/optee_os/lib/libmbedtls/mbedtls/library/bignum.c:1864
    4aa0:	394203e1 	ldrb	w1, [sp, #128]
    4aa4:	d2800020 	mov	x0, #0x1                   	// #1
    4aa8:	9ac12000 	lsl	x0, x0, x1
    4aac:	f9003fe0 	str	x0, [sp, #120]
/home/zrz0517/study/TEE/RT-TEE/optee_os/lib/libmbedtls/mbedtls/library/bignum.c:1865
    4ab0:	910042e0 	add	x0, x23, #0x10
    4ab4:	f90043e0 	str	x0, [sp, #128]
/home/zrz0517/study/TEE/RT-TEE/optee_os/lib/libmbedtls/mbedtls/library/bignum.c:1858 (discriminator 1)
    4ab8:	eb05039f 	cmp	x28, x5
    4abc:	b940afe2 	ldr	w2, [sp, #172]
    4ac0:	540016c1 	b.ne	4d98 <mbedtls_mpi_exp_mod+0x550>  // b.any
/home/zrz0517/study/TEE/RT-TEE/optee_os/lib/libmbedtls/mbedtls/library/bignum.c:1871
    4ac4:	aa1503e3 	mov	x3, x21
    4ac8:	aa1303e1 	mov	x1, x19
    4acc:	aa1403e0 	mov	x0, x20
    4ad0:	97ffff4f 	bl	480c <mbedtls_mpi_montred>
    4ad4:	2a0003fb 	mov	w27, w0
    4ad8:	35001940 	cbnz	w0, 4e00 <mbedtls_mpi_exp_mod+0x5b8>
/home/zrz0517/study/TEE/RT-TEE/optee_os/lib/libmbedtls/mbedtls/library/bignum.c:1873
    4adc:	b94073e0 	ldr	w0, [sp, #112]
    4ae0:	3100041f 	cmn	w0, #0x1
    4ae4:	540018e1 	b.ne	4e00 <mbedtls_mpi_exp_mod+0x5b8>  // b.any
/home/zrz0517/study/TEE/RT-TEE/optee_os/lib/libmbedtls/mbedtls/library/bignum.c:1873 (discriminator 1)
    4ae8:	79400b40 	ldrh	w0, [x26, #4]
    4aec:	340018a0 	cbz	w0, 4e00 <mbedtls_mpi_exp_mod+0x5b8>
/home/zrz0517/study/TEE/RT-TEE/optee_os/lib/libmbedtls/mbedtls/library/bignum.c:1873 (discriminator 2)
    4af0:	f9400740 	ldr	x0, [x26, #8]
    4af4:	b9400000 	ldr	w0, [x0]
    4af8:	36001840 	tbz	w0, #0, 4e00 <mbedtls_mpi_exp_mod+0x5b8>
/home/zrz0517/study/TEE/RT-TEE/optee_os/lib/libmbedtls/mbedtls/library/bignum.c:1875
    4afc:	3941c3e0 	ldrb	w0, [sp, #112]
/home/zrz0517/study/TEE/RT-TEE/optee_os/lib/libmbedtls/mbedtls/library/bignum.c:1876
    4b00:	aa1403e2 	mov	x2, x20
/home/zrz0517/study/TEE/RT-TEE/optee_os/lib/libmbedtls/mbedtls/library/bignum.c:1875
    4b04:	39000280 	strb	w0, [x20]
/home/zrz0517/study/TEE/RT-TEE/optee_os/lib/libmbedtls/mbedtls/library/bignum.c:1876
    4b08:	aa1303e1 	mov	x1, x19
    4b0c:	aa1403e0 	mov	x0, x20
    4b10:	97fffb41 	bl	3814 <mbedtls_mpi_add_mpi>
    4b14:	2a0003fb 	mov	w27, w0
/home/zrz0517/study/TEE/RT-TEE/optee_os/lib/libmbedtls/mbedtls/library/bignum.c:1879
    4b18:	140000ba 	b	4e00 <mbedtls_mpi_exp_mod+0x5b8>
/home/zrz0517/study/TEE/RT-TEE/optee_os/lib/libmbedtls/mbedtls/library/bignum.c:1713
    4b1c:	d28000d6 	mov	x22, #0x6                   	// #6
    4b20:	17ffff7e 	b	4918 <mbedtls_mpi_exp_mod+0xd0>
    4b24:	d28000b6 	mov	x22, #0x5                   	// #5
    4b28:	17ffff7c 	b	4918 <mbedtls_mpi_exp_mod+0xd0>
    4b2c:	d2800096 	mov	x22, #0x4                   	// #4
    4b30:	17ffff7a 	b	4918 <mbedtls_mpi_exp_mod+0xd0>
/home/zrz0517/study/TEE/RT-TEE/optee_os/lib/libmbedtls/mbedtls/library/bignum.c:1748
    4b34:	d2800202 	mov	x2, #0x10                  	// #16
    4b38:	aa1903e1 	mov	x1, x25
    4b3c:	aa1803e0 	mov	x0, x24
    4b40:	17ffffae 	b	49f8 <mbedtls_mpi_exp_mod+0x1b0>
/home/zrz0517/study/TEE/RT-TEE/optee_os/lib/libmbedtls/mbedtls/library/bignum.c:1756
    4b44:	aa1c03e1 	mov	x1, x28
    4b48:	910042e0 	add	x0, x23, #0x10
    4b4c:	97fff85e 	bl	2cc4 <mbedtls_mpi_copy>
    4b50:	17ffffb3 	b	4a1c <mbedtls_mpi_exp_mod+0x1d4>
    4b54:	510006c0 	sub	w0, w22, #0x1
    4b58:	d2800021 	mov	x1, #0x1                   	// #1
/home/zrz0517/study/TEE/RT-TEE/optee_os/lib/libmbedtls/mbedtls/library/bignum.c:1773
    4b5c:	d2800205 	mov	x5, #0x10                  	// #16
    4b60:	9ac02021 	lsl	x1, x1, x0
    4b64:	f9003fe1 	str	x1, [sp, #120]
    4b68:	9ac020a5 	lsl	x5, x5, x0
    4b6c:	8b0502e5 	add	x5, x23, x5
    4b70:	79400a61 	ldrh	w1, [x19, #4]
    4b74:	aa0503e0 	mov	x0, x5
    4b78:	f90047e5 	str	x5, [sp, #136]
    4b7c:	91000421 	add	x1, x1, #0x1
    4b80:	97fff7b3 	bl	2a4c <mbedtls_mpi_grow>
    4b84:	2a0003fb 	mov	w27, w0
    4b88:	350013c0 	cbnz	w0, 4e00 <mbedtls_mpi_exp_mod+0x5b8>
/home/zrz0517/study/TEE/RT-TEE/optee_os/lib/libmbedtls/mbedtls/library/bignum.c:1774
    4b8c:	f94047e5 	ldr	x5, [sp, #136]
    4b90:	aa1c03e1 	mov	x1, x28
    4b94:	aa0503e0 	mov	x0, x5
    4b98:	97fff84b 	bl	2cc4 <mbedtls_mpi_copy>
    4b9c:	2a0003fb 	mov	w27, w0
    4ba0:	35001300 	cbnz	w0, 4e00 <mbedtls_mpi_exp_mod+0x5b8>
/home/zrz0517/study/TEE/RT-TEE/optee_os/lib/libmbedtls/mbedtls/library/bignum.c:1776
    4ba4:	f94047e5 	ldr	x5, [sp, #136]
    4ba8:	d10006c6 	sub	x6, x22, #0x1
    4bac:	d280001c 	mov	x28, #0x0                   	// #0
/home/zrz0517/study/TEE/RT-TEE/optee_os/lib/libmbedtls/mbedtls/library/bignum.c:1777
    4bb0:	b940afe3 	ldr	w3, [sp, #172]
    4bb4:	aa1503e4 	mov	x4, x21
    4bb8:	aa1303e2 	mov	x2, x19
    4bbc:	aa0503e1 	mov	x1, x5
    4bc0:	aa0503e0 	mov	x0, x5
    4bc4:	a9089be5 	stp	x5, x6, [sp, #136]
    4bc8:	97fffec5 	bl	46dc <mbedtls_mpi_montmul>
    4bcc:	2a0003fb 	mov	w27, w0
    4bd0:	35001180 	cbnz	w0, 4e00 <mbedtls_mpi_exp_mod+0x5b8>
/home/zrz0517/study/TEE/RT-TEE/optee_os/lib/libmbedtls/mbedtls/library/bignum.c:1776 (discriminator 2)
    4bd4:	a9489be5 	ldp	x5, x6, [sp, #136]
    4bd8:	9100079c 	add	x28, x28, #0x1
    4bdc:	eb1c00df 	cmp	x6, x28
    4be0:	54fffe88 	b.hi	4bb0 <mbedtls_mpi_exp_mod+0x368>  // b.pmore
/home/zrz0517/study/TEE/RT-TEE/optee_os/lib/libmbedtls/mbedtls/library/bignum.c:1782
    4be4:	f9403fe0 	ldr	x0, [sp, #120]
    4be8:	394203e1 	ldrb	w1, [sp, #128]
    4bec:	91000400 	add	x0, x0, #0x1
    4bf0:	f9003fe0 	str	x0, [sp, #120]
    4bf4:	d2800020 	mov	x0, #0x1                   	// #1
    4bf8:	9ac12000 	lsl	x0, x0, x1
    4bfc:	f90047e0 	str	x0, [sp, #136]
/home/zrz0517/study/TEE/RT-TEE/optee_os/lib/libmbedtls/mbedtls/library/bignum.c:1787
    4c00:	910042e0 	add	x0, x23, #0x10
    4c04:	f9004be0 	str	x0, [sp, #144]
/home/zrz0517/study/TEE/RT-TEE/optee_os/lib/libmbedtls/mbedtls/library/bignum.c:1782 (discriminator 1)
    4c08:	f9403fe1 	ldr	x1, [sp, #120]
    4c0c:	f94047e0 	ldr	x0, [sp, #136]
    4c10:	eb01001f 	cmp	x0, x1
    4c14:	54fff389 	b.ls	4a84 <mbedtls_mpi_exp_mod+0x23c>  // b.plast
/home/zrz0517/study/TEE/RT-TEE/optee_os/lib/libmbedtls/mbedtls/library/bignum.c:1784
    4c18:	79400a61 	ldrh	w1, [x19, #4]
    4c1c:	910040bc 	add	x28, x5, #0x10
    4c20:	aa1c03e0 	mov	x0, x28
    4c24:	f9004fe5 	str	x5, [sp, #152]
    4c28:	91000421 	add	x1, x1, #0x1
    4c2c:	97fff788 	bl	2a4c <mbedtls_mpi_grow>
    4c30:	2a0003fb 	mov	w27, w0
    4c34:	35000e60 	cbnz	w0, 4e00 <mbedtls_mpi_exp_mod+0x5b8>
/home/zrz0517/study/TEE/RT-TEE/optee_os/lib/libmbedtls/mbedtls/library/bignum.c:1785
    4c38:	f9404fe5 	ldr	x5, [sp, #152]
    4c3c:	aa1c03e0 	mov	x0, x28
    4c40:	aa0503e1 	mov	x1, x5
    4c44:	97fff820 	bl	2cc4 <mbedtls_mpi_copy>
    4c48:	2a0003fb 	mov	w27, w0
    4c4c:	35000da0 	cbnz	w0, 4e00 <mbedtls_mpi_exp_mod+0x5b8>
/home/zrz0517/study/TEE/RT-TEE/optee_os/lib/libmbedtls/mbedtls/library/bignum.c:1787
    4c50:	b940afe3 	ldr	w3, [sp, #172]
    4c54:	aa1503e4 	mov	x4, x21
    4c58:	f9404be1 	ldr	x1, [sp, #144]
    4c5c:	aa1303e2 	mov	x2, x19
    4c60:	aa1c03e0 	mov	x0, x28
    4c64:	97fffe9e 	bl	46dc <mbedtls_mpi_montmul>
    4c68:	2a0003fb 	mov	w27, w0
    4c6c:	35000ca0 	cbnz	w0, 4e00 <mbedtls_mpi_exp_mod+0x5b8>
/home/zrz0517/study/TEE/RT-TEE/optee_os/lib/libmbedtls/mbedtls/library/bignum.c:1782 (discriminator 2)
    4c70:	f9403fe0 	ldr	x0, [sp, #120]
    4c74:	aa1c03e5 	mov	x5, x28
    4c78:	91000400 	add	x0, x0, #0x1
    4c7c:	f9003fe0 	str	x0, [sp, #120]
    4c80:	17ffffe2 	b	4c08 <mbedtls_mpi_exp_mod+0x3c0>
/home/zrz0517/study/TEE/RT-TEE/optee_os/lib/libmbedtls/mbedtls/library/bignum.c:1831
    4c84:	52800040 	mov	w0, #0x2                   	// #2
/home/zrz0517/study/TEE/RT-TEE/optee_os/lib/libmbedtls/mbedtls/library/bignum.c:1851
    4c88:	2a0003e3 	mov	w3, w0
    4c8c:	17ffff83 	b	4a98 <mbedtls_mpi_exp_mod+0x250>
/home/zrz0517/study/TEE/RT-TEE/optee_os/lib/libmbedtls/mbedtls/library/bignum.c:1804
    4c90:	d100079c 	sub	x28, x28, #0x1
/home/zrz0517/study/TEE/RT-TEE/optee_os/lib/libmbedtls/mbedtls/library/bignum.c:1806
    4c94:	d2800407 	mov	x7, #0x20                  	// #32
/home/zrz0517/study/TEE/RT-TEE/optee_os/lib/libmbedtls/mbedtls/library/bignum.c:1811
    4c98:	f9400740 	ldr	x0, [x26, #8]
/home/zrz0517/study/TEE/RT-TEE/optee_os/lib/libmbedtls/mbedtls/library/bignum.c:1809
    4c9c:	d10004e7 	sub	x7, x7, #0x1
/home/zrz0517/study/TEE/RT-TEE/optee_os/lib/libmbedtls/mbedtls/library/bignum.c:1811
    4ca0:	b87c7802 	ldr	w2, [x0, x28, lsl #2]
    4ca4:	1ac72442 	lsr	w2, w2, w7
    4ca8:	12000041 	and	w1, w2, #0x1
/home/zrz0517/study/TEE/RT-TEE/optee_os/lib/libmbedtls/mbedtls/library/bignum.c:1816
    4cac:	2a010060 	orr	w0, w3, w1
    4cb0:	34fffec0 	cbz	w0, 4c88 <mbedtls_mpi_exp_mod+0x440>
/home/zrz0517/study/TEE/RT-TEE/optee_os/lib/libmbedtls/mbedtls/library/bignum.c:1819
    4cb4:	7100047f 	cmp	w3, #0x1
    4cb8:	1a9f17e0 	cset	w0, eq  // eq = none
    4cbc:	6a22001f 	bics	wzr, w0, w2
    4cc0:	540001e0 	b.eq	4cfc <mbedtls_mpi_exp_mod+0x4b4>  // b.none
/home/zrz0517/study/TEE/RT-TEE/optee_os/lib/libmbedtls/mbedtls/library/bignum.c:1824
    4cc4:	b940afe3 	ldr	w3, [sp, #172]
    4cc8:	aa1503e4 	mov	x4, x21
    4ccc:	aa1303e2 	mov	x2, x19
    4cd0:	aa1403e1 	mov	x1, x20
    4cd4:	aa1403e0 	mov	x0, x20
    4cd8:	f9003fe6 	str	x6, [sp, #120]
    4cdc:	a90897e7 	stp	x7, x5, [sp, #136]
    4ce0:	97fffe7f 	bl	46dc <mbedtls_mpi_montmul>
    4ce4:	2a0003fb 	mov	w27, w0
    4ce8:	350008c0 	cbnz	w0, 4e00 <mbedtls_mpi_exp_mod+0x5b8>
    4cec:	52800020 	mov	w0, #0x1                   	// #1
    4cf0:	f9403fe6 	ldr	x6, [sp, #120]
    4cf4:	a94897e7 	ldp	x7, x5, [sp, #136]
    4cf8:	17ffffe4 	b	4c88 <mbedtls_mpi_exp_mod+0x440>
/home/zrz0517/study/TEE/RT-TEE/optee_os/lib/libmbedtls/mbedtls/library/bignum.c:1834
    4cfc:	b94083e0 	ldr	w0, [sp, #128]
/home/zrz0517/study/TEE/RT-TEE/optee_os/lib/libmbedtls/mbedtls/library/bignum.c:1833
    4d00:	910004a5 	add	x5, x5, #0x1
/home/zrz0517/study/TEE/RT-TEE/optee_os/lib/libmbedtls/mbedtls/library/bignum.c:1836
    4d04:	eb0502df 	cmp	x22, x5
/home/zrz0517/study/TEE/RT-TEE/optee_os/lib/libmbedtls/mbedtls/library/bignum.c:1834
    4d08:	4b050000 	sub	w0, w0, w5
    4d0c:	1ac02021 	lsl	w1, w1, w0
    4d10:	aa0100c6 	orr	x6, x6, x1
/home/zrz0517/study/TEE/RT-TEE/optee_os/lib/libmbedtls/mbedtls/library/bignum.c:1836
    4d14:	54fffb81 	b.ne	4c84 <mbedtls_mpi_exp_mod+0x43c>  // b.any
/home/zrz0517/study/TEE/RT-TEE/optee_os/lib/libmbedtls/mbedtls/library/bignum.c:1841
    4d18:	d2800008 	mov	x8, #0x0                   	// #0
/home/zrz0517/study/TEE/RT-TEE/optee_os/lib/libmbedtls/mbedtls/library/bignum.c:1842
    4d1c:	b940afe3 	ldr	w3, [sp, #172]
    4d20:	aa1503e4 	mov	x4, x21
    4d24:	aa1303e2 	mov	x2, x19
    4d28:	aa1403e1 	mov	x1, x20
    4d2c:	aa1403e0 	mov	x0, x20
    4d30:	f9003fe6 	str	x6, [sp, #120]
    4d34:	a90897e7 	stp	x7, x5, [sp, #136]
    4d38:	f9004fe8 	str	x8, [sp, #152]
    4d3c:	97fffe68 	bl	46dc <mbedtls_mpi_montmul>
    4d40:	2a0003fb 	mov	w27, w0
    4d44:	350005e0 	cbnz	w0, 4e00 <mbedtls_mpi_exp_mod+0x5b8>
/home/zrz0517/study/TEE/RT-TEE/optee_os/lib/libmbedtls/mbedtls/library/bignum.c:1841 (discriminator 2)
    4d48:	a94897e7 	ldp	x7, x5, [sp, #136]
    4d4c:	f9404fe8 	ldr	x8, [sp, #152]
    4d50:	f9403fe6 	ldr	x6, [sp, #120]
    4d54:	91000508 	add	x8, x8, #0x1
    4d58:	eb0800bf 	cmp	x5, x8
    4d5c:	54fffe08 	b.hi	4d1c <mbedtls_mpi_exp_mod+0x4d4>  // b.pmore
/home/zrz0517/study/TEE/RT-TEE/optee_os/lib/libmbedtls/mbedtls/library/bignum.c:1847
    4d60:	b940afe3 	ldr	w3, [sp, #172]
    4d64:	aa1503e4 	mov	x4, x21
    4d68:	aa1303e2 	mov	x2, x19
    4d6c:	8b0612e1 	add	x1, x23, x6, lsl #4
    4d70:	aa1403e0 	mov	x0, x20
    4d74:	f9003fe7 	str	x7, [sp, #120]
    4d78:	97fffe59 	bl	46dc <mbedtls_mpi_montmul>
    4d7c:	2a0003fb 	mov	w27, w0
    4d80:	35000400 	cbnz	w0, 4e00 <mbedtls_mpi_exp_mod+0x5b8>
/home/zrz0517/study/TEE/RT-TEE/optee_os/lib/libmbedtls/mbedtls/library/bignum.c:1849
    4d84:	52800020 	mov	w0, #0x1                   	// #1
/home/zrz0517/study/TEE/RT-TEE/optee_os/lib/libmbedtls/mbedtls/library/bignum.c:1850
    4d88:	d2800005 	mov	x5, #0x0                   	// #0
/home/zrz0517/study/TEE/RT-TEE/optee_os/lib/libmbedtls/mbedtls/library/bignum.c:1851
    4d8c:	d2800006 	mov	x6, #0x0                   	// #0
    4d90:	f9403fe7 	ldr	x7, [sp, #120]
    4d94:	17ffffbd 	b	4c88 <mbedtls_mpi_exp_mod+0x440>
/home/zrz0517/study/TEE/RT-TEE/optee_os/lib/libmbedtls/mbedtls/library/bignum.c:1860
    4d98:	2a0203e3 	mov	w3, w2
    4d9c:	aa1503e4 	mov	x4, x21
    4da0:	aa1303e2 	mov	x2, x19
    4da4:	aa1403e1 	mov	x1, x20
    4da8:	aa1403e0 	mov	x0, x20
    4dac:	a90897e6 	stp	x6, x5, [sp, #136]
    4db0:	97fffe4b 	bl	46dc <mbedtls_mpi_montmul>
    4db4:	2a0003fb 	mov	w27, w0
    4db8:	35000240 	cbnz	w0, 4e00 <mbedtls_mpi_exp_mod+0x5b8>
/home/zrz0517/study/TEE/RT-TEE/optee_os/lib/libmbedtls/mbedtls/library/bignum.c:1864
    4dbc:	a94897e6 	ldp	x6, x5, [sp, #136]
    4dc0:	f9403fe0 	ldr	x0, [sp, #120]
/home/zrz0517/study/TEE/RT-TEE/optee_os/lib/libmbedtls/mbedtls/library/bignum.c:1862
    4dc4:	d37ff8c6 	lsl	x6, x6, #1
/home/zrz0517/study/TEE/RT-TEE/optee_os/lib/libmbedtls/mbedtls/library/bignum.c:1864
    4dc8:	ea06001f 	tst	x0, x6
    4dcc:	54000061 	b.ne	4dd8 <mbedtls_mpi_exp_mod+0x590>  // b.any
/home/zrz0517/study/TEE/RT-TEE/optee_os/lib/libmbedtls/mbedtls/library/bignum.c:1858
    4dd0:	9100079c 	add	x28, x28, #0x1
    4dd4:	17ffff39 	b	4ab8 <mbedtls_mpi_exp_mod+0x270>
/home/zrz0517/study/TEE/RT-TEE/optee_os/lib/libmbedtls/mbedtls/library/bignum.c:1865
    4dd8:	b940afe3 	ldr	w3, [sp, #172]
    4ddc:	aa1503e4 	mov	x4, x21
    4de0:	f94043e1 	ldr	x1, [sp, #128]
    4de4:	aa1303e2 	mov	x2, x19
    4de8:	aa1403e0 	mov	x0, x20
    4dec:	a90897e6 	stp	x6, x5, [sp, #136]
    4df0:	97fffe3b 	bl	46dc <mbedtls_mpi_montmul>
    4df4:	2a0003fb 	mov	w27, w0
    4df8:	a94897e6 	ldp	x6, x5, [sp, #136]
    4dfc:	34fffea0 	cbz	w0, 4dd0 <mbedtls_mpi_exp_mod+0x588>
/home/zrz0517/study/TEE/RT-TEE/optee_os/lib/libmbedtls/mbedtls/library/bignum.c:1881
    4e00:	510006d3 	sub	w19, w22, #0x1
    4e04:	d2800020 	mov	x0, #0x1                   	// #1
    4e08:	9ad62016 	lsl	x22, x0, x22
    4e0c:	9ad32013 	lsl	x19, x0, x19
/home/zrz0517/study/TEE/RT-TEE/optee_os/lib/libmbedtls/mbedtls/library/bignum.c:1881 (discriminator 1)
    4e10:	eb1302df 	cmp	x22, x19
    4e14:	540002a8 	b.hi	4e68 <mbedtls_mpi_exp_mod+0x620>  // b.pmore
/home/zrz0517/study/TEE/RT-TEE/optee_os/lib/libmbedtls/mbedtls/library/bignum.c:1884
    4e18:	910042e0 	add	x0, x23, #0x10
    4e1c:	97fff6ea 	bl	29c4 <mbedtls_mpi_free>
    4e20:	aa1503e0 	mov	x0, x21
    4e24:	97fff6e8 	bl	29c4 <mbedtls_mpi_free>
    4e28:	f94037e0 	ldr	x0, [sp, #104]
    4e2c:	97fff6e6 	bl	29c4 <mbedtls_mpi_free>
/home/zrz0517/study/TEE/RT-TEE/optee_os/lib/libmbedtls/mbedtls/library/bignum.c:1886
    4e30:	b4000079 	cbz	x25, 4e3c <mbedtls_mpi_exp_mod+0x5f4>
/home/zrz0517/study/TEE/RT-TEE/optee_os/lib/libmbedtls/mbedtls/library/bignum.c:1886 (discriminator 1)
    4e34:	f9400720 	ldr	x0, [x25, #8]
    4e38:	b5000060 	cbnz	x0, 4e44 <mbedtls_mpi_exp_mod+0x5fc>
/home/zrz0517/study/TEE/RT-TEE/optee_os/lib/libmbedtls/mbedtls/library/bignum.c:1887
    4e3c:	aa1803e0 	mov	x0, x24
    4e40:	97fff6e1 	bl	29c4 <mbedtls_mpi_free>
/home/zrz0517/study/TEE/RT-TEE/optee_os/lib/libmbedtls/mbedtls/library/bignum.c:1890
    4e44:	2a1b03e0 	mov	w0, w27
    4e48:	a9407bfd 	ldp	x29, x30, [sp]
    4e4c:	a94153f3 	ldp	x19, x20, [sp, #16]
    4e50:	a9425bf5 	ldp	x21, x22, [sp, #32]
    4e54:	a94363f7 	ldp	x23, x24, [sp, #48]
    4e58:	a9446bf9 	ldp	x25, x26, [sp, #64]
    4e5c:	a94573fb 	ldp	x27, x28, [sp, #80]
    4e60:	912383ff 	add	sp, sp, #0x8e0
    4e64:	d65f03c0 	ret
/home/zrz0517/study/TEE/RT-TEE/optee_os/lib/libmbedtls/mbedtls/library/bignum.c:1882 (discriminator 3)
    4e68:	8b1312e0 	add	x0, x23, x19, lsl #4
/home/zrz0517/study/TEE/RT-TEE/optee_os/lib/libmbedtls/mbedtls/library/bignum.c:1881 (discriminator 3)
    4e6c:	91000673 	add	x19, x19, #0x1
/home/zrz0517/study/TEE/RT-TEE/optee_os/lib/libmbedtls/mbedtls/library/bignum.c:1882 (discriminator 3)
    4e70:	97fff6d5 	bl	29c4 <mbedtls_mpi_free>
    4e74:	17ffffe7 	b	4e10 <mbedtls_mpi_exp_mod+0x5c8>
/home/zrz0517/study/TEE/RT-TEE/optee_os/lib/libmbedtls/mbedtls/library/bignum.c:1698
    4e78:	1280007b 	mov	w27, #0xfffffffc            	// #-4
    4e7c:	17fffff2 	b	4e44 <mbedtls_mpi_exp_mod+0x5fc>

0000000000004e80 <mbedtls_mpi_gcd>:
mbedtls_mpi_gcd():
/home/zrz0517/study/TEE/RT-TEE/optee_os/lib/libmbedtls/mbedtls/library/bignum.c:1896
    4e80:	a9b87bfd 	stp	x29, x30, [sp, #-128]!
    4e84:	910003fd 	mov	x29, sp
    4e88:	a90363f7 	stp	x23, x24, [sp, #48]
/home/zrz0517/study/TEE/RT-TEE/optee_os/lib/libmbedtls/mbedtls/library/bignum.c:1901
    4e8c:	910143f7 	add	x23, sp, #0x50
/home/zrz0517/study/TEE/RT-TEE/optee_os/lib/libmbedtls/mbedtls/library/bignum.c:1896
    4e90:	aa0003f8 	mov	x24, x0
/home/zrz0517/study/TEE/RT-TEE/optee_os/lib/libmbedtls/mbedtls/library/bignum.c:1901
    4e94:	aa1703e0 	mov	x0, x23
/home/zrz0517/study/TEE/RT-TEE/optee_os/lib/libmbedtls/mbedtls/library/bignum.c:1896
    4e98:	a90153f3 	stp	x19, x20, [sp, #16]
/home/zrz0517/study/TEE/RT-TEE/optee_os/lib/libmbedtls/mbedtls/library/bignum.c:1902
    4e9c:	9101c3f4 	add	x20, sp, #0x70
/home/zrz0517/study/TEE/RT-TEE/optee_os/lib/libmbedtls/mbedtls/library/bignum.c:1896
    4ea0:	a9025bf5 	stp	x21, x22, [sp, #32]
/home/zrz0517/study/TEE/RT-TEE/optee_os/lib/libmbedtls/mbedtls/library/bignum.c:1901
    4ea4:	910183f5 	add	x21, sp, #0x60
/home/zrz0517/study/TEE/RT-TEE/optee_os/lib/libmbedtls/mbedtls/library/bignum.c:1896
    4ea8:	a90407e2 	stp	x2, x1, [sp, #64]
/home/zrz0517/study/TEE/RT-TEE/optee_os/lib/libmbedtls/mbedtls/library/bignum.c:1901
    4eac:	97fff6b2 	bl	2974 <mbedtls_mpi_init_mempool>
    4eb0:	aa1503e0 	mov	x0, x21
    4eb4:	97fff6b0 	bl	2974 <mbedtls_mpi_init_mempool>
/home/zrz0517/study/TEE/RT-TEE/optee_os/lib/libmbedtls/mbedtls/library/bignum.c:1902
    4eb8:	aa1403e0 	mov	x0, x20
    4ebc:	97fff6ae 	bl	2974 <mbedtls_mpi_init_mempool>
/home/zrz0517/study/TEE/RT-TEE/optee_os/lib/libmbedtls/mbedtls/library/bignum.c:1904
    4ec0:	f94027e1 	ldr	x1, [sp, #72]
    4ec4:	aa1503e0 	mov	x0, x21
    4ec8:	97fff77f 	bl	2cc4 <mbedtls_mpi_copy>
    4ecc:	2a0003f3 	mov	w19, w0
    4ed0:	350008c0 	cbnz	w0, 4fe8 <mbedtls_mpi_gcd+0x168>
/home/zrz0517/study/TEE/RT-TEE/optee_os/lib/libmbedtls/mbedtls/library/bignum.c:1905
    4ed4:	f94023e2 	ldr	x2, [sp, #64]
    4ed8:	aa1403e0 	mov	x0, x20
    4edc:	aa0203e1 	mov	x1, x2
    4ee0:	97fff779 	bl	2cc4 <mbedtls_mpi_copy>
    4ee4:	2a0003f3 	mov	w19, w0
    4ee8:	35000800 	cbnz	w0, 4fe8 <mbedtls_mpi_gcd+0x168>
/home/zrz0517/study/TEE/RT-TEE/optee_os/lib/libmbedtls/mbedtls/library/bignum.c:1907
    4eec:	aa1503e0 	mov	x0, x21
    4ef0:	97fff869 	bl	3094 <mbedtls_mpi_lsb>
    4ef4:	aa0003f6 	mov	x22, x0
/home/zrz0517/study/TEE/RT-TEE/optee_os/lib/libmbedtls/mbedtls/library/bignum.c:1908
    4ef8:	aa1403e0 	mov	x0, x20
    4efc:	97fff866 	bl	3094 <mbedtls_mpi_lsb>
/home/zrz0517/study/TEE/RT-TEE/optee_os/lib/libmbedtls/mbedtls/library/bignum.c:1910
    4f00:	eb0002df 	cmp	x22, x0
    4f04:	9a8092d6 	csel	x22, x22, x0, ls  // ls = plast
/home/zrz0517/study/TEE/RT-TEE/optee_os/lib/libmbedtls/mbedtls/library/bignum.c:1913
    4f08:	aa1503e0 	mov	x0, x21
    4f0c:	aa1603e1 	mov	x1, x22
    4f10:	97fff923 	bl	339c <mbedtls_mpi_shift_r>
    4f14:	2a0003f3 	mov	w19, w0
    4f18:	35000680 	cbnz	w0, 4fe8 <mbedtls_mpi_gcd+0x168>
/home/zrz0517/study/TEE/RT-TEE/optee_os/lib/libmbedtls/mbedtls/library/bignum.c:1914
    4f1c:	aa1603e1 	mov	x1, x22
    4f20:	aa1403e0 	mov	x0, x20
    4f24:	97fff91e 	bl	339c <mbedtls_mpi_shift_r>
    4f28:	2a0003f3 	mov	w19, w0
    4f2c:	350005e0 	cbnz	w0, 4fe8 <mbedtls_mpi_gcd+0x168>
/home/zrz0517/study/TEE/RT-TEE/optee_os/lib/libmbedtls/mbedtls/library/bignum.c:1916
    4f30:	52800020 	mov	w0, #0x1                   	// #1
    4f34:	390183e0 	strb	w0, [sp, #96]
    4f38:	3901c3e0 	strb	w0, [sp, #112]
/home/zrz0517/study/TEE/RT-TEE/optee_os/lib/libmbedtls/mbedtls/library/bignum.c:1918
    4f3c:	52800001 	mov	w1, #0x0                   	// #0
    4f40:	aa1503e0 	mov	x0, x21
    4f44:	97fff9a4 	bl	35d4 <mbedtls_mpi_cmp_int>
    4f48:	35000160 	cbnz	w0, 4f74 <mbedtls_mpi_gcd+0xf4>
/home/zrz0517/study/TEE/RT-TEE/optee_os/lib/libmbedtls/mbedtls/library/bignum.c:1935
    4f4c:	aa1603e1 	mov	x1, x22
    4f50:	aa1403e0 	mov	x0, x20
    4f54:	97fff8d3 	bl	32a0 <mbedtls_mpi_shift_l>
    4f58:	2a0003f3 	mov	w19, w0
    4f5c:	35000460 	cbnz	w0, 4fe8 <mbedtls_mpi_gcd+0x168>
/home/zrz0517/study/TEE/RT-TEE/optee_os/lib/libmbedtls/mbedtls/library/bignum.c:1936
    4f60:	aa1403e1 	mov	x1, x20
    4f64:	aa1803e0 	mov	x0, x24
    4f68:	97fff757 	bl	2cc4 <mbedtls_mpi_copy>
    4f6c:	2a0003f3 	mov	w19, w0
/home/zrz0517/study/TEE/RT-TEE/optee_os/lib/libmbedtls/mbedtls/library/bignum.c:1938
    4f70:	1400001e 	b	4fe8 <mbedtls_mpi_gcd+0x168>
/home/zrz0517/study/TEE/RT-TEE/optee_os/lib/libmbedtls/mbedtls/library/bignum.c:1920
    4f74:	aa1503e0 	mov	x0, x21
    4f78:	97fff847 	bl	3094 <mbedtls_mpi_lsb>
    4f7c:	aa0003e1 	mov	x1, x0
    4f80:	aa1503e0 	mov	x0, x21
    4f84:	97fff906 	bl	339c <mbedtls_mpi_shift_r>
    4f88:	2a0003f3 	mov	w19, w0
    4f8c:	350002e0 	cbnz	w0, 4fe8 <mbedtls_mpi_gcd+0x168>
/home/zrz0517/study/TEE/RT-TEE/optee_os/lib/libmbedtls/mbedtls/library/bignum.c:1921
    4f90:	aa1403e0 	mov	x0, x20
    4f94:	97fff840 	bl	3094 <mbedtls_mpi_lsb>
    4f98:	aa0003e1 	mov	x1, x0
    4f9c:	aa1403e0 	mov	x0, x20
    4fa0:	97fff8ff 	bl	339c <mbedtls_mpi_shift_r>
    4fa4:	2a0003f3 	mov	w19, w0
    4fa8:	35000200 	cbnz	w0, 4fe8 <mbedtls_mpi_gcd+0x168>
/home/zrz0517/study/TEE/RT-TEE/optee_os/lib/libmbedtls/mbedtls/library/bignum.c:1923
    4fac:	aa1403e1 	mov	x1, x20
    4fb0:	aa1503e0 	mov	x0, x21
    4fb4:	97fff953 	bl	3500 <mbedtls_mpi_cmp_mpi>
    4fb8:	37f80300 	tbnz	w0, #31, 5018 <mbedtls_mpi_gcd+0x198>
/home/zrz0517/study/TEE/RT-TEE/optee_os/lib/libmbedtls/mbedtls/library/bignum.c:1925
    4fbc:	aa1403e2 	mov	x2, x20
    4fc0:	aa1503e1 	mov	x1, x21
    4fc4:	aa1503e0 	mov	x0, x21
    4fc8:	97fff9dd 	bl	373c <mbedtls_mpi_sub_abs>
    4fcc:	2a0003f3 	mov	w19, w0
    4fd0:	350000c0 	cbnz	w0, 4fe8 <mbedtls_mpi_gcd+0x168>
/home/zrz0517/study/TEE/RT-TEE/optee_os/lib/libmbedtls/mbedtls/library/bignum.c:1926
    4fd4:	aa1503e0 	mov	x0, x21
    4fd8:	d2800021 	mov	x1, #0x1                   	// #1
/home/zrz0517/study/TEE/RT-TEE/optee_os/lib/libmbedtls/mbedtls/library/bignum.c:1931
    4fdc:	97fff8f0 	bl	339c <mbedtls_mpi_shift_r>
    4fe0:	2a0003f3 	mov	w19, w0
    4fe4:	34fffac0 	cbz	w0, 4f3c <mbedtls_mpi_gcd+0xbc>
/home/zrz0517/study/TEE/RT-TEE/optee_os/lib/libmbedtls/mbedtls/library/bignum.c:1940
    4fe8:	aa1703e0 	mov	x0, x23
    4fec:	97fff676 	bl	29c4 <mbedtls_mpi_free>
    4ff0:	aa1503e0 	mov	x0, x21
    4ff4:	97fff674 	bl	29c4 <mbedtls_mpi_free>
    4ff8:	aa1403e0 	mov	x0, x20
    4ffc:	97fff672 	bl	29c4 <mbedtls_mpi_free>
/home/zrz0517/study/TEE/RT-TEE/optee_os/lib/libmbedtls/mbedtls/library/bignum.c:1943
    5000:	2a1303e0 	mov	w0, w19
    5004:	a94153f3 	ldp	x19, x20, [sp, #16]
    5008:	a9425bf5 	ldp	x21, x22, [sp, #32]
    500c:	a94363f7 	ldp	x23, x24, [sp, #48]
    5010:	a8c87bfd 	ldp	x29, x30, [sp], #128
    5014:	d65f03c0 	ret
/home/zrz0517/study/TEE/RT-TEE/optee_os/lib/libmbedtls/mbedtls/library/bignum.c:1930
    5018:	aa1503e2 	mov	x2, x21
    501c:	aa1403e1 	mov	x1, x20
    5020:	aa1403e0 	mov	x0, x20
    5024:	97fff9c6 	bl	373c <mbedtls_mpi_sub_abs>
    5028:	2a0003f3 	mov	w19, w0
    502c:	35fffde0 	cbnz	w0, 4fe8 <mbedtls_mpi_gcd+0x168>
/home/zrz0517/study/TEE/RT-TEE/optee_os/lib/libmbedtls/mbedtls/library/bignum.c:1931
    5030:	d2800021 	mov	x1, #0x1                   	// #1
    5034:	aa1403e0 	mov	x0, x20
    5038:	17ffffe9 	b	4fdc <mbedtls_mpi_gcd+0x15c>

000000000000503c <mbedtls_mpi_fill_random>:
mbedtls_mpi_fill_random():
/home/zrz0517/study/TEE/RT-TEE/optee_os/lib/libmbedtls/mbedtls/library/bignum.c:1959
    503c:	f110003f 	cmp	x1, #0x400
    5040:	54000308 	b.hi	50a0 <mbedtls_mpi_fill_random+0x64>  // b.pmore
/home/zrz0517/study/TEE/RT-TEE/optee_os/lib/libmbedtls/mbedtls/library/bignum.c:1955
    5044:	d110c3ff 	sub	sp, sp, #0x430
    5048:	aa0203e4 	mov	x4, x2
/home/zrz0517/study/TEE/RT-TEE/optee_os/lib/libmbedtls/mbedtls/library/bignum.c:1962
    504c:	aa0103e2 	mov	x2, x1
/home/zrz0517/study/TEE/RT-TEE/optee_os/lib/libmbedtls/mbedtls/library/bignum.c:1955
    5050:	a9007bfd 	stp	x29, x30, [sp]
    5054:	910003fd 	mov	x29, sp
    5058:	a90153f3 	stp	x19, x20, [sp, #16]
    505c:	aa0003f4 	mov	x20, x0
    5060:	aa0103f3 	mov	x19, x1
    5064:	f90013f5 	str	x21, [sp, #32]
/home/zrz0517/study/TEE/RT-TEE/optee_os/lib/libmbedtls/mbedtls/library/bignum.c:1962
    5068:	9100c3f5 	add	x21, sp, #0x30
    506c:	aa0303e0 	mov	x0, x3
    5070:	aa1503e1 	mov	x1, x21
    5074:	d63f0080 	blr	x4
    5078:	350000a0 	cbnz	w0, 508c <mbedtls_mpi_fill_random+0x50>
/home/zrz0517/study/TEE/RT-TEE/optee_os/lib/libmbedtls/mbedtls/library/bignum.c:1963
    507c:	aa1303e2 	mov	x2, x19
    5080:	aa1503e1 	mov	x1, x21
    5084:	aa1403e0 	mov	x0, x20
    5088:	97fff838 	bl	3168 <mbedtls_mpi_read_binary>
/home/zrz0517/study/TEE/RT-TEE/optee_os/lib/libmbedtls/mbedtls/library/bignum.c:1967
    508c:	a9407bfd 	ldp	x29, x30, [sp]
    5090:	a94153f3 	ldp	x19, x20, [sp, #16]
    5094:	f94013f5 	ldr	x21, [sp, #32]
    5098:	9110c3ff 	add	sp, sp, #0x430
    509c:	d65f03c0 	ret
/home/zrz0517/study/TEE/RT-TEE/optee_os/lib/libmbedtls/mbedtls/library/bignum.c:1960
    50a0:	12800060 	mov	w0, #0xfffffffc            	// #-4
/home/zrz0517/study/TEE/RT-TEE/optee_os/lib/libmbedtls/mbedtls/library/bignum.c:1967
    50a4:	d65f03c0 	ret

00000000000050a8 <mpi_miller_rabin>:
mpi_miller_rabin():
/home/zrz0517/study/TEE/RT-TEE/optee_os/lib/libmbedtls/mbedtls/library/bignum.c:2132
    50a8:	a9b37bfd 	stp	x29, x30, [sp, #-208]!
    50ac:	910003fd 	mov	x29, sp
    50b0:	6d0627e8 	stp	d8, d9, [sp, #96]
    50b4:	9e670028 	fmov	d8, x1
    50b8:	9e670049 	fmov	d9, x2
    50bc:	a90153f3 	stp	x19, x20, [sp, #16]
/home/zrz0517/study/TEE/RT-TEE/optee_os/lib/libmbedtls/mbedtls/library/bignum.c:2137
    50c0:	910203f4 	add	x20, sp, #0x80
/home/zrz0517/study/TEE/RT-TEE/optee_os/lib/libmbedtls/mbedtls/library/bignum.c:2138
    50c4:	9102c3f3 	add	x19, sp, #0xb0
/home/zrz0517/study/TEE/RT-TEE/optee_os/lib/libmbedtls/mbedtls/library/bignum.c:2132
    50c8:	a9025bf5 	stp	x21, x22, [sp, #32]
    50cc:	aa0003f6 	mov	x22, x0
/home/zrz0517/study/TEE/RT-TEE/optee_os/lib/libmbedtls/mbedtls/library/bignum.c:2137
    50d0:	aa1403e0 	mov	x0, x20
/home/zrz0517/study/TEE/RT-TEE/optee_os/lib/libmbedtls/mbedtls/library/bignum.c:2132
    50d4:	a90363f7 	stp	x23, x24, [sp, #48]
/home/zrz0517/study/TEE/RT-TEE/optee_os/lib/libmbedtls/mbedtls/library/bignum.c:2137
    50d8:	910243f7 	add	x23, sp, #0x90
/home/zrz0517/study/TEE/RT-TEE/optee_os/lib/libmbedtls/mbedtls/library/bignum.c:2138
    50dc:	910283f8 	add	x24, sp, #0xa0
/home/zrz0517/study/TEE/RT-TEE/optee_os/lib/libmbedtls/mbedtls/library/bignum.c:2132
    50e0:	a9046bf9 	stp	x25, x26, [sp, #64]
/home/zrz0517/study/TEE/RT-TEE/optee_os/lib/libmbedtls/mbedtls/library/bignum.c:2139
    50e4:	910303f9 	add	x25, sp, #0xc0
/home/zrz0517/study/TEE/RT-TEE/optee_os/lib/libmbedtls/mbedtls/library/bignum.c:2132
    50e8:	a90573fb 	stp	x27, x28, [sp, #80]
/home/zrz0517/study/TEE/RT-TEE/optee_os/lib/libmbedtls/mbedtls/library/bignum.c:2137
    50ec:	97fff622 	bl	2974 <mbedtls_mpi_init_mempool>
    50f0:	aa1703e0 	mov	x0, x23
    50f4:	97fff620 	bl	2974 <mbedtls_mpi_init_mempool>
/home/zrz0517/study/TEE/RT-TEE/optee_os/lib/libmbedtls/mbedtls/library/bignum.c:2138
    50f8:	aa1803e0 	mov	x0, x24
    50fc:	97fff61e 	bl	2974 <mbedtls_mpi_init_mempool>
    5100:	aa1303e0 	mov	x0, x19
    5104:	97fff61c 	bl	2974 <mbedtls_mpi_init_mempool>
/home/zrz0517/study/TEE/RT-TEE/optee_os/lib/libmbedtls/mbedtls/library/bignum.c:2139
    5108:	aa1903e0 	mov	x0, x25
    510c:	97fff61a 	bl	2974 <mbedtls_mpi_init_mempool>
/home/zrz0517/study/TEE/RT-TEE/optee_os/lib/libmbedtls/mbedtls/library/bignum.c:2145
    5110:	52800022 	mov	w2, #0x1                   	// #1
    5114:	aa1603e1 	mov	x1, x22
    5118:	aa1403e0 	mov	x0, x20
    511c:	97fffa0e 	bl	3954 <mbedtls_mpi_sub_int>
    5120:	2a0003fc 	mov	w28, w0
    5124:	35000b00 	cbnz	w0, 5284 <mpi_miller_rabin+0x1dc>
/home/zrz0517/study/TEE/RT-TEE/optee_os/lib/libmbedtls/mbedtls/library/bignum.c:2146
    5128:	aa1403e0 	mov	x0, x20
    512c:	97fff7da 	bl	3094 <mbedtls_mpi_lsb>
/home/zrz0517/study/TEE/RT-TEE/optee_os/lib/libmbedtls/mbedtls/library/bignum.c:2147
    5130:	aa1403e1 	mov	x1, x20
/home/zrz0517/study/TEE/RT-TEE/optee_os/lib/libmbedtls/mbedtls/library/bignum.c:2146
    5134:	f9003fe0 	str	x0, [sp, #120]
/home/zrz0517/study/TEE/RT-TEE/optee_os/lib/libmbedtls/mbedtls/library/bignum.c:2147
    5138:	aa1703e0 	mov	x0, x23
    513c:	97fff6e2 	bl	2cc4 <mbedtls_mpi_copy>
    5140:	2a0003fc 	mov	w28, w0
    5144:	35000a00 	cbnz	w0, 5284 <mpi_miller_rabin+0x1dc>
/home/zrz0517/study/TEE/RT-TEE/optee_os/lib/libmbedtls/mbedtls/library/bignum.c:2148
    5148:	f9403fe1 	ldr	x1, [sp, #120]
    514c:	aa1703e0 	mov	x0, x23
    5150:	97fff893 	bl	339c <mbedtls_mpi_shift_r>
    5154:	2a0003fc 	mov	w28, w0
    5158:	35000960 	cbnz	w0, 5284 <mpi_miller_rabin+0x1dc>
/home/zrz0517/study/TEE/RT-TEE/optee_os/lib/libmbedtls/mbedtls/library/bignum.c:2150
    515c:	aa1603e0 	mov	x0, x22
    5160:	97fff7e2 	bl	30e8 <mbedtls_mpi_bitlen>
/home/zrz0517/study/TEE/RT-TEE/optee_os/lib/libmbedtls/mbedtls/library/bignum.c:2154
    5164:	f1144c1f 	cmp	x0, #0x513
    5168:	54000648 	b.hi	5230 <mpi_miller_rabin+0x188>  // b.pmore
/home/zrz0517/study/TEE/RT-TEE/optee_os/lib/libmbedtls/mbedtls/library/bignum.c:2154 (discriminator 1)
    516c:	f10d441f 	cmp	x0, #0x351
    5170:	54000648 	b.hi	5238 <mpi_miller_rabin+0x190>  // b.pmore
/home/zrz0517/study/TEE/RT-TEE/optee_os/lib/libmbedtls/mbedtls/library/bignum.c:2154 (discriminator 3)
    5174:	f10a241f 	cmp	x0, #0x289
    5178:	54000648 	b.hi	5240 <mpi_miller_rabin+0x198>  // b.pmore
/home/zrz0517/study/TEE/RT-TEE/optee_os/lib/libmbedtls/mbedtls/library/bignum.c:2154 (discriminator 5)
    517c:	f105741f 	cmp	x0, #0x15d
    5180:	54000648 	b.hi	5248 <mpi_miller_rabin+0x1a0>  // b.pmore
/home/zrz0517/study/TEE/RT-TEE/optee_os/lib/libmbedtls/mbedtls/library/bignum.c:2154 (discriminator 7)
    5184:	f103e41f 	cmp	x0, #0xf9
    5188:	54000648 	b.hi	5250 <mpi_miller_rabin+0x1a8>  // b.pmore
/home/zrz0517/study/TEE/RT-TEE/optee_os/lib/libmbedtls/mbedtls/library/bignum.c:2154 (discriminator 9)
    518c:	f102541f 	cmp	x0, #0x95
    5190:	d2800255 	mov	x21, #0x12                  	// #18
    5194:	d2800360 	mov	x0, #0x1b                  	// #27
    5198:	9a8082b5 	csel	x21, x21, x0, hi  // hi = pmore
/home/zrz0517/study/TEE/RT-TEE/optee_os/lib/libmbedtls/mbedtls/library/bignum.c:2158 (discriminator 24)
    519c:	d280001a 	mov	x26, #0x0                   	// #0
/home/zrz0517/study/TEE/RT-TEE/optee_os/lib/libmbedtls/mbedtls/library/bignum.c:2163
    51a0:	9e660123 	fmov	x3, d9
    51a4:	9e660102 	fmov	x2, d8
    51a8:	79400ac1 	ldrh	w1, [x22, #4]
    51ac:	aa1303e0 	mov	x0, x19
    51b0:	d37ef421 	lsl	x1, x1, #2
    51b4:	97ffffa2 	bl	503c <mbedtls_mpi_fill_random>
    51b8:	2a0003fc 	mov	w28, w0
    51bc:	35000640 	cbnz	w0, 5284 <mpi_miller_rabin+0x1dc>
/home/zrz0517/study/TEE/RT-TEE/optee_os/lib/libmbedtls/mbedtls/library/bignum.c:2165
    51c0:	aa1403e1 	mov	x1, x20
    51c4:	aa1303e0 	mov	x0, x19
    51c8:	97fff8ce 	bl	3500 <mbedtls_mpi_cmp_mpi>
    51cc:	36f80460 	tbz	w0, #31, 5258 <mpi_miller_rabin+0x1b0>
/home/zrz0517/study/TEE/RT-TEE/optee_os/lib/libmbedtls/mbedtls/library/bignum.c:2170
    51d0:	f9405fe1 	ldr	x1, [sp, #184]
    51d4:	528025db 	mov	w27, #0x12e                 	// #302
    51d8:	b9400020 	ldr	w0, [x1]
    51dc:	32000400 	orr	w0, w0, #0x3
    51e0:	b9000020 	str	w0, [x1]
/home/zrz0517/study/TEE/RT-TEE/optee_os/lib/libmbedtls/mbedtls/library/bignum.c:2174
    51e4:	9e660123 	fmov	x3, d9
    51e8:	9e660102 	fmov	x2, d8
    51ec:	79400ac1 	ldrh	w1, [x22, #4]
    51f0:	aa1303e0 	mov	x0, x19
    51f4:	d37ef421 	lsl	x1, x1, #2
    51f8:	97ffff91 	bl	503c <mbedtls_mpi_fill_random>
    51fc:	2a0003fc 	mov	w28, w0
    5200:	35000420 	cbnz	w0, 5284 <mpi_miller_rabin+0x1dc>
/home/zrz0517/study/TEE/RT-TEE/optee_os/lib/libmbedtls/mbedtls/library/bignum.c:2176
    5204:	aa1303e0 	mov	x0, x19
    5208:	97fff7b8 	bl	30e8 <mbedtls_mpi_bitlen>
    520c:	aa0003e4 	mov	x4, x0
/home/zrz0517/study/TEE/RT-TEE/optee_os/lib/libmbedtls/mbedtls/library/bignum.c:2177
    5210:	aa1403e0 	mov	x0, x20
    5214:	97fff7b5 	bl	30e8 <mbedtls_mpi_bitlen>
/home/zrz0517/study/TEE/RT-TEE/optee_os/lib/libmbedtls/mbedtls/library/bignum.c:2178
    5218:	eb00009f 	cmp	x4, x0
    521c:	540005a8 	b.hi	52d0 <mpi_miller_rabin+0x228>  // b.pmore
/home/zrz0517/study/TEE/RT-TEE/optee_os/lib/libmbedtls/mbedtls/library/bignum.c:2182
    5220:	7100077b 	subs	w27, w27, #0x1
    5224:	54000621 	b.ne	52e8 <mpi_miller_rabin+0x240>  // b.any
/home/zrz0517/study/TEE/RT-TEE/optee_os/lib/libmbedtls/mbedtls/library/bignum.c:2183
    5228:	128001bc 	mov	w28, #0xfffffff2            	// #-14
    522c:	14000016 	b	5284 <mpi_miller_rabin+0x1dc>
/home/zrz0517/study/TEE/RT-TEE/optee_os/lib/libmbedtls/mbedtls/library/bignum.c:2154
    5230:	d2800055 	mov	x21, #0x2                   	// #2
    5234:	17ffffda 	b	519c <mpi_miller_rabin+0xf4>
    5238:	d2800075 	mov	x21, #0x3                   	// #3
    523c:	17ffffd8 	b	519c <mpi_miller_rabin+0xf4>
    5240:	d2800095 	mov	x21, #0x4                   	// #4
    5244:	17ffffd6 	b	519c <mpi_miller_rabin+0xf4>
    5248:	d2800115 	mov	x21, #0x8                   	// #8
    524c:	17ffffd4 	b	519c <mpi_miller_rabin+0xf4>
    5250:	d2800195 	mov	x21, #0xc                   	// #12
    5254:	17ffffd2 	b	519c <mpi_miller_rabin+0xf4>
/home/zrz0517/study/TEE/RT-TEE/optee_os/lib/libmbedtls/mbedtls/library/bignum.c:2167
    5258:	aa1303e0 	mov	x0, x19
    525c:	97fff7a3 	bl	30e8 <mbedtls_mpi_bitlen>
    5260:	aa0003e4 	mov	x4, x0
    5264:	aa1403e0 	mov	x0, x20
    5268:	97fff7a0 	bl	30e8 <mbedtls_mpi_bitlen>
/home/zrz0517/study/TEE/RT-TEE/optee_os/lib/libmbedtls/mbedtls/library/bignum.c:2168
    526c:	91000481 	add	x1, x4, #0x1
    5270:	cb000021 	sub	x1, x1, x0
    5274:	aa1303e0 	mov	x0, x19
    5278:	97fff849 	bl	339c <mbedtls_mpi_shift_r>
    527c:	2a0003fc 	mov	w28, w0
    5280:	34fffa80 	cbz	w0, 51d0 <mpi_miller_rabin+0x128>
/home/zrz0517/study/TEE/RT-TEE/optee_os/lib/libmbedtls/mbedtls/library/bignum.c:2226
    5284:	aa1403e0 	mov	x0, x20
    5288:	97fff5cf 	bl	29c4 <mbedtls_mpi_free>
    528c:	aa1703e0 	mov	x0, x23
    5290:	97fff5cd 	bl	29c4 <mbedtls_mpi_free>
    5294:	aa1803e0 	mov	x0, x24
    5298:	97fff5cb 	bl	29c4 <mbedtls_mpi_free>
    529c:	aa1303e0 	mov	x0, x19
    52a0:	97fff5c9 	bl	29c4 <mbedtls_mpi_free>
/home/zrz0517/study/TEE/RT-TEE/optee_os/lib/libmbedtls/mbedtls/library/bignum.c:2227
    52a4:	aa1903e0 	mov	x0, x25
    52a8:	97fff5c7 	bl	29c4 <mbedtls_mpi_free>
/home/zrz0517/study/TEE/RT-TEE/optee_os/lib/libmbedtls/mbedtls/library/bignum.c:2230
    52ac:	2a1c03e0 	mov	w0, w28
    52b0:	a94153f3 	ldp	x19, x20, [sp, #16]
    52b4:	a9425bf5 	ldp	x21, x22, [sp, #32]
    52b8:	a94363f7 	ldp	x23, x24, [sp, #48]
    52bc:	a9446bf9 	ldp	x25, x26, [sp, #64]
    52c0:	a94573fb 	ldp	x27, x28, [sp, #80]
    52c4:	6d4627e8 	ldp	d8, d9, [sp, #96]
    52c8:	a8cd7bfd 	ldp	x29, x30, [sp], #208
    52cc:	d65f03c0 	ret
/home/zrz0517/study/TEE/RT-TEE/optee_os/lib/libmbedtls/mbedtls/library/bignum.c:2179
    52d0:	cb000081 	sub	x1, x4, x0
    52d4:	aa1303e0 	mov	x0, x19
    52d8:	97fff831 	bl	339c <mbedtls_mpi_shift_r>
    52dc:	2a0003fc 	mov	w28, w0
    52e0:	34fffa00 	cbz	w0, 5220 <mpi_miller_rabin+0x178>
    52e4:	17ffffe8 	b	5284 <mpi_miller_rabin+0x1dc>
/home/zrz0517/study/TEE/RT-TEE/optee_os/lib/libmbedtls/mbedtls/library/bignum.c:2187
    52e8:	aa1403e1 	mov	x1, x20
    52ec:	aa1303e0 	mov	x0, x19
    52f0:	97fff884 	bl	3500 <mbedtls_mpi_cmp_mpi>
/home/zrz0517/study/TEE/RT-TEE/optee_os/lib/libmbedtls/mbedtls/library/bignum.c:2188
    52f4:	36fff780 	tbz	w0, #31, 51e4 <mpi_miller_rabin+0x13c>
/home/zrz0517/study/TEE/RT-TEE/optee_os/lib/libmbedtls/mbedtls/library/bignum.c:2188 (discriminator 1)
    52f8:	52800021 	mov	w1, #0x1                   	// #1
    52fc:	aa1303e0 	mov	x0, x19
    5300:	97fff8b5 	bl	35d4 <mbedtls_mpi_cmp_int>
/home/zrz0517/study/TEE/RT-TEE/optee_os/lib/libmbedtls/mbedtls/library/bignum.c:2187 (discriminator 1)
    5304:	7100001f 	cmp	w0, #0x0
    5308:	54fff6ed 	b.le	51e4 <mpi_miller_rabin+0x13c>
/home/zrz0517/study/TEE/RT-TEE/optee_os/lib/libmbedtls/mbedtls/library/bignum.c:2193
    530c:	aa1903e4 	mov	x4, x25
    5310:	aa1603e3 	mov	x3, x22
    5314:	aa1703e2 	mov	x2, x23
    5318:	aa1303e1 	mov	x1, x19
    531c:	aa1303e0 	mov	x0, x19
    5320:	97fffd4a 	bl	4848 <mbedtls_mpi_exp_mod>
    5324:	2a0003fc 	mov	w28, w0
    5328:	35fffae0 	cbnz	w0, 5284 <mpi_miller_rabin+0x1dc>
/home/zrz0517/study/TEE/RT-TEE/optee_os/lib/libmbedtls/mbedtls/library/bignum.c:2195
    532c:	aa1403e1 	mov	x1, x20
    5330:	aa1303e0 	mov	x0, x19
    5334:	97fff873 	bl	3500 <mbedtls_mpi_cmp_mpi>
    5338:	350000a0 	cbnz	w0, 534c <mpi_miller_rabin+0x2a4>
/home/zrz0517/study/TEE/RT-TEE/optee_os/lib/libmbedtls/mbedtls/library/bignum.c:2158
    533c:	9100075a 	add	x26, x26, #0x1
    5340:	eb1a02bf 	cmp	x21, x26
    5344:	54fff2e1 	b.ne	51a0 <mpi_miller_rabin+0xf8>  // b.any
    5348:	17ffffcf 	b	5284 <mpi_miller_rabin+0x1dc>
/home/zrz0517/study/TEE/RT-TEE/optee_os/lib/libmbedtls/mbedtls/library/bignum.c:2196 (discriminator 1)
    534c:	52800021 	mov	w1, #0x1                   	// #1
    5350:	aa1303e0 	mov	x0, x19
    5354:	97fff8a0 	bl	35d4 <mbedtls_mpi_cmp_int>
/home/zrz0517/study/TEE/RT-TEE/optee_os/lib/libmbedtls/mbedtls/library/bignum.c:2195 (discriminator 1)
    5358:	34ffff20 	cbz	w0, 533c <mpi_miller_rabin+0x294>
/home/zrz0517/study/TEE/RT-TEE/optee_os/lib/libmbedtls/mbedtls/library/bignum.c:2199
    535c:	d280003b 	mov	x27, #0x1                   	// #1
    5360:	aa1403e1 	mov	x1, x20
    5364:	aa1303e0 	mov	x0, x19
    5368:	97fff866 	bl	3500 <mbedtls_mpi_cmp_mpi>
/home/zrz0517/study/TEE/RT-TEE/optee_os/lib/libmbedtls/mbedtls/library/bignum.c:2200
    536c:	f9403fe1 	ldr	x1, [sp, #120]
    5370:	eb01037f 	cmp	x27, x1
    5374:	540002e2 	b.cs	53d0 <mpi_miller_rabin+0x328>  // b.hs, b.nlast
/home/zrz0517/study/TEE/RT-TEE/optee_os/lib/libmbedtls/mbedtls/library/bignum.c:2200 (discriminator 1)
    5378:	350000c0 	cbnz	w0, 5390 <mpi_miller_rabin+0x2e8>
/home/zrz0517/study/TEE/RT-TEE/optee_os/lib/libmbedtls/mbedtls/library/bignum.c:2218
    537c:	52800021 	mov	w1, #0x1                   	// #1
    5380:	aa1303e0 	mov	x0, x19
    5384:	97fff894 	bl	35d4 <mbedtls_mpi_cmp_int>
/home/zrz0517/study/TEE/RT-TEE/optee_os/lib/libmbedtls/mbedtls/library/bignum.c:2217
    5388:	35fffda0 	cbnz	w0, 533c <mpi_miller_rabin+0x294>
    538c:	17ffffa7 	b	5228 <mpi_miller_rabin+0x180>
/home/zrz0517/study/TEE/RT-TEE/optee_os/lib/libmbedtls/mbedtls/library/bignum.c:2205
    5390:	aa1303e2 	mov	x2, x19
    5394:	aa1303e1 	mov	x1, x19
    5398:	aa1803e0 	mov	x0, x24
    539c:	97fff97d 	bl	3990 <mbedtls_mpi_mul_mpi>
    53a0:	35000220 	cbnz	w0, 53e4 <mpi_miller_rabin+0x33c>
/home/zrz0517/study/TEE/RT-TEE/optee_os/lib/libmbedtls/mbedtls/library/bignum.c:2206
    53a4:	aa1603e2 	mov	x2, x22
    53a8:	aa1803e1 	mov	x1, x24
    53ac:	aa1303e0 	mov	x0, x19
    53b0:	97fffbae 	bl	4268 <mbedtls_mpi_mod_mpi>
    53b4:	35000180 	cbnz	w0, 53e4 <mpi_miller_rabin+0x33c>
/home/zrz0517/study/TEE/RT-TEE/optee_os/lib/libmbedtls/mbedtls/library/bignum.c:2208
    53b8:	52800021 	mov	w1, #0x1                   	// #1
    53bc:	aa1303e0 	mov	x0, x19
    53c0:	97fff885 	bl	35d4 <mbedtls_mpi_cmp_int>
    53c4:	34000060 	cbz	w0, 53d0 <mpi_miller_rabin+0x328>
/home/zrz0517/study/TEE/RT-TEE/optee_os/lib/libmbedtls/mbedtls/library/bignum.c:2211
    53c8:	9100077b 	add	x27, x27, #0x1
    53cc:	17ffffe5 	b	5360 <mpi_miller_rabin+0x2b8>
/home/zrz0517/study/TEE/RT-TEE/optee_os/lib/libmbedtls/mbedtls/library/bignum.c:2217
    53d0:	aa1403e1 	mov	x1, x20
    53d4:	aa1303e0 	mov	x0, x19
    53d8:	97fff84a 	bl	3500 <mbedtls_mpi_cmp_mpi>
    53dc:	34fffd00 	cbz	w0, 537c <mpi_miller_rabin+0x2d4>
    53e0:	17ffff92 	b	5228 <mpi_miller_rabin+0x180>
    53e4:	2a0003fc 	mov	w28, w0
    53e8:	17ffffa7 	b	5284 <mpi_miller_rabin+0x1dc>

00000000000053ec <mbedtls_mpi_inv_mod>:
mbedtls_mpi_inv_mod():
/home/zrz0517/study/TEE/RT-TEE/optee_os/lib/libmbedtls/mbedtls/library/bignum.c:1973
    53ec:	a9af7bfd 	stp	x29, x30, [sp, #-272]!
    53f0:	910003fd 	mov	x29, sp
    53f4:	6d0627e8 	stp	d8, d9, [sp, #96]
    53f8:	9e670029 	fmov	d9, x1
    53fc:	9e670048 	fmov	d8, x2
    5400:	fd003bea 	str	d10, [sp, #112]
    5404:	9e67000a 	fmov	d10, x0
/home/zrz0517/study/TEE/RT-TEE/optee_os/lib/libmbedtls/mbedtls/library/bignum.c:1977
    5408:	52800021 	mov	w1, #0x1                   	// #1
    540c:	aa0203e0 	mov	x0, x2
/home/zrz0517/study/TEE/RT-TEE/optee_os/lib/libmbedtls/mbedtls/library/bignum.c:1973
    5410:	a90153f3 	stp	x19, x20, [sp, #16]
    5414:	a9025bf5 	stp	x21, x22, [sp, #32]
    5418:	a90363f7 	stp	x23, x24, [sp, #48]
    541c:	a9046bf9 	stp	x25, x26, [sp, #64]
    5420:	a90573fb 	stp	x27, x28, [sp, #80]
/home/zrz0517/study/TEE/RT-TEE/optee_os/lib/libmbedtls/mbedtls/library/bignum.c:1977
    5424:	97fff86c 	bl	35d4 <mbedtls_mpi_cmp_int>
    5428:	7100001f 	cmp	w0, #0x0
    542c:	54001f8d 	b.le	581c <mbedtls_mpi_inv_mod+0x430>
/home/zrz0517/study/TEE/RT-TEE/optee_os/lib/libmbedtls/mbedtls/library/bignum.c:1980
    5430:	910243fa 	add	x26, sp, #0x90
    5434:	910283f8 	add	x24, sp, #0xa0
    5438:	aa1a03e0 	mov	x0, x26
    543c:	97fff54e 	bl	2974 <mbedtls_mpi_init_mempool>
    5440:	aa1803e0 	mov	x0, x24
/home/zrz0517/study/TEE/RT-TEE/optee_os/lib/libmbedtls/mbedtls/library/bignum.c:1981
    5444:	9102c3f7 	add	x23, sp, #0xb0
/home/zrz0517/study/TEE/RT-TEE/optee_os/lib/libmbedtls/mbedtls/library/bignum.c:1980
    5448:	97fff54b 	bl	2974 <mbedtls_mpi_init_mempool>
/home/zrz0517/study/TEE/RT-TEE/optee_os/lib/libmbedtls/mbedtls/library/bignum.c:1981
    544c:	910303f6 	add	x22, sp, #0xc0
    5450:	aa1703e0 	mov	x0, x23
    5454:	97fff548 	bl	2974 <mbedtls_mpi_init_mempool>
    5458:	aa1603e0 	mov	x0, x22
/home/zrz0517/study/TEE/RT-TEE/optee_os/lib/libmbedtls/mbedtls/library/bignum.c:1982
    545c:	910203fc 	add	x28, sp, #0x80
/home/zrz0517/study/TEE/RT-TEE/optee_os/lib/libmbedtls/mbedtls/library/bignum.c:1981
    5460:	97fff545 	bl	2974 <mbedtls_mpi_init_mempool>
/home/zrz0517/study/TEE/RT-TEE/optee_os/lib/libmbedtls/mbedtls/library/bignum.c:1982
    5464:	910343fb 	add	x27, sp, #0xd0
    5468:	aa1c03e0 	mov	x0, x28
    546c:	97fff542 	bl	2974 <mbedtls_mpi_init_mempool>
    5470:	aa1b03e0 	mov	x0, x27
/home/zrz0517/study/TEE/RT-TEE/optee_os/lib/libmbedtls/mbedtls/library/bignum.c:1983
    5474:	910383f9 	add	x25, sp, #0xe0
/home/zrz0517/study/TEE/RT-TEE/optee_os/lib/libmbedtls/mbedtls/library/bignum.c:1982
    5478:	97fff53f 	bl	2974 <mbedtls_mpi_init_mempool>
/home/zrz0517/study/TEE/RT-TEE/optee_os/lib/libmbedtls/mbedtls/library/bignum.c:1983
    547c:	9103c3f4 	add	x20, sp, #0xf0
    5480:	aa1903e0 	mov	x0, x25
    5484:	97fff53c 	bl	2974 <mbedtls_mpi_init_mempool>
    5488:	aa1403e0 	mov	x0, x20
/home/zrz0517/study/TEE/RT-TEE/optee_os/lib/libmbedtls/mbedtls/library/bignum.c:1984
    548c:	910403f5 	add	x21, sp, #0x100
/home/zrz0517/study/TEE/RT-TEE/optee_os/lib/libmbedtls/mbedtls/library/bignum.c:1983
    5490:	97fff539 	bl	2974 <mbedtls_mpi_init_mempool>
/home/zrz0517/study/TEE/RT-TEE/optee_os/lib/libmbedtls/mbedtls/library/bignum.c:1984
    5494:	aa1503e0 	mov	x0, x21
    5498:	97fff537 	bl	2974 <mbedtls_mpi_init_mempool>
/home/zrz0517/study/TEE/RT-TEE/optee_os/lib/libmbedtls/mbedtls/library/bignum.c:1986
    549c:	9e660102 	fmov	x2, d8
    54a0:	9e660121 	fmov	x1, d9
    54a4:	aa1c03e0 	mov	x0, x28
    54a8:	97fffe76 	bl	4e80 <mbedtls_mpi_gcd>
    54ac:	2a0003f3 	mov	w19, w0
    54b0:	35000d60 	cbnz	w0, 565c <mbedtls_mpi_inv_mod+0x270>
/home/zrz0517/study/TEE/RT-TEE/optee_os/lib/libmbedtls/mbedtls/library/bignum.c:1988
    54b4:	52800021 	mov	w1, #0x1                   	// #1
    54b8:	aa1c03e0 	mov	x0, x28
    54bc:	97fff846 	bl	35d4 <mbedtls_mpi_cmp_int>
    54c0:	35001aa0 	cbnz	w0, 5814 <mbedtls_mpi_inv_mod+0x428>
/home/zrz0517/study/TEE/RT-TEE/optee_os/lib/libmbedtls/mbedtls/library/bignum.c:1994
    54c4:	9e660102 	fmov	x2, d8
    54c8:	9e660121 	fmov	x1, d9
    54cc:	aa1a03e0 	mov	x0, x26
    54d0:	97fffb66 	bl	4268 <mbedtls_mpi_mod_mpi>
    54d4:	2a0003f3 	mov	w19, w0
    54d8:	35000c20 	cbnz	w0, 565c <mbedtls_mpi_inv_mod+0x270>
/home/zrz0517/study/TEE/RT-TEE/optee_os/lib/libmbedtls/mbedtls/library/bignum.c:1995
    54dc:	aa1a03e1 	mov	x1, x26
    54e0:	aa1803e0 	mov	x0, x24
    54e4:	97fff5f8 	bl	2cc4 <mbedtls_mpi_copy>
    54e8:	2a0003f3 	mov	w19, w0
    54ec:	35000b80 	cbnz	w0, 565c <mbedtls_mpi_inv_mod+0x270>
/home/zrz0517/study/TEE/RT-TEE/optee_os/lib/libmbedtls/mbedtls/library/bignum.c:1996
    54f0:	9e660101 	fmov	x1, d8
    54f4:	aa1b03e0 	mov	x0, x27
    54f8:	97fff5f3 	bl	2cc4 <mbedtls_mpi_copy>
    54fc:	2a0003f3 	mov	w19, w0
    5500:	35000ae0 	cbnz	w0, 565c <mbedtls_mpi_inv_mod+0x270>
/home/zrz0517/study/TEE/RT-TEE/optee_os/lib/libmbedtls/mbedtls/library/bignum.c:1997
    5504:	9e660101 	fmov	x1, d8
    5508:	aa1903e0 	mov	x0, x25
    550c:	97fff5ee 	bl	2cc4 <mbedtls_mpi_copy>
    5510:	2a0003f3 	mov	w19, w0
    5514:	35000a40 	cbnz	w0, 565c <mbedtls_mpi_inv_mod+0x270>
/home/zrz0517/study/TEE/RT-TEE/optee_os/lib/libmbedtls/mbedtls/library/bignum.c:1999
    5518:	52800021 	mov	w1, #0x1                   	// #1
    551c:	aa1703e0 	mov	x0, x23
    5520:	97fff694 	bl	2f70 <mbedtls_mpi_lset>
    5524:	2a0003f3 	mov	w19, w0
    5528:	350009a0 	cbnz	w0, 565c <mbedtls_mpi_inv_mod+0x270>
/home/zrz0517/study/TEE/RT-TEE/optee_os/lib/libmbedtls/mbedtls/library/bignum.c:2000
    552c:	52800001 	mov	w1, #0x0                   	// #0
    5530:	aa1603e0 	mov	x0, x22
    5534:	97fff68f 	bl	2f70 <mbedtls_mpi_lset>
    5538:	2a0003f3 	mov	w19, w0
    553c:	35000900 	cbnz	w0, 565c <mbedtls_mpi_inv_mod+0x270>
/home/zrz0517/study/TEE/RT-TEE/optee_os/lib/libmbedtls/mbedtls/library/bignum.c:2001
    5540:	52800001 	mov	w1, #0x0                   	// #0
    5544:	aa1403e0 	mov	x0, x20
    5548:	97fff68a 	bl	2f70 <mbedtls_mpi_lset>
    554c:	2a0003f3 	mov	w19, w0
    5550:	35000860 	cbnz	w0, 565c <mbedtls_mpi_inv_mod+0x270>
/home/zrz0517/study/TEE/RT-TEE/optee_os/lib/libmbedtls/mbedtls/library/bignum.c:2002
    5554:	52800021 	mov	w1, #0x1                   	// #1
    5558:	aa1503e0 	mov	x0, x21
    555c:	97fff685 	bl	2f70 <mbedtls_mpi_lset>
/home/zrz0517/study/TEE/RT-TEE/optee_os/lib/libmbedtls/mbedtls/library/bignum.c:2017
    5560:	2a0003f3 	mov	w19, w0
    5564:	350007c0 	cbnz	w0, 565c <mbedtls_mpi_inv_mod+0x270>
/home/zrz0517/study/TEE/RT-TEE/optee_os/lib/libmbedtls/mbedtls/library/bignum.c:2006
    5568:	f94057e0 	ldr	x0, [sp, #168]
    556c:	b9400000 	ldr	w0, [x0]
    5570:	36000560 	tbz	w0, #0, 561c <mbedtls_mpi_inv_mod+0x230>
/home/zrz0517/study/TEE/RT-TEE/optee_os/lib/libmbedtls/mbedtls/library/bignum.c:2020
    5574:	f94077e0 	ldr	x0, [sp, #232]
    5578:	b9400000 	ldr	w0, [x0]
    557c:	36000ca0 	tbz	w0, #0, 5710 <mbedtls_mpi_inv_mod+0x324>
/home/zrz0517/study/TEE/RT-TEE/optee_os/lib/libmbedtls/mbedtls/library/bignum.c:2034
    5580:	aa1903e1 	mov	x1, x25
    5584:	aa1803e0 	mov	x0, x24
    5588:	97fff7de 	bl	3500 <mbedtls_mpi_cmp_mpi>
    558c:	37f81080 	tbnz	w0, #31, 579c <mbedtls_mpi_inv_mod+0x3b0>
/home/zrz0517/study/TEE/RT-TEE/optee_os/lib/libmbedtls/mbedtls/library/bignum.c:2036
    5590:	aa1903e2 	mov	x2, x25
    5594:	aa1803e1 	mov	x1, x24
    5598:	aa1803e0 	mov	x0, x24
    559c:	97fff8be 	bl	3894 <mbedtls_mpi_sub_mpi>
    55a0:	2a0003f3 	mov	w19, w0
    55a4:	350005c0 	cbnz	w0, 565c <mbedtls_mpi_inv_mod+0x270>
/home/zrz0517/study/TEE/RT-TEE/optee_os/lib/libmbedtls/mbedtls/library/bignum.c:2037
    55a8:	aa1403e2 	mov	x2, x20
    55ac:	aa1703e1 	mov	x1, x23
    55b0:	aa1703e0 	mov	x0, x23
    55b4:	97fff8b8 	bl	3894 <mbedtls_mpi_sub_mpi>
    55b8:	2a0003f3 	mov	w19, w0
    55bc:	35000500 	cbnz	w0, 565c <mbedtls_mpi_inv_mod+0x270>
/home/zrz0517/study/TEE/RT-TEE/optee_os/lib/libmbedtls/mbedtls/library/bignum.c:2038
    55c0:	aa1503e2 	mov	x2, x21
    55c4:	aa1603e1 	mov	x1, x22
    55c8:	aa1603e0 	mov	x0, x22
    55cc:	97fff8b2 	bl	3894 <mbedtls_mpi_sub_mpi>
    55d0:	2a0003f3 	mov	w19, w0
    55d4:	35000440 	cbnz	w0, 565c <mbedtls_mpi_inv_mod+0x270>
/home/zrz0517/study/TEE/RT-TEE/optee_os/lib/libmbedtls/mbedtls/library/bignum.c:2047
    55d8:	52800001 	mov	w1, #0x0                   	// #0
    55dc:	aa1803e0 	mov	x0, x24
    55e0:	97fff7fd 	bl	35d4 <mbedtls_mpi_cmp_int>
    55e4:	35fffc20 	cbnz	w0, 5568 <mbedtls_mpi_inv_mod+0x17c>
/home/zrz0517/study/TEE/RT-TEE/optee_os/lib/libmbedtls/mbedtls/library/bignum.c:2049
    55e8:	52800001 	mov	w1, #0x0                   	// #0
    55ec:	aa1403e0 	mov	x0, x20
    55f0:	97fff7f9 	bl	35d4 <mbedtls_mpi_cmp_int>
    55f4:	37f80f40 	tbnz	w0, #31, 57dc <mbedtls_mpi_inv_mod+0x3f0>
/home/zrz0517/study/TEE/RT-TEE/optee_os/lib/libmbedtls/mbedtls/library/bignum.c:2052
    55f8:	9e660101 	fmov	x1, d8
    55fc:	aa1403e0 	mov	x0, x20
    5600:	97fff7c0 	bl	3500 <mbedtls_mpi_cmp_mpi>
    5604:	36f80fa0 	tbz	w0, #31, 57f8 <mbedtls_mpi_inv_mod+0x40c>
/home/zrz0517/study/TEE/RT-TEE/optee_os/lib/libmbedtls/mbedtls/library/bignum.c:2055
    5608:	9e660140 	fmov	x0, d10
    560c:	aa1403e1 	mov	x1, x20
    5610:	97fff5ad 	bl	2cc4 <mbedtls_mpi_copy>
    5614:	2a0003f3 	mov	w19, w0
/home/zrz0517/study/TEE/RT-TEE/optee_os/lib/libmbedtls/mbedtls/library/bignum.c:2057
    5618:	14000011 	b	565c <mbedtls_mpi_inv_mod+0x270>
/home/zrz0517/study/TEE/RT-TEE/optee_os/lib/libmbedtls/mbedtls/library/bignum.c:2008
    561c:	d2800021 	mov	x1, #0x1                   	// #1
    5620:	aa1803e0 	mov	x0, x24
    5624:	97fff75e 	bl	339c <mbedtls_mpi_shift_r>
    5628:	2a0003f3 	mov	w19, w0
    562c:	35000180 	cbnz	w0, 565c <mbedtls_mpi_inv_mod+0x270>
/home/zrz0517/study/TEE/RT-TEE/optee_os/lib/libmbedtls/mbedtls/library/bignum.c:2010
    5630:	f9405fe0 	ldr	x0, [sp, #184]
    5634:	b9400000 	ldr	w0, [x0]
    5638:	370004a0 	tbnz	w0, #0, 56cc <mbedtls_mpi_inv_mod+0x2e0>
/home/zrz0517/study/TEE/RT-TEE/optee_os/lib/libmbedtls/mbedtls/library/bignum.c:2010 (discriminator 1)
    563c:	f94067e0 	ldr	x0, [sp, #200]
    5640:	b9400000 	ldr	w0, [x0]
    5644:	37000440 	tbnz	w0, #0, 56cc <mbedtls_mpi_inv_mod+0x2e0>
/home/zrz0517/study/TEE/RT-TEE/optee_os/lib/libmbedtls/mbedtls/library/bignum.c:2016
    5648:	d2800021 	mov	x1, #0x1                   	// #1
    564c:	aa1703e0 	mov	x0, x23
    5650:	97fff753 	bl	339c <mbedtls_mpi_shift_r>
    5654:	2a0003f3 	mov	w19, w0
    5658:	34000540 	cbz	w0, 5700 <mbedtls_mpi_inv_mod+0x314>
/home/zrz0517/study/TEE/RT-TEE/optee_os/lib/libmbedtls/mbedtls/library/bignum.c:2059
    565c:	aa1a03e0 	mov	x0, x26
    5660:	97fff4d9 	bl	29c4 <mbedtls_mpi_free>
    5664:	aa1803e0 	mov	x0, x24
    5668:	97fff4d7 	bl	29c4 <mbedtls_mpi_free>
    566c:	aa1703e0 	mov	x0, x23
    5670:	97fff4d5 	bl	29c4 <mbedtls_mpi_free>
    5674:	aa1603e0 	mov	x0, x22
    5678:	97fff4d3 	bl	29c4 <mbedtls_mpi_free>
/home/zrz0517/study/TEE/RT-TEE/optee_os/lib/libmbedtls/mbedtls/library/bignum.c:2060
    567c:	aa1c03e0 	mov	x0, x28
    5680:	97fff4d1 	bl	29c4 <mbedtls_mpi_free>
    5684:	aa1b03e0 	mov	x0, x27
    5688:	97fff4cf 	bl	29c4 <mbedtls_mpi_free>
    568c:	aa1903e0 	mov	x0, x25
    5690:	97fff4cd 	bl	29c4 <mbedtls_mpi_free>
/home/zrz0517/study/TEE/RT-TEE/optee_os/lib/libmbedtls/mbedtls/library/bignum.c:2061
    5694:	aa1403e0 	mov	x0, x20
    5698:	97fff4cb 	bl	29c4 <mbedtls_mpi_free>
    569c:	aa1503e0 	mov	x0, x21
    56a0:	97fff4c9 	bl	29c4 <mbedtls_mpi_free>
/home/zrz0517/study/TEE/RT-TEE/optee_os/lib/libmbedtls/mbedtls/library/bignum.c:2064
    56a4:	2a1303e0 	mov	w0, w19
    56a8:	fd403bea 	ldr	d10, [sp, #112]
    56ac:	a94153f3 	ldp	x19, x20, [sp, #16]
    56b0:	a9425bf5 	ldp	x21, x22, [sp, #32]
    56b4:	a94363f7 	ldp	x23, x24, [sp, #48]
    56b8:	a9446bf9 	ldp	x25, x26, [sp, #64]
    56bc:	a94573fb 	ldp	x27, x28, [sp, #80]
    56c0:	6d4627e8 	ldp	d8, d9, [sp, #96]
    56c4:	a8d17bfd 	ldp	x29, x30, [sp], #272
    56c8:	d65f03c0 	ret
/home/zrz0517/study/TEE/RT-TEE/optee_os/lib/libmbedtls/mbedtls/library/bignum.c:2012
    56cc:	aa1b03e2 	mov	x2, x27
    56d0:	aa1703e1 	mov	x1, x23
    56d4:	aa1703e0 	mov	x0, x23
    56d8:	97fff84f 	bl	3814 <mbedtls_mpi_add_mpi>
    56dc:	2a0003f3 	mov	w19, w0
    56e0:	35fffbe0 	cbnz	w0, 565c <mbedtls_mpi_inv_mod+0x270>
/home/zrz0517/study/TEE/RT-TEE/optee_os/lib/libmbedtls/mbedtls/library/bignum.c:2013
    56e4:	aa1a03e2 	mov	x2, x26
    56e8:	aa1603e1 	mov	x1, x22
    56ec:	aa1603e0 	mov	x0, x22
    56f0:	97fff869 	bl	3894 <mbedtls_mpi_sub_mpi>
    56f4:	2a0003f3 	mov	w19, w0
    56f8:	34fffa80 	cbz	w0, 5648 <mbedtls_mpi_inv_mod+0x25c>
    56fc:	17ffffd8 	b	565c <mbedtls_mpi_inv_mod+0x270>
/home/zrz0517/study/TEE/RT-TEE/optee_os/lib/libmbedtls/mbedtls/library/bignum.c:2017
    5700:	d2800021 	mov	x1, #0x1                   	// #1
    5704:	aa1603e0 	mov	x0, x22
    5708:	97fff725 	bl	339c <mbedtls_mpi_shift_r>
    570c:	17ffff95 	b	5560 <mbedtls_mpi_inv_mod+0x174>
/home/zrz0517/study/TEE/RT-TEE/optee_os/lib/libmbedtls/mbedtls/library/bignum.c:2022
    5710:	d2800021 	mov	x1, #0x1                   	// #1
    5714:	aa1903e0 	mov	x0, x25
    5718:	97fff721 	bl	339c <mbedtls_mpi_shift_r>
    571c:	2a0003f3 	mov	w19, w0
    5720:	35fff9e0 	cbnz	w0, 565c <mbedtls_mpi_inv_mod+0x270>
/home/zrz0517/study/TEE/RT-TEE/optee_os/lib/libmbedtls/mbedtls/library/bignum.c:2024
    5724:	f9407fe0 	ldr	x0, [sp, #248]
    5728:	b9400000 	ldr	w0, [x0]
    572c:	370001e0 	tbnz	w0, #0, 5768 <mbedtls_mpi_inv_mod+0x37c>
/home/zrz0517/study/TEE/RT-TEE/optee_os/lib/libmbedtls/mbedtls/library/bignum.c:2024 (discriminator 1)
    5730:	f94087e0 	ldr	x0, [sp, #264]
    5734:	b9400000 	ldr	w0, [x0]
    5738:	37000180 	tbnz	w0, #0, 5768 <mbedtls_mpi_inv_mod+0x37c>
/home/zrz0517/study/TEE/RT-TEE/optee_os/lib/libmbedtls/mbedtls/library/bignum.c:2030
    573c:	d2800021 	mov	x1, #0x1                   	// #1
    5740:	aa1403e0 	mov	x0, x20
    5744:	97fff716 	bl	339c <mbedtls_mpi_shift_r>
    5748:	2a0003f3 	mov	w19, w0
    574c:	35fff880 	cbnz	w0, 565c <mbedtls_mpi_inv_mod+0x270>
/home/zrz0517/study/TEE/RT-TEE/optee_os/lib/libmbedtls/mbedtls/library/bignum.c:2031
    5750:	d2800021 	mov	x1, #0x1                   	// #1
    5754:	aa1503e0 	mov	x0, x21
    5758:	97fff711 	bl	339c <mbedtls_mpi_shift_r>
    575c:	2a0003f3 	mov	w19, w0
    5760:	34fff0a0 	cbz	w0, 5574 <mbedtls_mpi_inv_mod+0x188>
    5764:	17ffffbe 	b	565c <mbedtls_mpi_inv_mod+0x270>
/home/zrz0517/study/TEE/RT-TEE/optee_os/lib/libmbedtls/mbedtls/library/bignum.c:2026
    5768:	aa1b03e2 	mov	x2, x27
    576c:	aa1403e1 	mov	x1, x20
    5770:	aa1403e0 	mov	x0, x20
    5774:	97fff828 	bl	3814 <mbedtls_mpi_add_mpi>
    5778:	2a0003f3 	mov	w19, w0
    577c:	35fff700 	cbnz	w0, 565c <mbedtls_mpi_inv_mod+0x270>
/home/zrz0517/study/TEE/RT-TEE/optee_os/lib/libmbedtls/mbedtls/library/bignum.c:2027
    5780:	aa1a03e2 	mov	x2, x26
    5784:	aa1503e1 	mov	x1, x21
    5788:	aa1503e0 	mov	x0, x21
    578c:	97fff842 	bl	3894 <mbedtls_mpi_sub_mpi>
    5790:	2a0003f3 	mov	w19, w0
    5794:	34fffd40 	cbz	w0, 573c <mbedtls_mpi_inv_mod+0x350>
    5798:	17ffffb1 	b	565c <mbedtls_mpi_inv_mod+0x270>
/home/zrz0517/study/TEE/RT-TEE/optee_os/lib/libmbedtls/mbedtls/library/bignum.c:2042
    579c:	aa1803e2 	mov	x2, x24
    57a0:	aa1903e1 	mov	x1, x25
    57a4:	aa1903e0 	mov	x0, x25
    57a8:	97fff83b 	bl	3894 <mbedtls_mpi_sub_mpi>
    57ac:	2a0003f3 	mov	w19, w0
    57b0:	35fff560 	cbnz	w0, 565c <mbedtls_mpi_inv_mod+0x270>
/home/zrz0517/study/TEE/RT-TEE/optee_os/lib/libmbedtls/mbedtls/library/bignum.c:2043
    57b4:	aa1703e2 	mov	x2, x23
    57b8:	aa1403e1 	mov	x1, x20
    57bc:	aa1403e0 	mov	x0, x20
    57c0:	97fff835 	bl	3894 <mbedtls_mpi_sub_mpi>
    57c4:	2a0003f3 	mov	w19, w0
    57c8:	35fff4a0 	cbnz	w0, 565c <mbedtls_mpi_inv_mod+0x270>
/home/zrz0517/study/TEE/RT-TEE/optee_os/lib/libmbedtls/mbedtls/library/bignum.c:2044
    57cc:	aa1603e2 	mov	x2, x22
    57d0:	aa1503e1 	mov	x1, x21
    57d4:	aa1503e0 	mov	x0, x21
    57d8:	17ffff7d 	b	55cc <mbedtls_mpi_inv_mod+0x1e0>
/home/zrz0517/study/TEE/RT-TEE/optee_os/lib/libmbedtls/mbedtls/library/bignum.c:2050
    57dc:	9e660102 	fmov	x2, d8
    57e0:	aa1403e1 	mov	x1, x20
    57e4:	aa1403e0 	mov	x0, x20
    57e8:	97fff80b 	bl	3814 <mbedtls_mpi_add_mpi>
    57ec:	2a0003f3 	mov	w19, w0
    57f0:	34ffefc0 	cbz	w0, 55e8 <mbedtls_mpi_inv_mod+0x1fc>
    57f4:	17ffff9a 	b	565c <mbedtls_mpi_inv_mod+0x270>
/home/zrz0517/study/TEE/RT-TEE/optee_os/lib/libmbedtls/mbedtls/library/bignum.c:2053
    57f8:	9e660102 	fmov	x2, d8
    57fc:	aa1403e1 	mov	x1, x20
    5800:	aa1403e0 	mov	x0, x20
    5804:	97fff824 	bl	3894 <mbedtls_mpi_sub_mpi>
    5808:	2a0003f3 	mov	w19, w0
    580c:	34ffef60 	cbz	w0, 55f8 <mbedtls_mpi_inv_mod+0x20c>
    5810:	17ffff93 	b	565c <mbedtls_mpi_inv_mod+0x270>
/home/zrz0517/study/TEE/RT-TEE/optee_os/lib/libmbedtls/mbedtls/library/bignum.c:1990
    5814:	128001b3 	mov	w19, #0xfffffff2            	// #-14
    5818:	17ffff91 	b	565c <mbedtls_mpi_inv_mod+0x270>
/home/zrz0517/study/TEE/RT-TEE/optee_os/lib/libmbedtls/mbedtls/library/bignum.c:1978
    581c:	12800073 	mov	w19, #0xfffffffc            	// #-4
    5820:	17ffffa1 	b	56a4 <mbedtls_mpi_inv_mod+0x2b8>

0000000000005824 <mbedtls_mpi_is_prime>:
mbedtls_mpi_is_prime():
/home/zrz0517/study/TEE/RT-TEE/optee_os/lib/libmbedtls/mbedtls/library/bignum.c:2238
    5824:	a9be7bfd 	stp	x29, x30, [sp, #-32]!
    5828:	aa0103eb 	mov	x11, x1
    582c:	aa0203ec 	mov	x12, x2
/home/zrz0517/study/TEE/RT-TEE/optee_os/lib/libmbedtls/mbedtls/library/bignum.c:2242
    5830:	52800021 	mov	w1, #0x1                   	// #1
/home/zrz0517/study/TEE/RT-TEE/optee_os/lib/libmbedtls/mbedtls/library/bignum.c:2238
    5834:	910003fd 	mov	x29, sp
/home/zrz0517/study/TEE/RT-TEE/optee_os/lib/libmbedtls/mbedtls/library/bignum.c:2246
    5838:	910043ea 	add	x10, sp, #0x10
/home/zrz0517/study/TEE/RT-TEE/optee_os/lib/libmbedtls/mbedtls/library/bignum.c:2242
    583c:	390043e1 	strb	w1, [sp, #16]
/home/zrz0517/study/TEE/RT-TEE/optee_os/lib/libmbedtls/mbedtls/library/bignum.c:2243
    5840:	79400801 	ldrh	w1, [x0, #4]
/home/zrz0517/study/TEE/RT-TEE/optee_os/lib/libmbedtls/mbedtls/library/bignum.c:2244
    5844:	f9400400 	ldr	x0, [x0, #8]
/home/zrz0517/study/TEE/RT-TEE/optee_os/lib/libmbedtls/mbedtls/library/bignum.c:2243
    5848:	79002be1 	strh	w1, [sp, #20]
/home/zrz0517/study/TEE/RT-TEE/optee_os/lib/libmbedtls/mbedtls/library/bignum.c:2246
    584c:	52800001 	mov	w1, #0x0                   	// #0
/home/zrz0517/study/TEE/RT-TEE/optee_os/lib/libmbedtls/mbedtls/library/bignum.c:2244
    5850:	f9000fe0 	str	x0, [sp, #24]
/home/zrz0517/study/TEE/RT-TEE/optee_os/lib/libmbedtls/mbedtls/library/bignum.c:2246
    5854:	aa0a03e0 	mov	x0, x10
    5858:	97fff75f 	bl	35d4 <mbedtls_mpi_cmp_int>
    585c:	340002c0 	cbz	w0, 58b4 <mbedtls_mpi_is_prime+0x90>
/home/zrz0517/study/TEE/RT-TEE/optee_os/lib/libmbedtls/mbedtls/library/bignum.c:2247 (discriminator 1)
    5860:	52800021 	mov	w1, #0x1                   	// #1
    5864:	aa0a03e0 	mov	x0, x10
    5868:	97fff75b 	bl	35d4 <mbedtls_mpi_cmp_int>
/home/zrz0517/study/TEE/RT-TEE/optee_os/lib/libmbedtls/mbedtls/library/bignum.c:2246 (discriminator 1)
    586c:	34000240 	cbz	w0, 58b4 <mbedtls_mpi_is_prime+0x90>
/home/zrz0517/study/TEE/RT-TEE/optee_os/lib/libmbedtls/mbedtls/library/bignum.c:2250
    5870:	52800041 	mov	w1, #0x2                   	// #2
    5874:	aa0a03e0 	mov	x0, x10
    5878:	97fff757 	bl	35d4 <mbedtls_mpi_cmp_int>
    587c:	340000c0 	cbz	w0, 5894 <mbedtls_mpi_is_prime+0x70>
/home/zrz0517/study/TEE/RT-TEE/optee_os/lib/libmbedtls/mbedtls/library/bignum.c:2253
    5880:	aa0a03e0 	mov	x0, x10
    5884:	97fffb65 	bl	4618 <mpi_check_small_factors>
    5888:	340000c0 	cbz	w0, 58a0 <mbedtls_mpi_is_prime+0x7c>
/home/zrz0517/study/TEE/RT-TEE/optee_os/lib/libmbedtls/mbedtls/library/bignum.c:2255
    588c:	7100041f 	cmp	w0, #0x1
    5890:	54000041 	b.ne	5898 <mbedtls_mpi_is_prime+0x74>  // b.any
/home/zrz0517/study/TEE/RT-TEE/optee_os/lib/libmbedtls/mbedtls/library/bignum.c:2256
    5894:	52800000 	mov	w0, #0x0                   	// #0
/home/zrz0517/study/TEE/RT-TEE/optee_os/lib/libmbedtls/mbedtls/library/bignum.c:2262
    5898:	a8c27bfd 	ldp	x29, x30, [sp], #32
    589c:	d65f03c0 	ret
/home/zrz0517/study/TEE/RT-TEE/optee_os/lib/libmbedtls/mbedtls/library/bignum.c:2261
    58a0:	aa0c03e2 	mov	x2, x12
    58a4:	aa0b03e1 	mov	x1, x11
    58a8:	aa0a03e0 	mov	x0, x10
    58ac:	97fffdff 	bl	50a8 <mpi_miller_rabin>
    58b0:	17fffffa 	b	5898 <mbedtls_mpi_is_prime+0x74>
/home/zrz0517/study/TEE/RT-TEE/optee_os/lib/libmbedtls/mbedtls/library/bignum.c:2248
    58b4:	128001a0 	mov	w0, #0xfffffff2            	// #-14
    58b8:	17fffff8 	b	5898 <mbedtls_mpi_is_prime+0x74>

00000000000058bc <mbedtls_mpi_gen_prime>:
mbedtls_mpi_gen_prime():
/home/zrz0517/study/TEE/RT-TEE/optee_os/lib/libmbedtls/mbedtls/library/bignum.c:2270
    58bc:	a9b97bfd 	stp	x29, x30, [sp, #-112]!
/home/zrz0517/study/TEE/RT-TEE/optee_os/lib/libmbedtls/mbedtls/library/bignum.c:2276
    58c0:	d1000c26 	sub	x6, x1, #0x3
    58c4:	d283ffa5 	mov	x5, #0x1ffd                	// #8189
/home/zrz0517/study/TEE/RT-TEE/optee_os/lib/libmbedtls/mbedtls/library/bignum.c:2270
    58c8:	910003fd 	mov	x29, sp
    58cc:	a90153f3 	stp	x19, x20, [sp, #16]
/home/zrz0517/study/TEE/RT-TEE/optee_os/lib/libmbedtls/mbedtls/library/bignum.c:2276
    58d0:	eb0500df 	cmp	x6, x5
/home/zrz0517/study/TEE/RT-TEE/optee_os/lib/libmbedtls/mbedtls/library/bignum.c:2270
    58d4:	a9025bf5 	stp	x21, x22, [sp, #32]
    58d8:	a90363f7 	stp	x23, x24, [sp, #48]
    58dc:	f90023f9 	str	x25, [sp, #64]
/home/zrz0517/study/TEE/RT-TEE/optee_os/lib/libmbedtls/mbedtls/library/bignum.c:2276
    58e0:	54000e68 	b.hi	5aac <mbedtls_mpi_gen_prime+0x1f0>  // b.pmore
    58e4:	aa0103f6 	mov	x22, x1
/home/zrz0517/study/TEE/RT-TEE/optee_os/lib/libmbedtls/mbedtls/library/bignum.c:2279
    58e8:	910183f5 	add	x21, sp, #0x60
    58ec:	aa0303f7 	mov	x23, x3
    58f0:	aa0403f8 	mov	x24, x4
    58f4:	2a0203f9 	mov	w25, w2
    58f8:	aa0003f3 	mov	x19, x0
    58fc:	aa1503e0 	mov	x0, x21
    5900:	97fff41d 	bl	2974 <mbedtls_mpi_init_mempool>
/home/zrz0517/study/TEE/RT-TEE/optee_os/lib/libmbedtls/mbedtls/library/bignum.c:2281
    5904:	f24012df 	tst	x22, #0x1f
    5908:	d345fec1 	lsr	x1, x22, #5
    590c:	9a810421 	cinc	x1, x1, ne  // ne = any
/home/zrz0517/study/TEE/RT-TEE/optee_os/lib/libmbedtls/mbedtls/library/bignum.c:2283
    5910:	aa0403e3 	mov	x3, x4
    5914:	aa1703e2 	mov	x2, x23
    5918:	aa1303e0 	mov	x0, x19
    591c:	d37ef421 	lsl	x1, x1, #2
    5920:	97fffdc7 	bl	503c <mbedtls_mpi_fill_random>
    5924:	2a0003f4 	mov	w20, w0
    5928:	35000980 	cbnz	w0, 5a58 <mbedtls_mpi_gen_prime+0x19c>
/home/zrz0517/study/TEE/RT-TEE/optee_os/lib/libmbedtls/mbedtls/library/bignum.c:2285
    592c:	aa1303e0 	mov	x0, x19
    5930:	97fff5ee 	bl	30e8 <mbedtls_mpi_bitlen>
/home/zrz0517/study/TEE/RT-TEE/optee_os/lib/libmbedtls/mbedtls/library/bignum.c:2286
    5934:	eb0002df 	cmp	x22, x0
    5938:	54000743 	b.cc	5a20 <mbedtls_mpi_gen_prime+0x164>  // b.lo, b.ul, b.last
/home/zrz0517/study/TEE/RT-TEE/optee_os/lib/libmbedtls/mbedtls/library/bignum.c:2288
    593c:	d10006c1 	sub	x1, x22, #0x1
    5940:	52800022 	mov	w2, #0x1                   	// #1
    5944:	aa1303e0 	mov	x0, x19
    5948:	97fff5b0 	bl	3008 <mbedtls_mpi_set_bit>
/home/zrz0517/study/TEE/RT-TEE/optee_os/lib/libmbedtls/mbedtls/library/bignum.c:2290
    594c:	f9400661 	ldr	x1, [x19, #8]
    5950:	b9400020 	ldr	w0, [x1]
/home/zrz0517/study/TEE/RT-TEE/optee_os/lib/libmbedtls/mbedtls/library/bignum.c:2292
    5954:	34000759 	cbz	w25, 5a3c <mbedtls_mpi_gen_prime+0x180>
/home/zrz0517/study/TEE/RT-TEE/optee_os/lib/libmbedtls/mbedtls/library/bignum.c:2310
    5958:	32000400 	orr	w0, w0, #0x3
    595c:	b9000020 	str	w0, [x1]
mbedtls_mpi_mod_int():
/home/zrz0517/study/TEE/RT-TEE/optee_os/lib/libmbedtls/mbedtls/library/bignum.c:1574
    5960:	52800062 	mov	w2, #0x3                   	// #3
    5964:	aa1303e1 	mov	x1, x19
    5968:	910173e0 	add	x0, sp, #0x5c
    596c:	97fff3e6 	bl	2904 <mbedtls_mpi_mod_int.part.3>
mbedtls_mpi_gen_prime():
/home/zrz0517/study/TEE/RT-TEE/optee_os/lib/libmbedtls/mbedtls/library/bignum.c:2312
    5970:	35000620 	cbnz	w0, 5a34 <mbedtls_mpi_gen_prime+0x178>
/home/zrz0517/study/TEE/RT-TEE/optee_os/lib/libmbedtls/mbedtls/library/bignum.c:2313
    5974:	b9405fe0 	ldr	w0, [sp, #92]
    5978:	35000920 	cbnz	w0, 5a9c <mbedtls_mpi_gen_prime+0x1e0>
/home/zrz0517/study/TEE/RT-TEE/optee_os/lib/libmbedtls/mbedtls/library/bignum.c:2314
    597c:	52800102 	mov	w2, #0x8                   	// #8
/home/zrz0517/study/TEE/RT-TEE/optee_os/lib/libmbedtls/mbedtls/library/bignum.c:2316
    5980:	aa1303e1 	mov	x1, x19
    5984:	aa1303e0 	mov	x0, x19
    5988:	97fff7e4 	bl	3918 <mbedtls_mpi_add_int>
    598c:	35000540 	cbnz	w0, 5a34 <mbedtls_mpi_gen_prime+0x178>
/home/zrz0517/study/TEE/RT-TEE/optee_os/lib/libmbedtls/mbedtls/library/bignum.c:2319
    5990:	aa1303e1 	mov	x1, x19
    5994:	aa1503e0 	mov	x0, x21
    5998:	97fff4cb 	bl	2cc4 <mbedtls_mpi_copy>
    599c:	350004c0 	cbnz	w0, 5a34 <mbedtls_mpi_gen_prime+0x178>
/home/zrz0517/study/TEE/RT-TEE/optee_os/lib/libmbedtls/mbedtls/library/bignum.c:2320
    59a0:	d2800021 	mov	x1, #0x1                   	// #1
    59a4:	aa1503e0 	mov	x0, x21
    59a8:	97fff67d 	bl	339c <mbedtls_mpi_shift_r>
    59ac:	35000440 	cbnz	w0, 5a34 <mbedtls_mpi_gen_prime+0x178>
/home/zrz0517/study/TEE/RT-TEE/optee_os/lib/libmbedtls/mbedtls/library/bignum.c:2328
    59b0:	aa1303e0 	mov	x0, x19
    59b4:	97fffb19 	bl	4618 <mpi_check_small_factors>
    59b8:	350001c0 	cbnz	w0, 59f0 <mbedtls_mpi_gen_prime+0x134>
/home/zrz0517/study/TEE/RT-TEE/optee_os/lib/libmbedtls/mbedtls/library/bignum.c:2329 (discriminator 1)
    59bc:	aa1503e0 	mov	x0, x21
    59c0:	97fffb16 	bl	4618 <mpi_check_small_factors>
/home/zrz0517/study/TEE/RT-TEE/optee_os/lib/libmbedtls/mbedtls/library/bignum.c:2328 (discriminator 1)
    59c4:	35000160 	cbnz	w0, 59f0 <mbedtls_mpi_gen_prime+0x134>
/home/zrz0517/study/TEE/RT-TEE/optee_os/lib/libmbedtls/mbedtls/library/bignum.c:2330
    59c8:	aa1803e2 	mov	x2, x24
    59cc:	aa1703e1 	mov	x1, x23
    59d0:	aa1303e0 	mov	x0, x19
    59d4:	97fffdb5 	bl	50a8 <mpi_miller_rabin>
/home/zrz0517/study/TEE/RT-TEE/optee_os/lib/libmbedtls/mbedtls/library/bignum.c:2329
    59d8:	350000c0 	cbnz	w0, 59f0 <mbedtls_mpi_gen_prime+0x134>
/home/zrz0517/study/TEE/RT-TEE/optee_os/lib/libmbedtls/mbedtls/library/bignum.c:2331
    59dc:	aa1803e2 	mov	x2, x24
    59e0:	aa1703e1 	mov	x1, x23
    59e4:	aa1503e0 	mov	x0, x21
    59e8:	97fffdb0 	bl	50a8 <mpi_miller_rabin>
/home/zrz0517/study/TEE/RT-TEE/optee_os/lib/libmbedtls/mbedtls/library/bignum.c:2330
    59ec:	34000360 	cbz	w0, 5a58 <mbedtls_mpi_gen_prime+0x19c>
/home/zrz0517/study/TEE/RT-TEE/optee_os/lib/libmbedtls/mbedtls/library/bignum.c:2336
    59f0:	3100381f 	cmn	w0, #0xe
    59f4:	54000201 	b.ne	5a34 <mbedtls_mpi_gen_prime+0x178>  // b.any
/home/zrz0517/study/TEE/RT-TEE/optee_os/lib/libmbedtls/mbedtls/library/bignum.c:2344
    59f8:	52800182 	mov	w2, #0xc                   	// #12
    59fc:	aa1303e1 	mov	x1, x19
    5a00:	aa1303e0 	mov	x0, x19
    5a04:	97fff7c5 	bl	3918 <mbedtls_mpi_add_int>
    5a08:	35000160 	cbnz	w0, 5a34 <mbedtls_mpi_gen_prime+0x178>
/home/zrz0517/study/TEE/RT-TEE/optee_os/lib/libmbedtls/mbedtls/library/bignum.c:2345
    5a0c:	528000c2 	mov	w2, #0x6                   	// #6
    5a10:	aa1503e1 	mov	x1, x21
    5a14:	aa1503e0 	mov	x0, x21
    5a18:	97fff7c0 	bl	3918 <mbedtls_mpi_add_int>
    5a1c:	17ffffe4 	b	59ac <mbedtls_mpi_gen_prime+0xf0>
/home/zrz0517/study/TEE/RT-TEE/optee_os/lib/libmbedtls/mbedtls/library/bignum.c:2286 (discriminator 1)
    5a20:	cb160000 	sub	x0, x0, x22
    5a24:	91000401 	add	x1, x0, #0x1
    5a28:	aa1303e0 	mov	x0, x19
    5a2c:	97fff65c 	bl	339c <mbedtls_mpi_shift_r>
    5a30:	34fff860 	cbz	w0, 593c <mbedtls_mpi_gen_prime+0x80>
    5a34:	2a0003f4 	mov	w20, w0
    5a38:	14000008 	b	5a58 <mbedtls_mpi_gen_prime+0x19c>
/home/zrz0517/study/TEE/RT-TEE/optee_os/lib/libmbedtls/mbedtls/library/bignum.c:2290
    5a3c:	32000000 	orr	w0, w0, #0x1
    5a40:	b9000020 	str	w0, [x1]
/home/zrz0517/study/TEE/RT-TEE/optee_os/lib/libmbedtls/mbedtls/library/bignum.c:2294
    5a44:	aa1803e2 	mov	x2, x24
    5a48:	aa1703e1 	mov	x1, x23
    5a4c:	aa1303e0 	mov	x0, x19
    5a50:	97ffff75 	bl	5824 <mbedtls_mpi_is_prime>
    5a54:	35000140 	cbnz	w0, 5a7c <mbedtls_mpi_gen_prime+0x1c0>
/home/zrz0517/study/TEE/RT-TEE/optee_os/lib/libmbedtls/mbedtls/library/bignum.c:2351
    5a58:	aa1503e0 	mov	x0, x21
    5a5c:	97fff3da 	bl	29c4 <mbedtls_mpi_free>
/home/zrz0517/study/TEE/RT-TEE/optee_os/lib/libmbedtls/mbedtls/library/bignum.c:2354
    5a60:	2a1403e0 	mov	w0, w20
    5a64:	a94153f3 	ldp	x19, x20, [sp, #16]
    5a68:	a9425bf5 	ldp	x21, x22, [sp, #32]
    5a6c:	a94363f7 	ldp	x23, x24, [sp, #48]
    5a70:	f94023f9 	ldr	x25, [sp, #64]
    5a74:	a8c77bfd 	ldp	x29, x30, [sp], #112
    5a78:	d65f03c0 	ret
/home/zrz0517/study/TEE/RT-TEE/optee_os/lib/libmbedtls/mbedtls/library/bignum.c:2296
    5a7c:	3100381f 	cmn	w0, #0xe
    5a80:	54fffda1 	b.ne	5a34 <mbedtls_mpi_gen_prime+0x178>  // b.any
/home/zrz0517/study/TEE/RT-TEE/optee_os/lib/libmbedtls/mbedtls/library/bignum.c:2299
    5a84:	52800042 	mov	w2, #0x2                   	// #2
    5a88:	aa1303e1 	mov	x1, x19
    5a8c:	aa1303e0 	mov	x0, x19
    5a90:	97fff7a2 	bl	3918 <mbedtls_mpi_add_int>
    5a94:	34fffd80 	cbz	w0, 5a44 <mbedtls_mpi_gen_prime+0x188>
    5a98:	17ffffe7 	b	5a34 <mbedtls_mpi_gen_prime+0x178>
/home/zrz0517/study/TEE/RT-TEE/optee_os/lib/libmbedtls/mbedtls/library/bignum.c:2315
    5a9c:	7100041f 	cmp	w0, #0x1
    5aa0:	54fff781 	b.ne	5990 <mbedtls_mpi_gen_prime+0xd4>  // b.any
/home/zrz0517/study/TEE/RT-TEE/optee_os/lib/libmbedtls/mbedtls/library/bignum.c:2316
    5aa4:	52800082 	mov	w2, #0x4                   	// #4
    5aa8:	17ffffb6 	b	5980 <mbedtls_mpi_gen_prime+0xc4>
/home/zrz0517/study/TEE/RT-TEE/optee_os/lib/libmbedtls/mbedtls/library/bignum.c:2277
    5aac:	12800074 	mov	w20, #0xfffffffc            	// #-4
    5ab0:	17ffffec 	b	5a60 <mbedtls_mpi_gen_prime+0x1a4>

0000000000005ab4 <mbedtls_mpi_self_test>:
mbedtls_mpi_self_test():
/home/zrz0517/study/TEE/RT-TEE/optee_os/lib/libmbedtls/mbedtls/library/bignum.c:2373
    5ab4:	a9b27bfd 	stp	x29, x30, [sp, #-224]!
    5ab8:	910003fd 	mov	x29, sp
    5abc:	a9025bf5 	stp	x21, x22, [sp, #32]
/home/zrz0517/study/TEE/RT-TEE/optee_os/lib/libmbedtls/mbedtls/library/bignum.c:2377
    5ac0:	9101c3f6 	add	x22, sp, #0x70
/home/zrz0517/study/TEE/RT-TEE/optee_os/lib/libmbedtls/mbedtls/library/bignum.c:2379
    5ac4:	910303f5 	add	x21, sp, #0xc0
/home/zrz0517/study/TEE/RT-TEE/optee_os/lib/libmbedtls/mbedtls/library/bignum.c:2373
    5ac8:	a90153f3 	stp	x19, x20, [sp, #16]
    5acc:	2a0003f3 	mov	w19, w0
/home/zrz0517/study/TEE/RT-TEE/optee_os/lib/libmbedtls/mbedtls/library/bignum.c:2377
    5ad0:	aa1603e0 	mov	x0, x22
/home/zrz0517/study/TEE/RT-TEE/optee_os/lib/libmbedtls/mbedtls/library/bignum.c:2373
    5ad4:	a90363f7 	stp	x23, x24, [sp, #48]
/home/zrz0517/study/TEE/RT-TEE/optee_os/lib/libmbedtls/mbedtls/library/bignum.c:2378
    5ad8:	910243f8 	add	x24, sp, #0x90
    5adc:	910283f4 	add	x20, sp, #0xa0
/home/zrz0517/study/TEE/RT-TEE/optee_os/lib/libmbedtls/mbedtls/library/bignum.c:2373
    5ae0:	a9046bf9 	stp	x25, x26, [sp, #64]
/home/zrz0517/study/TEE/RT-TEE/optee_os/lib/libmbedtls/mbedtls/library/bignum.c:2379
    5ae4:	9102c3f9 	add	x25, sp, #0xb0
/home/zrz0517/study/TEE/RT-TEE/optee_os/lib/libmbedtls/mbedtls/library/bignum.c:2373
    5ae8:	a90573fb 	stp	x27, x28, [sp, #80]
/home/zrz0517/study/TEE/RT-TEE/optee_os/lib/libmbedtls/mbedtls/library/bignum.c:2377
    5aec:	97fff3a2 	bl	2974 <mbedtls_mpi_init_mempool>
    5af0:	910203fc 	add	x28, sp, #0x80
    5af4:	aa1c03e0 	mov	x0, x28
    5af8:	97fff39f 	bl	2974 <mbedtls_mpi_init_mempool>
/home/zrz0517/study/TEE/RT-TEE/optee_os/lib/libmbedtls/mbedtls/library/bignum.c:2378
    5afc:	aa1803e0 	mov	x0, x24
    5b00:	97fff39d 	bl	2974 <mbedtls_mpi_init_mempool>
    5b04:	aa1403e0 	mov	x0, x20
    5b08:	97fff39b 	bl	2974 <mbedtls_mpi_init_mempool>
/home/zrz0517/study/TEE/RT-TEE/optee_os/lib/libmbedtls/mbedtls/library/bignum.c:2379
    5b0c:	aa1903e0 	mov	x0, x25
    5b10:	97fff399 	bl	2974 <mbedtls_mpi_init_mempool>
    5b14:	aa1503e0 	mov	x0, x21
    5b18:	97fff397 	bl	2974 <mbedtls_mpi_init_mempool>
/home/zrz0517/study/TEE/RT-TEE/optee_os/lib/libmbedtls/mbedtls/library/bignum.c:2380
    5b1c:	910343e0 	add	x0, sp, #0xd0
    5b20:	f90037e0 	str	x0, [sp, #104]
    5b24:	97fff394 	bl	2974 <mbedtls_mpi_init_mempool>
/home/zrz0517/study/TEE/RT-TEE/optee_os/lib/libmbedtls/mbedtls/library/bignum.c:2382
    5b28:	b0000022 	adrp	x2, a000 <__func__.4888+0x13>
    5b2c:	52800201 	mov	w1, #0x10                  	// #16
    5b30:	91046042 	add	x2, x2, #0x118
    5b34:	aa1603e0 	mov	x0, x22
    5b38:	97fff7f7 	bl	3b14 <mbedtls_mpi_read_string>
    5b3c:	2a0003fb 	mov	w27, w0
    5b40:	350004c0 	cbnz	w0, 5bd8 <mbedtls_mpi_self_test+0x124>
/home/zrz0517/study/TEE/RT-TEE/optee_os/lib/libmbedtls/mbedtls/library/bignum.c:2388
    5b44:	b0000022 	adrp	x2, a000 <__func__.4888+0x13>
    5b48:	52800201 	mov	w1, #0x10                  	// #16
    5b4c:	91066442 	add	x2, x2, #0x199
    5b50:	aa1c03e0 	mov	x0, x28
    5b54:	97fff7f0 	bl	3b14 <mbedtls_mpi_read_string>
    5b58:	2a0003fb 	mov	w27, w0
    5b5c:	350003e0 	cbnz	w0, 5bd8 <mbedtls_mpi_self_test+0x124>
/home/zrz0517/study/TEE/RT-TEE/optee_os/lib/libmbedtls/mbedtls/library/bignum.c:2394
    5b60:	b0000022 	adrp	x2, a000 <__func__.4888+0x13>
    5b64:	52800201 	mov	w1, #0x10                  	// #16
    5b68:	91086842 	add	x2, x2, #0x21a
    5b6c:	aa1803e0 	mov	x0, x24
    5b70:	97fff7e9 	bl	3b14 <mbedtls_mpi_read_string>
    5b74:	2a0003fb 	mov	w27, w0
    5b78:	35000300 	cbnz	w0, 5bd8 <mbedtls_mpi_self_test+0x124>
/home/zrz0517/study/TEE/RT-TEE/optee_os/lib/libmbedtls/mbedtls/library/bignum.c:2399
    5b7c:	aa1803e2 	mov	x2, x24
    5b80:	aa1603e1 	mov	x1, x22
    5b84:	aa1403e0 	mov	x0, x20
    5b88:	97fff782 	bl	3990 <mbedtls_mpi_mul_mpi>
    5b8c:	2a0003fb 	mov	w27, w0
    5b90:	35000240 	cbnz	w0, 5bd8 <mbedtls_mpi_self_test+0x124>
/home/zrz0517/study/TEE/RT-TEE/optee_os/lib/libmbedtls/mbedtls/library/bignum.c:2401
    5b94:	b0000022 	adrp	x2, a000 <__func__.4888+0x13>
    5b98:	52800201 	mov	w1, #0x10                  	// #16
    5b9c:	9109ec42 	add	x2, x2, #0x27b
    5ba0:	aa1503e0 	mov	x0, x21
    5ba4:	97fff7dc 	bl	3b14 <mbedtls_mpi_read_string>
    5ba8:	2a0003fb 	mov	w27, w0
    5bac:	35000160 	cbnz	w0, 5bd8 <mbedtls_mpi_self_test+0x124>
/home/zrz0517/study/TEE/RT-TEE/optee_os/lib/libmbedtls/mbedtls/library/bignum.c:2410
    5bb0:	34000093 	cbz	w19, 5bc0 <mbedtls_mpi_self_test+0x10c>
/home/zrz0517/study/TEE/RT-TEE/optee_os/lib/libmbedtls/mbedtls/library/bignum.c:2411
    5bb4:	b0000020 	adrp	x0, a000 <__func__.4888+0x13>
    5bb8:	910d6800 	add	x0, x0, #0x35a
    5bbc:	97fff19b 	bl	2228 <printf>
/home/zrz0517/study/TEE/RT-TEE/optee_os/lib/libmbedtls/mbedtls/library/bignum.c:2413
    5bc0:	aa1503e1 	mov	x1, x21
    5bc4:	aa1403e0 	mov	x0, x20
    5bc8:	97fff64e 	bl	3500 <mbedtls_mpi_cmp_mpi>
    5bcc:	340004e0 	cbz	w0, 5c68 <mbedtls_mpi_self_test+0x1b4>
/home/zrz0517/study/TEE/RT-TEE/optee_os/lib/libmbedtls/mbedtls/library/bignum.c:2415
    5bd0:	35000453 	cbnz	w19, 5c58 <mbedtls_mpi_self_test+0x1a4>
/home/zrz0517/study/TEE/RT-TEE/optee_os/lib/libmbedtls/mbedtls/library/bignum.c:2510
    5bd4:	5280003b 	mov	w27, #0x1                   	// #1
/home/zrz0517/study/TEE/RT-TEE/optee_os/lib/libmbedtls/mbedtls/library/bignum.c:2520
    5bd8:	7100037f 	cmp	w27, #0x0
    5bdc:	7a401a64 	ccmp	w19, #0x0, #0x4, ne  // ne = any
    5be0:	540000a0 	b.eq	5bf4 <mbedtls_mpi_self_test+0x140>  // b.none
/home/zrz0517/study/TEE/RT-TEE/optee_os/lib/libmbedtls/mbedtls/library/bignum.c:2521
    5be4:	b0000020 	adrp	x0, a000 <__func__.4888+0x13>
    5be8:	2a1b03e1 	mov	w1, w27
    5bec:	9114f800 	add	x0, x0, #0x53e
    5bf0:	97fff18e 	bl	2228 <printf>
/home/zrz0517/study/TEE/RT-TEE/optee_os/lib/libmbedtls/mbedtls/library/bignum.c:2523
    5bf4:	aa1603e0 	mov	x0, x22
    5bf8:	97fff373 	bl	29c4 <mbedtls_mpi_free>
    5bfc:	aa1c03e0 	mov	x0, x28
    5c00:	97fff371 	bl	29c4 <mbedtls_mpi_free>
    5c04:	aa1803e0 	mov	x0, x24
    5c08:	97fff36f 	bl	29c4 <mbedtls_mpi_free>
    5c0c:	aa1403e0 	mov	x0, x20
    5c10:	97fff36d 	bl	29c4 <mbedtls_mpi_free>
/home/zrz0517/study/TEE/RT-TEE/optee_os/lib/libmbedtls/mbedtls/library/bignum.c:2524
    5c14:	aa1903e0 	mov	x0, x25
    5c18:	97fff36b 	bl	29c4 <mbedtls_mpi_free>
    5c1c:	aa1503e0 	mov	x0, x21
    5c20:	97fff369 	bl	29c4 <mbedtls_mpi_free>
    5c24:	f94037e0 	ldr	x0, [sp, #104]
    5c28:	97fff367 	bl	29c4 <mbedtls_mpi_free>
/home/zrz0517/study/TEE/RT-TEE/optee_os/lib/libmbedtls/mbedtls/library/bignum.c:2526
    5c2c:	34000073 	cbz	w19, 5c38 <mbedtls_mpi_self_test+0x184>
/home/zrz0517/study/TEE/RT-TEE/optee_os/lib/libmbedtls/mbedtls/library/bignum.c:2527
    5c30:	52800140 	mov	w0, #0xa                   	// #10
    5c34:	97fff1bf 	bl	2330 <putchar>
/home/zrz0517/study/TEE/RT-TEE/optee_os/lib/libmbedtls/mbedtls/library/bignum.c:2530
    5c38:	2a1b03e0 	mov	w0, w27
    5c3c:	a94153f3 	ldp	x19, x20, [sp, #16]
    5c40:	a9425bf5 	ldp	x21, x22, [sp, #32]
    5c44:	a94363f7 	ldp	x23, x24, [sp, #48]
    5c48:	a9446bf9 	ldp	x25, x26, [sp, #64]
    5c4c:	a94573fb 	ldp	x27, x28, [sp, #80]
    5c50:	a8ce7bfd 	ldp	x29, x30, [sp], #224
    5c54:	d65f03c0 	ret
/home/zrz0517/study/TEE/RT-TEE/optee_os/lib/libmbedtls/mbedtls/library/bignum.c:2416
    5c58:	b0000020 	adrp	x0, a000 <__func__.4888+0x13>
    5c5c:	910dd000 	add	x0, x0, #0x374
    5c60:	97fff1a4 	bl	22f0 <puts>
    5c64:	17ffffdc 	b	5bd4 <mbedtls_mpi_self_test+0x120>
/home/zrz0517/study/TEE/RT-TEE/optee_os/lib/libmbedtls/mbedtls/library/bignum.c:2422
    5c68:	34000093 	cbz	w19, 5c78 <mbedtls_mpi_self_test+0x1c4>
/home/zrz0517/study/TEE/RT-TEE/optee_os/lib/libmbedtls/mbedtls/library/bignum.c:2423
    5c6c:	b0000020 	adrp	x0, a000 <__func__.4888+0x13>
    5c70:	910dec00 	add	x0, x0, #0x37b
    5c74:	97fff19f 	bl	22f0 <puts>
/home/zrz0517/study/TEE/RT-TEE/optee_os/lib/libmbedtls/mbedtls/library/bignum.c:2425
    5c78:	aa1803e3 	mov	x3, x24
    5c7c:	aa1603e2 	mov	x2, x22
    5c80:	aa1903e1 	mov	x1, x25
    5c84:	aa1403e0 	mov	x0, x20
    5c88:	97fff81c 	bl	3cf8 <mbedtls_mpi_div_mpi>
    5c8c:	2a0003fb 	mov	w27, w0
    5c90:	35fffa40 	cbnz	w0, 5bd8 <mbedtls_mpi_self_test+0x124>
/home/zrz0517/study/TEE/RT-TEE/optee_os/lib/libmbedtls/mbedtls/library/bignum.c:2427
    5c94:	b0000022 	adrp	x2, a000 <__func__.4888+0x13>
    5c98:	52800201 	mov	w1, #0x10                  	// #16
    5c9c:	910e0842 	add	x2, x2, #0x382
    5ca0:	aa1503e0 	mov	x0, x21
    5ca4:	97fff79c 	bl	3b14 <mbedtls_mpi_read_string>
    5ca8:	2a0003fb 	mov	w27, w0
    5cac:	35fff960 	cbnz	w0, 5bd8 <mbedtls_mpi_self_test+0x124>
/home/zrz0517/study/TEE/RT-TEE/optee_os/lib/libmbedtls/mbedtls/library/bignum.c:2430
    5cb0:	f94037e0 	ldr	x0, [sp, #104]
    5cb4:	b0000022 	adrp	x2, a000 <__func__.4888+0x13>
    5cb8:	52800201 	mov	w1, #0x10                  	// #16
    5cbc:	910e9842 	add	x2, x2, #0x3a6
    5cc0:	97fff795 	bl	3b14 <mbedtls_mpi_read_string>
    5cc4:	2a0003fb 	mov	w27, w0
    5cc8:	35fff880 	cbnz	w0, 5bd8 <mbedtls_mpi_self_test+0x124>
/home/zrz0517/study/TEE/RT-TEE/optee_os/lib/libmbedtls/mbedtls/library/bignum.c:2435
    5ccc:	34000093 	cbz	w19, 5cdc <mbedtls_mpi_self_test+0x228>
/home/zrz0517/study/TEE/RT-TEE/optee_os/lib/libmbedtls/mbedtls/library/bignum.c:2436
    5cd0:	b0000020 	adrp	x0, a000 <__func__.4888+0x13>
    5cd4:	91101400 	add	x0, x0, #0x405
    5cd8:	97fff154 	bl	2228 <printf>
/home/zrz0517/study/TEE/RT-TEE/optee_os/lib/libmbedtls/mbedtls/library/bignum.c:2438
    5cdc:	aa1503e1 	mov	x1, x21
    5ce0:	aa1403e0 	mov	x0, x20
    5ce4:	97fff607 	bl	3500 <mbedtls_mpi_cmp_mpi>
    5ce8:	35fff740 	cbnz	w0, 5bd0 <mbedtls_mpi_self_test+0x11c>
/home/zrz0517/study/TEE/RT-TEE/optee_os/lib/libmbedtls/mbedtls/library/bignum.c:2439 (discriminator 1)
    5cec:	f94037e1 	ldr	x1, [sp, #104]
    5cf0:	aa1903e0 	mov	x0, x25
    5cf4:	97fff603 	bl	3500 <mbedtls_mpi_cmp_mpi>
/home/zrz0517/study/TEE/RT-TEE/optee_os/lib/libmbedtls/mbedtls/library/bignum.c:2438 (discriminator 1)
    5cf8:	35fff6c0 	cbnz	w0, 5bd0 <mbedtls_mpi_self_test+0x11c>
/home/zrz0517/study/TEE/RT-TEE/optee_os/lib/libmbedtls/mbedtls/library/bignum.c:2448
    5cfc:	34000093 	cbz	w19, 5d0c <mbedtls_mpi_self_test+0x258>
/home/zrz0517/study/TEE/RT-TEE/optee_os/lib/libmbedtls/mbedtls/library/bignum.c:2449
    5d00:	b0000020 	adrp	x0, a000 <__func__.4888+0x13>
    5d04:	910dec00 	add	x0, x0, #0x37b
    5d08:	97fff17a 	bl	22f0 <puts>
/home/zrz0517/study/TEE/RT-TEE/optee_os/lib/libmbedtls/mbedtls/library/bignum.c:2451
    5d0c:	d2800004 	mov	x4, #0x0                   	// #0
    5d10:	aa1803e3 	mov	x3, x24
    5d14:	aa1c03e2 	mov	x2, x28
    5d18:	aa1603e1 	mov	x1, x22
    5d1c:	aa1403e0 	mov	x0, x20
    5d20:	97fffaca 	bl	4848 <mbedtls_mpi_exp_mod>
    5d24:	2a0003fb 	mov	w27, w0
    5d28:	35fff580 	cbnz	w0, 5bd8 <mbedtls_mpi_self_test+0x124>
/home/zrz0517/study/TEE/RT-TEE/optee_os/lib/libmbedtls/mbedtls/library/bignum.c:2453
    5d2c:	b0000022 	adrp	x2, a000 <__func__.4888+0x13>
    5d30:	52800201 	mov	w1, #0x10                  	// #16
    5d34:	91107c42 	add	x2, x2, #0x41f
    5d38:	aa1503e0 	mov	x0, x21
    5d3c:	97fff776 	bl	3b14 <mbedtls_mpi_read_string>
    5d40:	2a0003fb 	mov	w27, w0
    5d44:	35fff4a0 	cbnz	w0, 5bd8 <mbedtls_mpi_self_test+0x124>
/home/zrz0517/study/TEE/RT-TEE/optee_os/lib/libmbedtls/mbedtls/library/bignum.c:2458
    5d48:	34000093 	cbz	w19, 5d58 <mbedtls_mpi_self_test+0x2a4>
/home/zrz0517/study/TEE/RT-TEE/optee_os/lib/libmbedtls/mbedtls/library/bignum.c:2459
    5d4c:	b0000020 	adrp	x0, a000 <__func__.4888+0x13>
    5d50:	9111f800 	add	x0, x0, #0x47e
    5d54:	97fff135 	bl	2228 <printf>
/home/zrz0517/study/TEE/RT-TEE/optee_os/lib/libmbedtls/mbedtls/library/bignum.c:2461
    5d58:	aa1503e1 	mov	x1, x21
    5d5c:	aa1403e0 	mov	x0, x20
    5d60:	97fff5e8 	bl	3500 <mbedtls_mpi_cmp_mpi>
    5d64:	35fff360 	cbnz	w0, 5bd0 <mbedtls_mpi_self_test+0x11c>
/home/zrz0517/study/TEE/RT-TEE/optee_os/lib/libmbedtls/mbedtls/library/bignum.c:2470
    5d68:	34000093 	cbz	w19, 5d78 <mbedtls_mpi_self_test+0x2c4>
/home/zrz0517/study/TEE/RT-TEE/optee_os/lib/libmbedtls/mbedtls/library/bignum.c:2471
    5d6c:	b0000020 	adrp	x0, a000 <__func__.4888+0x13>
    5d70:	910dec00 	add	x0, x0, #0x37b
    5d74:	97fff15f 	bl	22f0 <puts>
/home/zrz0517/study/TEE/RT-TEE/optee_os/lib/libmbedtls/mbedtls/library/bignum.c:2473
    5d78:	aa1803e2 	mov	x2, x24
    5d7c:	aa1603e1 	mov	x1, x22
    5d80:	aa1403e0 	mov	x0, x20
    5d84:	97fffd9a 	bl	53ec <mbedtls_mpi_inv_mod>
    5d88:	2a0003fb 	mov	w27, w0
    5d8c:	35fff260 	cbnz	w0, 5bd8 <mbedtls_mpi_self_test+0x124>
/home/zrz0517/study/TEE/RT-TEE/optee_os/lib/libmbedtls/mbedtls/library/bignum.c:2475
    5d90:	b0000022 	adrp	x2, a000 <__func__.4888+0x13>
    5d94:	52800201 	mov	w1, #0x10                  	// #16
    5d98:	91126042 	add	x2, x2, #0x498
    5d9c:	aa1503e0 	mov	x0, x21
    5da0:	97fff75d 	bl	3b14 <mbedtls_mpi_read_string>
    5da4:	2a0003fb 	mov	w27, w0
    5da8:	35fff180 	cbnz	w0, 5bd8 <mbedtls_mpi_self_test+0x124>
/home/zrz0517/study/TEE/RT-TEE/optee_os/lib/libmbedtls/mbedtls/library/bignum.c:2480
    5dac:	34000093 	cbz	w19, 5dbc <mbedtls_mpi_self_test+0x308>
/home/zrz0517/study/TEE/RT-TEE/optee_os/lib/libmbedtls/mbedtls/library/bignum.c:2481
    5db0:	b0000020 	adrp	x0, a000 <__func__.4888+0x13>
    5db4:	9113e400 	add	x0, x0, #0x4f9
    5db8:	97fff11c 	bl	2228 <printf>
/home/zrz0517/study/TEE/RT-TEE/optee_os/lib/libmbedtls/mbedtls/library/bignum.c:2483
    5dbc:	aa1503e1 	mov	x1, x21
    5dc0:	aa1403e0 	mov	x0, x20
    5dc4:	97fff5cf 	bl	3500 <mbedtls_mpi_cmp_mpi>
    5dc8:	2a0003fa 	mov	w26, w0
    5dcc:	35fff020 	cbnz	w0, 5bd0 <mbedtls_mpi_self_test+0x11c>
/home/zrz0517/study/TEE/RT-TEE/optee_os/lib/libmbedtls/mbedtls/library/bignum.c:2492
    5dd0:	340000f3 	cbz	w19, 5dec <mbedtls_mpi_self_test+0x338>
/home/zrz0517/study/TEE/RT-TEE/optee_os/lib/libmbedtls/mbedtls/library/bignum.c:2493
    5dd4:	b0000020 	adrp	x0, a000 <__func__.4888+0x13>
    5dd8:	910dec00 	add	x0, x0, #0x37b
    5ddc:	97fff145 	bl	22f0 <puts>
/home/zrz0517/study/TEE/RT-TEE/optee_os/lib/libmbedtls/mbedtls/library/bignum.c:2496
    5de0:	b0000020 	adrp	x0, a000 <__func__.4888+0x13>
    5de4:	91144c00 	add	x0, x0, #0x513
    5de8:	97fff110 	bl	2228 <printf>
    5dec:	90000037 	adrp	x23, 9000 <__text_end+0xd6c>
    5df0:	912c42f7 	add	x23, x23, #0xb10
    5df4:	910a82f7 	add	x23, x23, #0x2a0
/home/zrz0517/study/TEE/RT-TEE/optee_os/lib/libmbedtls/mbedtls/library/bignum.c:2500
    5df8:	b94002e1 	ldr	w1, [x23]
    5dfc:	aa1403e0 	mov	x0, x20
    5e00:	97fff45c 	bl	2f70 <mbedtls_mpi_lset>
    5e04:	2a0003fb 	mov	w27, w0
    5e08:	35ffee80 	cbnz	w0, 5bd8 <mbedtls_mpi_self_test+0x124>
/home/zrz0517/study/TEE/RT-TEE/optee_os/lib/libmbedtls/mbedtls/library/bignum.c:2501
    5e0c:	b94006e1 	ldr	w1, [x23, #4]
    5e10:	aa1903e0 	mov	x0, x25
    5e14:	97fff457 	bl	2f70 <mbedtls_mpi_lset>
    5e18:	2a0003fb 	mov	w27, w0
    5e1c:	35ffede0 	cbnz	w0, 5bd8 <mbedtls_mpi_self_test+0x124>
/home/zrz0517/study/TEE/RT-TEE/optee_os/lib/libmbedtls/mbedtls/library/bignum.c:2503
    5e20:	aa1903e2 	mov	x2, x25
    5e24:	aa1403e1 	mov	x1, x20
    5e28:	aa1603e0 	mov	x0, x22
    5e2c:	97fffc15 	bl	4e80 <mbedtls_mpi_gcd>
    5e30:	2a0003fb 	mov	w27, w0
    5e34:	35ffed20 	cbnz	w0, 5bd8 <mbedtls_mpi_self_test+0x124>
/home/zrz0517/study/TEE/RT-TEE/optee_os/lib/libmbedtls/mbedtls/library/bignum.c:2505
    5e38:	b9400ae1 	ldr	w1, [x23, #8]
    5e3c:	aa1603e0 	mov	x0, x22
    5e40:	97fff5e5 	bl	35d4 <mbedtls_mpi_cmp_int>
    5e44:	2a0003fb 	mov	w27, w0
    5e48:	340000e0 	cbz	w0, 5e64 <mbedtls_mpi_self_test+0x3b0>
/home/zrz0517/study/TEE/RT-TEE/optee_os/lib/libmbedtls/mbedtls/library/bignum.c:2507
    5e4c:	34ffec53 	cbz	w19, 5bd4 <mbedtls_mpi_self_test+0x120>
/home/zrz0517/study/TEE/RT-TEE/optee_os/lib/libmbedtls/mbedtls/library/bignum.c:2508
    5e50:	2a1a03e1 	mov	w1, w26
    5e54:	b0000020 	adrp	x0, a000 <__func__.4888+0x13>
    5e58:	9114c000 	add	x0, x0, #0x530
    5e5c:	97fff0f3 	bl	2228 <printf>
    5e60:	17ffff5d 	b	5bd4 <mbedtls_mpi_self_test+0x120>
/home/zrz0517/study/TEE/RT-TEE/optee_os/lib/libmbedtls/mbedtls/library/bignum.c:2498 (discriminator 2)
    5e64:	1100075a 	add	w26, w26, #0x1
    5e68:	910032f7 	add	x23, x23, #0xc
    5e6c:	71000f5f 	cmp	w26, #0x3
    5e70:	54fffc41 	b.ne	5df8 <mbedtls_mpi_self_test+0x344>  // b.any
/home/zrz0517/study/TEE/RT-TEE/optee_os/lib/libmbedtls/mbedtls/library/bignum.c:2515
    5e74:	340000b3 	cbz	w19, 5e88 <mbedtls_mpi_self_test+0x3d4>
/home/zrz0517/study/TEE/RT-TEE/optee_os/lib/libmbedtls/mbedtls/library/bignum.c:2516
    5e78:	b0000020 	adrp	x0, a000 <__func__.4888+0x13>
    5e7c:	910dec00 	add	x0, x0, #0x37b
    5e80:	97fff11c 	bl	22f0 <puts>
    5e84:	17ffff55 	b	5bd8 <mbedtls_mpi_self_test+0x124>
/home/zrz0517/study/TEE/RT-TEE/optee_os/lib/libmbedtls/mbedtls/library/bignum.c:2518
    5e88:	2a1303fb 	mov	w27, w19
    5e8c:	17ffff53 	b	5bd8 <mbedtls_mpi_self_test+0x124>

0000000000005e90 <raw_malloc_return_hook.isra.3>:
raw_malloc_return_hook():
/home/zrz0517/study/TEE/RT-TEE/optee_os/lib/libutils/isoc/bget_malloc.c:167
    5e90:	f0000023 	adrp	x3, c000 <ta_props>
    5e94:	91062064 	add	x4, x3, #0x188
    5e98:	b9402485 	ldr	w5, [x4, #36]
    5e9c:	eb0200bf 	cmp	x5, x2
    5ea0:	5400004a 	b.ge	5ea8 <raw_malloc_return_hook.isra.3+0x18>  // b.tcont
/home/zrz0517/study/TEE/RT-TEE/optee_os/lib/libutils/isoc/bget_malloc.c:168
    5ea4:	b9002482 	str	w2, [x4, #36]
/home/zrz0517/study/TEE/RT-TEE/optee_os/lib/libutils/isoc/bget_malloc.c:170
    5ea8:	b5000120 	cbnz	x0, 5ecc <raw_malloc_return_hook.isra.3+0x3c>
/home/zrz0517/study/TEE/RT-TEE/optee_os/lib/libutils/isoc/bget_malloc.c:171
    5eac:	91062060 	add	x0, x3, #0x188
    5eb0:	b9402c03 	ldr	w3, [x0, #44]
    5eb4:	11000463 	add	w3, w3, #0x1
    5eb8:	b9002c03 	str	w3, [x0, #44]
/home/zrz0517/study/TEE/RT-TEE/optee_os/lib/libutils/isoc/bget_malloc.c:172
    5ebc:	b9403003 	ldr	w3, [x0, #48]
    5ec0:	eb01007f 	cmp	x3, x1
    5ec4:	54000042 	b.cs	5ecc <raw_malloc_return_hook.isra.3+0x3c>  // b.hs, b.nlast
/home/zrz0517/study/TEE/RT-TEE/optee_os/lib/libutils/isoc/bget_malloc.c:174
    5ec8:	29060801 	stp	w1, w2, [x0, #48]
/home/zrz0517/study/TEE/RT-TEE/optee_os/lib/libutils/isoc/bget_malloc.c:177
    5ecc:	d65f03c0 	ret

0000000000005ed0 <create_free_block.constprop.11>:
create_free_block():
/home/zrz0517/study/TEE/RT-TEE/optee_os/lib/libutils/isoc/bget_malloc.c:380
    5ed0:	a9bf7bfd 	stp	x29, x30, [sp, #-16]!
/home/zrz0517/study/TEE/RT-TEE/optee_os/lib/libutils/isoc/bget_malloc.c:383
    5ed4:	8b010003 	add	x3, x0, x1
    5ed8:	eb03005f 	cmp	x2, x3
/home/zrz0517/study/TEE/RT-TEE/optee_os/lib/libutils/isoc/bget_malloc.c:380
    5edc:	910003fd 	mov	x29, sp
/home/zrz0517/study/TEE/RT-TEE/optee_os/lib/libutils/isoc/bget_malloc.c:383
    5ee0:	54000140 	b.eq	5f08 <create_free_block.constprop.11+0x38>  // b.none
    5ee4:	b0000023 	adrp	x3, a000 <__func__.4888+0x13>
    5ee8:	b0000021 	adrp	x1, a000 <__func__.4888+0x13>
    5eec:	b0000020 	adrp	x0, a000 <__func__.4888+0x13>
    5ef0:	91159063 	add	x3, x3, #0x564
    5ef4:	9117b821 	add	x1, x1, #0x5ee
    5ef8:	91183800 	add	x0, x0, #0x60e
    5efc:	52802fe2 	mov	w2, #0x17f                 	// #383
/home/zrz0517/study/TEE/RT-TEE/optee_os/lib/libutils/isoc/bget_malloc.c:384
    5f00:	940008cf 	bl	823c <_assert_log>
    5f04:	940008df 	bl	8280 <_assert_break>
    5f08:	f9400443 	ldr	x3, [x2, #8]
    5f0c:	b7f80123 	tbnz	x3, #63, 5f30 <create_free_block.constprop.11+0x60>
    5f10:	b0000023 	adrp	x3, a000 <__func__.4888+0x13>
    5f14:	b0000021 	adrp	x1, a000 <__func__.4888+0x13>
    5f18:	b0000020 	adrp	x0, a000 <__func__.4888+0x13>
    5f1c:	91159063 	add	x3, x3, #0x564
    5f20:	52803002 	mov	w2, #0x180                 	// #384
    5f24:	9117b821 	add	x1, x1, #0x5ee
    5f28:	9118a800 	add	x0, x0, #0x62a
    5f2c:	17fffff5 	b	5f00 <create_free_block.constprop.11+0x30>
/home/zrz0517/study/TEE/RT-TEE/optee_os/lib/libutils/isoc/bget_malloc.c:386
    5f30:	f9400043 	ldr	x3, [x2]
    5f34:	b4000123 	cbz	x3, 5f58 <create_free_block.constprop.11+0x88>
    5f38:	b0000023 	adrp	x3, a000 <__func__.4888+0x13>
    5f3c:	b0000021 	adrp	x1, a000 <__func__.4888+0x13>
    5f40:	b0000020 	adrp	x0, a000 <__func__.4888+0x13>
    5f44:	91159063 	add	x3, x3, #0x564
    5f48:	52803042 	mov	w2, #0x182                 	// #386
    5f4c:	9117b821 	add	x1, x1, #0x5ee
    5f50:	9118e000 	add	x0, x0, #0x638
    5f54:	17ffffeb 	b	5f00 <create_free_block.constprop.11+0x30>
/home/zrz0517/study/TEE/RT-TEE/optee_os/lib/libutils/isoc/bget_malloc.c:389
    5f58:	a900041f 	stp	xzr, x1, [x0]
/home/zrz0517/study/TEE/RT-TEE/optee_os/lib/libutils/isoc/bget_malloc.c:393
    5f5c:	f9000041 	str	x1, [x2]
/home/zrz0517/study/TEE/RT-TEE/optee_os/lib/libutils/isoc/bget_malloc.c:396
    5f60:	f0000021 	adrp	x1, c000 <ta_props>
    5f64:	9103c021 	add	x1, x1, #0xf0
    5f68:	f9400c23 	ldr	x3, [x1, #24]
    5f6c:	f9400862 	ldr	x2, [x3, #16]
    5f70:	eb01005f 	cmp	x2, x1
    5f74:	54000120 	b.eq	5f98 <create_free_block.constprop.11+0xc8>  // b.none
    5f78:	b0000023 	adrp	x3, a000 <__func__.4888+0x13>
    5f7c:	b0000021 	adrp	x1, a000 <__func__.4888+0x13>
    5f80:	b0000020 	adrp	x0, a000 <__func__.4888+0x13>
    5f84:	91159063 	add	x3, x3, #0x564
    5f88:	52803182 	mov	w2, #0x18c                 	// #396
    5f8c:	9117b821 	add	x1, x1, #0x5ee
    5f90:	91192800 	add	x0, x0, #0x64a
    5f94:	17ffffdb 	b	5f00 <create_free_block.constprop.11+0x30>
/home/zrz0517/study/TEE/RT-TEE/optee_os/lib/libutils/isoc/bget_malloc.c:397
    5f98:	f9400841 	ldr	x1, [x2, #16]
    5f9c:	f9400c21 	ldr	x1, [x1, #24]
    5fa0:	eb02003f 	cmp	x1, x2
    5fa4:	54000120 	b.eq	5fc8 <create_free_block.constprop.11+0xf8>  // b.none
    5fa8:	b0000023 	adrp	x3, a000 <__func__.4888+0x13>
    5fac:	b0000021 	adrp	x1, a000 <__func__.4888+0x13>
    5fb0:	b0000020 	adrp	x0, a000 <__func__.4888+0x13>
    5fb4:	91159063 	add	x3, x3, #0x564
    5fb8:	528031a2 	mov	w2, #0x18d                 	// #397
    5fbc:	9117b821 	add	x1, x1, #0x5ee
    5fc0:	911a1400 	add	x0, x0, #0x685
    5fc4:	17ffffcf 	b	5f00 <create_free_block.constprop.11+0x30>
/home/zrz0517/study/TEE/RT-TEE/optee_os/lib/libutils/isoc/bget_malloc.c:399
    5fc8:	a9010c01 	stp	x1, x3, [x0, #16]
/home/zrz0517/study/TEE/RT-TEE/optee_os/lib/libutils/isoc/bget_malloc.c:400
    5fcc:	f9000c20 	str	x0, [x1, #24]
/home/zrz0517/study/TEE/RT-TEE/optee_os/lib/libutils/isoc/bget_malloc.c:401
    5fd0:	f9400c01 	ldr	x1, [x0, #24]
    5fd4:	f9000820 	str	x0, [x1, #16]
/home/zrz0517/study/TEE/RT-TEE/optee_os/lib/libutils/isoc/bget_malloc.c:402
    5fd8:	a8c17bfd 	ldp	x29, x30, [sp], #16
    5fdc:	d65f03c0 	ret

0000000000005fe0 <bget>:
bget():
/home/zrz0517/study/TEE/RT-TEE/optee_os/lib/libutils/isoc/bget.c:582
    5fe0:	a9bf7bfd 	stp	x29, x30, [sp, #-16]!
/home/zrz0517/study/TEE/RT-TEE/optee_os/lib/libutils/isoc/bget.c:593
    5fe4:	f100001f 	cmp	x0, #0x0
/home/zrz0517/study/TEE/RT-TEE/optee_os/lib/libutils/isoc/bget.c:582
    5fe8:	910003fd 	mov	x29, sp
/home/zrz0517/study/TEE/RT-TEE/optee_os/lib/libutils/isoc/bget.c:593
    5fec:	5400016c 	b.gt	6018 <bget+0x38>
/home/zrz0517/study/TEE/RT-TEE/optee_os/lib/libutils/isoc/bget.c:593 (discriminator 1)
    5ff0:	b0000023 	adrp	x3, a000 <__func__.4888+0x13>
    5ff4:	91159063 	add	x3, x3, #0x564
    5ff8:	b0000021 	adrp	x1, a000 <__func__.4888+0x13>
    5ffc:	b0000020 	adrp	x0, a000 <__func__.4888+0x13>
    6000:	91004863 	add	x3, x3, #0x12
    6004:	911b0021 	add	x1, x1, #0x6c0
    6008:	9122dc00 	add	x0, x0, #0x8b7
    600c:	52804a22 	mov	w2, #0x251                 	// #593
/home/zrz0517/study/TEE/RT-TEE/optee_os/lib/libutils/isoc/bget.c:653 (discriminator 1)
    6010:	9400088b 	bl	823c <_assert_log>
    6014:	9400089b 	bl	8280 <_assert_break>
/home/zrz0517/study/TEE/RT-TEE/optee_os/lib/libutils/isoc/bget.c:600
    6018:	f100401f 	cmp	x0, #0x10
    601c:	d2800202 	mov	x2, #0x10                  	// #16
    6020:	9a82a002 	csel	x2, x0, x2, ge  // ge = tcont
    6024:	91003c42 	add	x2, x2, #0xf
    6028:	927cec42 	and	x2, x2, #0xfffffffffffffff0
/home/zrz0517/study/TEE/RT-TEE/optee_os/lib/libutils/isoc/bget.c:614
    602c:	f9400820 	ldr	x0, [x1, #16]
/home/zrz0517/study/TEE/RT-TEE/optee_os/lib/libutils/isoc/bget.c:604
    6030:	91004042 	add	x2, x2, #0x10
/home/zrz0517/study/TEE/RT-TEE/optee_os/lib/libutils/isoc/bget.c:636
    6034:	eb00003f 	cmp	x1, x0
    6038:	54000061 	b.ne	6044 <bget+0x64>  // b.any
/home/zrz0517/study/TEE/RT-TEE/optee_os/lib/libutils/isoc/bget.c:764
    603c:	d2800000 	mov	x0, #0x0                   	// #0
    6040:	1400001f 	b	60bc <bget+0xdc>
/home/zrz0517/study/TEE/RT-TEE/optee_os/lib/libutils/isoc/bget.c:637
    6044:	f9400403 	ldr	x3, [x0, #8]
    6048:	eb02007f 	cmp	x3, x2
    604c:	54000a6b 	b.lt	6198 <bget+0x1b8>  // b.tstop
/home/zrz0517/study/TEE/RT-TEE/optee_os/lib/libutils/isoc/bget.c:648
    6050:	cb020064 	sub	x4, x3, x2
    6054:	f100809f 	cmp	x4, #0x20
    6058:	5400036d 	b.le	60c4 <bget+0xe4>
/home/zrz0517/study/TEE/RT-TEE/optee_os/lib/libutils/isoc/bget.c:651
    605c:	8b040005 	add	x5, x0, x4
/home/zrz0517/study/TEE/RT-TEE/optee_os/lib/libutils/isoc/bget.c:653
    6060:	f86268a6 	ldr	x6, [x5, x2]
    6064:	eb06007f 	cmp	x3, x6
    6068:	54000140 	b.eq	6090 <bget+0xb0>  // b.none
/home/zrz0517/study/TEE/RT-TEE/optee_os/lib/libutils/isoc/bget.c:653 (discriminator 1)
    606c:	90000023 	adrp	x3, a000 <__func__.4888+0x13>
    6070:	91159063 	add	x3, x3, #0x564
    6074:	90000021 	adrp	x1, a000 <__func__.4888+0x13>
    6078:	90000020 	adrp	x0, a000 <__func__.4888+0x13>
    607c:	91004863 	add	x3, x3, #0x12
    6080:	528051a2 	mov	w2, #0x28d                 	// #653
    6084:	911b0021 	add	x1, x1, #0x6c0
    6088:	911b6400 	add	x0, x0, #0x6d9
    608c:	17ffffe1 	b	6010 <bget+0x30>
/home/zrz0517/study/TEE/RT-TEE/optee_os/lib/libutils/isoc/bget.c:655
    6090:	f9000404 	str	x4, [x0, #8]
/home/zrz0517/study/TEE/RT-TEE/optee_os/lib/libutils/isoc/bget.c:657
    6094:	f8246804 	str	x4, [x0, x4]
/home/zrz0517/study/TEE/RT-TEE/optee_os/lib/libutils/isoc/bget.c:659
    6098:	cb0203e0 	neg	x0, x2
    609c:	f90004a0 	str	x0, [x5, #8]
/home/zrz0517/study/TEE/RT-TEE/optee_os/lib/libutils/isoc/bget.c:664
    60a0:	f9401020 	ldr	x0, [x1, #32]
/home/zrz0517/study/TEE/RT-TEE/optee_os/lib/libutils/isoc/bget.c:661
    60a4:	f82268bf 	str	xzr, [x5, x2]
/home/zrz0517/study/TEE/RT-TEE/optee_os/lib/libutils/isoc/bget.c:664
    60a8:	8b020002 	add	x2, x0, x2
/home/zrz0517/study/TEE/RT-TEE/optee_os/lib/libutils/isoc/bget.c:665
    60ac:	f9401420 	ldr	x0, [x1, #40]
    60b0:	91000400 	add	x0, x0, #0x1
    60b4:	a9020022 	stp	x2, x0, [x1, #32]
/home/zrz0517/study/TEE/RT-TEE/optee_os/lib/libutils/isoc/bget.c:667
    60b8:	910040a0 	add	x0, x5, #0x10
/home/zrz0517/study/TEE/RT-TEE/optee_os/lib/libutils/isoc/bget.c:765
    60bc:	a8c17bfd 	ldp	x29, x30, [sp], #16
    60c0:	d65f03c0 	ret
/home/zrz0517/study/TEE/RT-TEE/optee_os/lib/libutils/isoc/bget.c:674
    60c4:	f8636802 	ldr	x2, [x0, x3]
/home/zrz0517/study/TEE/RT-TEE/optee_os/lib/libutils/isoc/bget.c:673
    60c8:	8b030005 	add	x5, x0, x3
/home/zrz0517/study/TEE/RT-TEE/optee_os/lib/libutils/isoc/bget.c:674
    60cc:	eb02007f 	cmp	x3, x2
    60d0:	54000140 	b.eq	60f8 <bget+0x118>  // b.none
/home/zrz0517/study/TEE/RT-TEE/optee_os/lib/libutils/isoc/bget.c:674 (discriminator 1)
    60d4:	90000023 	adrp	x3, a000 <__func__.4888+0x13>
    60d8:	91159063 	add	x3, x3, #0x564
    60dc:	90000021 	adrp	x1, a000 <__func__.4888+0x13>
    60e0:	90000020 	adrp	x0, a000 <__func__.4888+0x13>
    60e4:	91004863 	add	x3, x3, #0x12
    60e8:	52805442 	mov	w2, #0x2a2                 	// #674
    60ec:	911b0021 	add	x1, x1, #0x6c0
    60f0:	911bd400 	add	x0, x0, #0x6f5
    60f4:	17ffffc7 	b	6010 <bget+0x30>
/home/zrz0517/study/TEE/RT-TEE/optee_os/lib/libutils/isoc/bget.c:679
    60f8:	f9400c02 	ldr	x2, [x0, #24]
    60fc:	f9400844 	ldr	x4, [x2, #16]
    6100:	eb00009f 	cmp	x4, x0
    6104:	54000140 	b.eq	612c <bget+0x14c>  // b.none
/home/zrz0517/study/TEE/RT-TEE/optee_os/lib/libutils/isoc/bget.c:679 (discriminator 1)
    6108:	90000023 	adrp	x3, a000 <__func__.4888+0x13>
    610c:	91159063 	add	x3, x3, #0x564
    6110:	90000021 	adrp	x1, a000 <__func__.4888+0x13>
    6114:	90000020 	adrp	x0, a000 <__func__.4888+0x13>
    6118:	91004863 	add	x3, x3, #0x12
    611c:	528054e2 	mov	w2, #0x2a7                 	// #679
    6120:	911b0021 	add	x1, x1, #0x6c0
    6124:	911c4400 	add	x0, x0, #0x711
    6128:	17ffffba 	b	6010 <bget+0x30>
/home/zrz0517/study/TEE/RT-TEE/optee_os/lib/libutils/isoc/bget.c:680
    612c:	f9400804 	ldr	x4, [x0, #16]
    6130:	f9400c86 	ldr	x6, [x4, #24]
    6134:	eb0000df 	cmp	x6, x0
    6138:	54000140 	b.eq	6160 <bget+0x180>  // b.none
/home/zrz0517/study/TEE/RT-TEE/optee_os/lib/libutils/isoc/bget.c:680 (discriminator 1)
    613c:	90000023 	adrp	x3, a000 <__func__.4888+0x13>
    6140:	91159063 	add	x3, x3, #0x564
    6144:	90000021 	adrp	x1, a000 <__func__.4888+0x13>
    6148:	90000020 	adrp	x0, a000 <__func__.4888+0x13>
    614c:	91004863 	add	x3, x3, #0x12
    6150:	52805502 	mov	w2, #0x2a8                 	// #680
    6154:	911b0021 	add	x1, x1, #0x6c0
    6158:	911cb000 	add	x0, x0, #0x72c
    615c:	17ffffad 	b	6010 <bget+0x30>
/home/zrz0517/study/TEE/RT-TEE/optee_os/lib/libutils/isoc/bget.c:681
    6160:	f9000844 	str	x4, [x2, #16]
/home/zrz0517/study/TEE/RT-TEE/optee_os/lib/libutils/isoc/bget.c:696
    6164:	91004000 	add	x0, x0, #0x10
/home/zrz0517/study/TEE/RT-TEE/optee_os/lib/libutils/isoc/bget.c:682
    6168:	f9400004 	ldr	x4, [x0]
    616c:	f9000c82 	str	x2, [x4, #24]
/home/zrz0517/study/TEE/RT-TEE/optee_os/lib/libutils/isoc/bget.c:685
    6170:	f9401022 	ldr	x2, [x1, #32]
    6174:	8b030042 	add	x2, x2, x3
    6178:	f9001022 	str	x2, [x1, #32]
/home/zrz0517/study/TEE/RT-TEE/optee_os/lib/libutils/isoc/bget.c:686
    617c:	f9401422 	ldr	x2, [x1, #40]
/home/zrz0517/study/TEE/RT-TEE/optee_os/lib/libutils/isoc/bget.c:689
    6180:	cb0303e3 	neg	x3, x3
/home/zrz0517/study/TEE/RT-TEE/optee_os/lib/libutils/isoc/bget.c:686
    6184:	91000442 	add	x2, x2, #0x1
    6188:	f9001422 	str	x2, [x1, #40]
/home/zrz0517/study/TEE/RT-TEE/optee_os/lib/libutils/isoc/bget.c:689
    618c:	f81f8003 	stur	x3, [x0, #-8]
/home/zrz0517/study/TEE/RT-TEE/optee_os/lib/libutils/isoc/bget.c:693
    6190:	f90000bf 	str	xzr, [x5]
/home/zrz0517/study/TEE/RT-TEE/optee_os/lib/libutils/isoc/bget.c:698
    6194:	17ffffca 	b	60bc <bget+0xdc>
/home/zrz0517/study/TEE/RT-TEE/optee_os/lib/libutils/isoc/bget.c:701
    6198:	f9400800 	ldr	x0, [x0, #16]
    619c:	17ffffa6 	b	6034 <bget+0x54>

00000000000061a0 <bgetz>:
bgetz():
/home/zrz0517/study/TEE/RT-TEE/optee_os/lib/libutils/isoc/bget.c:774
    61a0:	a9be7bfd 	stp	x29, x30, [sp, #-32]!
    61a4:	910003fd 	mov	x29, sp
    61a8:	f9000bf3 	str	x19, [sp, #16]
    61ac:	aa0003f3 	mov	x19, x0
/home/zrz0517/study/TEE/RT-TEE/optee_os/lib/libutils/isoc/bget.c:775
    61b0:	97ffff8c 	bl	5fe0 <bget>
    61b4:	aa0003e3 	mov	x3, x0
/home/zrz0517/study/TEE/RT-TEE/optee_os/lib/libutils/isoc/bget.c:777
    61b8:	b4000320 	cbz	x0, 621c <bgetz+0x7c>
/home/zrz0517/study/TEE/RT-TEE/optee_os/lib/libutils/isoc/bget.c:782
    61bc:	f85f8000 	ldur	x0, [x0, #-8]
/home/zrz0517/study/TEE/RT-TEE/optee_os/lib/libutils/isoc/bget.c:783
    61c0:	b50001e0 	cbnz	x0, 61fc <bgetz+0x5c>
/home/zrz0517/study/TEE/RT-TEE/optee_os/lib/libutils/isoc/bget.c:787
    61c4:	f85e8062 	ldur	x2, [x3, #-24]
    61c8:	d1006042 	sub	x2, x2, #0x18
/home/zrz0517/study/TEE/RT-TEE/optee_os/lib/libutils/isoc/bget.c:791
    61cc:	eb13005f 	cmp	x2, x19
    61d0:	540001ca 	b.ge	6208 <bgetz+0x68>  // b.tcont
    61d4:	90000023 	adrp	x3, a000 <__func__.4888+0x13>
    61d8:	91159063 	add	x3, x3, #0x564
    61dc:	91005c63 	add	x3, x3, #0x17
    61e0:	90000021 	adrp	x1, a000 <__func__.4888+0x13>
    61e4:	90000020 	adrp	x0, a000 <__func__.4888+0x13>
    61e8:	911b0021 	add	x1, x1, #0x6c0
    61ec:	911d1c00 	add	x0, x0, #0x747
    61f0:	528062e2 	mov	w2, #0x317                 	// #791
    61f4:	94000812 	bl	823c <_assert_log>
    61f8:	94000822 	bl	8280 <_assert_break>
/home/zrz0517/study/TEE/RT-TEE/optee_os/lib/libutils/isoc/bget.c:789
    61fc:	928001e2 	mov	x2, #0xfffffffffffffff0    	// #-16
    6200:	cb000042 	sub	x2, x2, x0
    6204:	17fffff2 	b	61cc <bgetz+0x2c>
memset_unchecked():
/home/zrz0517/study/TEE/RT-TEE/optee_os/lib/libutils/isoc/bget_malloc.c:141
    6208:	aa0303e0 	mov	x0, x3
    620c:	93407c42 	sxtw	x2, w2
    6210:	52800001 	mov	w1, #0x0                   	// #0
    6214:	940003ae 	bl	70cc <memset>
    6218:	aa0003e3 	mov	x3, x0
bgetz():
/home/zrz0517/study/TEE/RT-TEE/optee_os/lib/libutils/isoc/bget.c:795
    621c:	aa0303e0 	mov	x0, x3
    6220:	f9400bf3 	ldr	x19, [sp, #16]
    6224:	a8c27bfd 	ldp	x29, x30, [sp], #32
    6228:	d65f03c0 	ret

000000000000622c <brel>:
brel():
/home/zrz0517/study/TEE/RT-TEE/optee_os/lib/libutils/isoc/bget.c:846
    622c:	a9bf7bfd 	stp	x29, x30, [sp, #-16]!
    6230:	910003fd 	mov	x29, sp
/home/zrz0517/study/TEE/RT-TEE/optee_os/lib/libutils/isoc/bget.c:852
    6234:	f9401823 	ldr	x3, [x1, #48]
    6238:	91000463 	add	x3, x3, #0x1
    623c:	f9001823 	str	x3, [x1, #48]
/home/zrz0517/study/TEE/RT-TEE/optee_os/lib/libutils/isoc/bget.c:854
    6240:	b5000160 	cbnz	x0, 626c <brel+0x40>
/home/zrz0517/study/TEE/RT-TEE/optee_os/lib/libutils/isoc/bget.c:854 (discriminator 1)
    6244:	90000023 	adrp	x3, a000 <__func__.4888+0x13>
    6248:	91159063 	add	x3, x3, #0x564
    624c:	90000021 	adrp	x1, a000 <__func__.4888+0x13>
    6250:	90000020 	adrp	x0, a000 <__func__.4888+0x13>
    6254:	91007463 	add	x3, x3, #0x1d
    6258:	911b0021 	add	x1, x1, #0x6c0
    625c:	911d5400 	add	x0, x0, #0x755
    6260:	52806ac2 	mov	w2, #0x356                 	// #854
/home/zrz0517/study/TEE/RT-TEE/optee_os/lib/libutils/isoc/bget.c:885 (discriminator 1)
    6264:	940007f6 	bl	823c <_assert_log>
    6268:	94000806 	bl	8280 <_assert_break>
/home/zrz0517/study/TEE/RT-TEE/optee_os/lib/libutils/isoc/bget.c:882
    626c:	f85f8003 	ldur	x3, [x0, #-8]
/home/zrz0517/study/TEE/RT-TEE/optee_os/lib/libutils/isoc/bget.c:885
    6270:	b7f80143 	tbnz	x3, #63, 6298 <brel+0x6c>
/home/zrz0517/study/TEE/RT-TEE/optee_os/lib/libutils/isoc/bget.c:885 (discriminator 1)
    6274:	90000023 	adrp	x3, a000 <__func__.4888+0x13>
    6278:	91159063 	add	x3, x3, #0x564
    627c:	90000021 	adrp	x1, a000 <__func__.4888+0x13>
    6280:	90000020 	adrp	x0, a000 <__func__.4888+0x13>
    6284:	91007463 	add	x3, x3, #0x1d
    6288:	52806ea2 	mov	w2, #0x375                 	// #885
    628c:	911b0021 	add	x1, x1, #0x6c0
    6290:	911d8400 	add	x0, x0, #0x761
    6294:	17fffff4 	b	6264 <brel+0x38>
    6298:	d1004002 	sub	x2, x0, #0x10
/home/zrz0517/study/TEE/RT-TEE/optee_os/lib/libutils/isoc/bget.c:891
    629c:	cb030044 	sub	x4, x2, x3
    62a0:	f9400084 	ldr	x4, [x4]
    62a4:	b4000144 	cbz	x4, 62cc <brel+0xa0>
/home/zrz0517/study/TEE/RT-TEE/optee_os/lib/libutils/isoc/bget.c:891 (discriminator 1)
    62a8:	90000023 	adrp	x3, a000 <__func__.4888+0x13>
    62ac:	91159063 	add	x3, x3, #0x564
    62b0:	90000021 	adrp	x1, a000 <__func__.4888+0x13>
    62b4:	90000020 	adrp	x0, a000 <__func__.4888+0x13>
    62b8:	91007463 	add	x3, x3, #0x1d
    62bc:	52806f62 	mov	w2, #0x37b                 	// #891
    62c0:	911b0021 	add	x1, x1, #0x6c0
    62c4:	911dc400 	add	x0, x0, #0x771
    62c8:	17ffffe7 	b	6264 <brel+0x38>
/home/zrz0517/study/TEE/RT-TEE/optee_os/lib/libutils/isoc/bget.c:894
    62cc:	f9401024 	ldr	x4, [x1, #32]
    62d0:	8b040064 	add	x4, x3, x4
    62d4:	f9001024 	str	x4, [x1, #32]
/home/zrz0517/study/TEE/RT-TEE/optee_os/lib/libutils/isoc/bget.c:895
    62d8:	b6f80144 	tbz	x4, #63, 6300 <brel+0xd4>
/home/zrz0517/study/TEE/RT-TEE/optee_os/lib/libutils/isoc/bget.c:895 (discriminator 1)
    62dc:	90000023 	adrp	x3, a000 <__func__.4888+0x13>
    62e0:	91159063 	add	x3, x3, #0x564
    62e4:	90000021 	adrp	x1, a000 <__func__.4888+0x13>
    62e8:	90000020 	adrp	x0, a000 <__func__.4888+0x13>
    62ec:	91007463 	add	x3, x3, #0x1d
    62f0:	52806fe2 	mov	w2, #0x37f                 	// #895
    62f4:	911b0021 	add	x1, x1, #0x6c0
    62f8:	911e7400 	add	x0, x0, #0x79d
    62fc:	17ffffda 	b	6264 <brel+0x38>
/home/zrz0517/study/TEE/RT-TEE/optee_os/lib/libutils/isoc/bget.c:900
    6300:	f85f0004 	ldur	x4, [x0, #-16]
    6304:	b4000424 	cbz	x4, 6388 <brel+0x15c>
/home/zrz0517/study/TEE/RT-TEE/optee_os/lib/libutils/isoc/bget.c:911
    6308:	cb040042 	sub	x2, x2, x4
    630c:	f9400440 	ldr	x0, [x2, #8]
    6310:	eb00009f 	cmp	x4, x0
    6314:	54000140 	b.eq	633c <brel+0x110>  // b.none
/home/zrz0517/study/TEE/RT-TEE/optee_os/lib/libutils/isoc/bget.c:911 (discriminator 1)
    6318:	90000023 	adrp	x3, a000 <__func__.4888+0x13>
    631c:	91159063 	add	x3, x3, #0x564
    6320:	90000021 	adrp	x1, a000 <__func__.4888+0x13>
    6324:	90000020 	adrp	x0, a000 <__func__.4888+0x13>
    6328:	91007463 	add	x3, x3, #0x1d
    632c:	528071e2 	mov	w2, #0x38f                 	// #911
    6330:	911b0021 	add	x1, x1, #0x6c0
    6334:	911ed000 	add	x0, x0, #0x7b4
    6338:	17ffffcb 	b	6264 <brel+0x38>
/home/zrz0517/study/TEE/RT-TEE/optee_os/lib/libutils/isoc/bget.c:913
    633c:	cb030083 	sub	x3, x4, x3
    6340:	f9000443 	str	x3, [x2, #8]
/home/zrz0517/study/TEE/RT-TEE/optee_os/lib/libutils/isoc/bget.c:933
    6344:	f9400441 	ldr	x1, [x2, #8]
    6348:	8b010040 	add	x0, x2, x1
/home/zrz0517/study/TEE/RT-TEE/optee_os/lib/libutils/isoc/bget.c:934
    634c:	f9400403 	ldr	x3, [x0, #8]
    6350:	f100007f 	cmp	x3, #0x0
    6354:	540009ad 	b.le	6488 <brel+0x25c>
/home/zrz0517/study/TEE/RT-TEE/optee_os/lib/libutils/isoc/bget.c:939
    6358:	f8636804 	ldr	x4, [x0, x3]
    635c:	eb04007f 	cmp	x3, x4
    6360:	54000560 	b.eq	640c <brel+0x1e0>  // b.none
/home/zrz0517/study/TEE/RT-TEE/optee_os/lib/libutils/isoc/bget.c:939 (discriminator 1)
    6364:	90000023 	adrp	x3, a000 <__func__.4888+0x13>
    6368:	91159063 	add	x3, x3, #0x564
    636c:	90000021 	adrp	x1, a000 <__func__.4888+0x13>
    6370:	90000020 	adrp	x0, a000 <__func__.4888+0x13>
    6374:	91007463 	add	x3, x3, #0x1d
    6378:	52807562 	mov	w2, #0x3ab                 	// #939
    637c:	911b0021 	add	x1, x1, #0x6c0
    6380:	911fb400 	add	x0, x0, #0x7ed
    6384:	17ffffb8 	b	6264 <brel+0x38>
/home/zrz0517/study/TEE/RT-TEE/optee_os/lib/libutils/isoc/bget.c:919
    6388:	f9400c25 	ldr	x5, [x1, #24]
    638c:	f94008a4 	ldr	x4, [x5, #16]
    6390:	eb01009f 	cmp	x4, x1
    6394:	54000140 	b.eq	63bc <brel+0x190>  // b.none
/home/zrz0517/study/TEE/RT-TEE/optee_os/lib/libutils/isoc/bget.c:919 (discriminator 1)
    6398:	90000023 	adrp	x3, a000 <__func__.4888+0x13>
    639c:	91159063 	add	x3, x3, #0x564
    63a0:	90000021 	adrp	x1, a000 <__func__.4888+0x13>
    63a4:	90000020 	adrp	x0, a000 <__func__.4888+0x13>
    63a8:	91007463 	add	x3, x3, #0x1d
    63ac:	528072e2 	mov	w2, #0x397                 	// #919
    63b0:	911b0021 	add	x1, x1, #0x6c0
    63b4:	91192800 	add	x0, x0, #0x64a
    63b8:	17ffffab 	b	6264 <brel+0x38>
/home/zrz0517/study/TEE/RT-TEE/optee_os/lib/libutils/isoc/bget.c:920
    63bc:	f9400881 	ldr	x1, [x4, #16]
    63c0:	f9400c21 	ldr	x1, [x1, #24]
    63c4:	eb01009f 	cmp	x4, x1
    63c8:	54000140 	b.eq	63f0 <brel+0x1c4>  // b.none
/home/zrz0517/study/TEE/RT-TEE/optee_os/lib/libutils/isoc/bget.c:920 (discriminator 1)
    63cc:	90000023 	adrp	x3, a000 <__func__.4888+0x13>
    63d0:	91159063 	add	x3, x3, #0x564
    63d4:	90000021 	adrp	x1, a000 <__func__.4888+0x13>
    63d8:	90000020 	adrp	x0, a000 <__func__.4888+0x13>
    63dc:	91007463 	add	x3, x3, #0x1d
    63e0:	52807302 	mov	w2, #0x398                 	// #920
    63e4:	911b0021 	add	x1, x1, #0x6c0
    63e8:	911a1400 	add	x0, x0, #0x685
    63ec:	17ffff9e 	b	6264 <brel+0x38>
/home/zrz0517/study/TEE/RT-TEE/optee_os/lib/libutils/isoc/bget.c:922
    63f0:	a9011444 	stp	x4, x5, [x2, #16]
/home/zrz0517/study/TEE/RT-TEE/optee_os/lib/libutils/isoc/bget.c:886
    63f4:	cb0303e3 	neg	x3, x3
/home/zrz0517/study/TEE/RT-TEE/optee_os/lib/libutils/isoc/bget.c:923
    63f8:	f9000c82 	str	x2, [x4, #24]
/home/zrz0517/study/TEE/RT-TEE/optee_os/lib/libutils/isoc/bget.c:924
    63fc:	f9400c41 	ldr	x1, [x2, #24]
    6400:	f9000822 	str	x2, [x1, #16]
/home/zrz0517/study/TEE/RT-TEE/optee_os/lib/libutils/isoc/bget.c:925
    6404:	f81f8003 	stur	x3, [x0, #-8]
    6408:	17ffffcf 	b	6344 <brel+0x118>
/home/zrz0517/study/TEE/RT-TEE/optee_os/lib/libutils/isoc/bget.c:940
    640c:	f9400c04 	ldr	x4, [x0, #24]
    6410:	f9400885 	ldr	x5, [x4, #16]
    6414:	eb0000bf 	cmp	x5, x0
    6418:	54000140 	b.eq	6440 <brel+0x214>  // b.none
/home/zrz0517/study/TEE/RT-TEE/optee_os/lib/libutils/isoc/bget.c:940 (discriminator 1)
    641c:	90000023 	adrp	x3, a000 <__func__.4888+0x13>
    6420:	91159063 	add	x3, x3, #0x564
    6424:	90000021 	adrp	x1, a000 <__func__.4888+0x13>
    6428:	90000020 	adrp	x0, a000 <__func__.4888+0x13>
    642c:	91007463 	add	x3, x3, #0x1d
    6430:	52807582 	mov	w2, #0x3ac                 	// #940
    6434:	911b0021 	add	x1, x1, #0x6c0
    6438:	91209800 	add	x0, x0, #0x826
    643c:	17ffff8a 	b	6264 <brel+0x38>
/home/zrz0517/study/TEE/RT-TEE/optee_os/lib/libutils/isoc/bget.c:941
    6440:	f94008a0 	ldr	x0, [x5, #16]
    6444:	f9400c06 	ldr	x6, [x0, #24]
    6448:	eb0500df 	cmp	x6, x5
    644c:	54000140 	b.eq	6474 <brel+0x248>  // b.none
/home/zrz0517/study/TEE/RT-TEE/optee_os/lib/libutils/isoc/bget.c:941 (discriminator 1)
    6450:	90000023 	adrp	x3, a000 <__func__.4888+0x13>
    6454:	91159063 	add	x3, x3, #0x564
    6458:	90000021 	adrp	x1, a000 <__func__.4888+0x13>
    645c:	90000020 	adrp	x0, a000 <__func__.4888+0x13>
    6460:	91007463 	add	x3, x3, #0x1d
    6464:	528075a2 	mov	w2, #0x3ad                 	// #941
    6468:	911b0021 	add	x1, x1, #0x6c0
    646c:	91210c00 	add	x0, x0, #0x843
    6470:	17ffff7d 	b	6264 <brel+0x38>
/home/zrz0517/study/TEE/RT-TEE/optee_os/lib/libutils/isoc/bget.c:942
    6474:	f9000880 	str	x0, [x4, #16]
/home/zrz0517/study/TEE/RT-TEE/optee_os/lib/libutils/isoc/bget.c:943
    6478:	f9000c04 	str	x4, [x0, #24]
/home/zrz0517/study/TEE/RT-TEE/optee_os/lib/libutils/isoc/bget.c:944
    647c:	8b030020 	add	x0, x1, x3
    6480:	f9000440 	str	x0, [x2, #8]
/home/zrz0517/study/TEE/RT-TEE/optee_os/lib/libutils/isoc/bget.c:953
    6484:	8b000040 	add	x0, x2, x0
/home/zrz0517/study/TEE/RT-TEE/optee_os/lib/libutils/isoc/bget.c:959
    6488:	f9400401 	ldr	x1, [x0, #8]
    648c:	b7f80141 	tbnz	x1, #63, 64b4 <brel+0x288>
/home/zrz0517/study/TEE/RT-TEE/optee_os/lib/libutils/isoc/bget.c:959 (discriminator 1)
    6490:	90000023 	adrp	x3, a000 <__func__.4888+0x13>
    6494:	91159063 	add	x3, x3, #0x564
    6498:	90000021 	adrp	x1, a000 <__func__.4888+0x13>
    649c:	90000020 	adrp	x0, a000 <__func__.4888+0x13>
    64a0:	91007463 	add	x3, x3, #0x1d
    64a4:	528077e2 	mov	w2, #0x3bf                 	// #959
    64a8:	911b0021 	add	x1, x1, #0x6c0
    64ac:	91218000 	add	x0, x0, #0x860
    64b0:	17ffff6d 	b	6264 <brel+0x38>
/home/zrz0517/study/TEE/RT-TEE/optee_os/lib/libutils/isoc/bget.c:964
    64b4:	f9400441 	ldr	x1, [x2, #8]
    64b8:	f9000001 	str	x1, [x0]
/home/zrz0517/study/TEE/RT-TEE/optee_os/lib/libutils/isoc/bget.c:992
    64bc:	a8c17bfd 	ldp	x29, x30, [sp], #16
    64c0:	d65f03c0 	ret

00000000000064c4 <bgetr>:
bgetr():
/home/zrz0517/study/TEE/RT-TEE/optee_os/lib/libutils/isoc/bget.c:806
    64c4:	a9bc7bfd 	stp	x29, x30, [sp, #-64]!
    64c8:	910003fd 	mov	x29, sp
    64cc:	a90153f3 	stp	x19, x20, [sp, #16]
    64d0:	aa0103f4 	mov	x20, x1
/home/zrz0517/study/TEE/RT-TEE/optee_os/lib/libutils/isoc/bget.c:811
    64d4:	aa0203e1 	mov	x1, x2
/home/zrz0517/study/TEE/RT-TEE/optee_os/lib/libutils/isoc/bget.c:806
    64d8:	a9025bf5 	stp	x21, x22, [sp, #32]
    64dc:	aa0003f5 	mov	x21, x0
/home/zrz0517/study/TEE/RT-TEE/optee_os/lib/libutils/isoc/bget.c:811
    64e0:	aa1403e0 	mov	x0, x20
/home/zrz0517/study/TEE/RT-TEE/optee_os/lib/libutils/isoc/bget.c:806
    64e4:	f9001bf7 	str	x23, [sp, #48]
    64e8:	aa0203f7 	mov	x23, x2
/home/zrz0517/study/TEE/RT-TEE/optee_os/lib/libutils/isoc/bget.c:811
    64ec:	97fffebd 	bl	5fe0 <bget>
    64f0:	aa0003f6 	mov	x22, x0
    64f4:	b4000400 	cbz	x0, 6574 <bgetr+0xb0>
/home/zrz0517/study/TEE/RT-TEE/optee_os/lib/libutils/isoc/bget.c:814
    64f8:	b40003f5 	cbz	x21, 6574 <bgetr+0xb0>
/home/zrz0517/study/TEE/RT-TEE/optee_os/lib/libutils/isoc/bget.c:828
    64fc:	f85f82a1 	ldur	x1, [x21, #-8]
    6500:	928001f3 	mov	x19, #0xfffffffffffffff0    	// #-16
    6504:	cb010273 	sub	x19, x19, x1
/home/zrz0517/study/TEE/RT-TEE/optee_os/lib/libutils/isoc/bget.c:829
    6508:	f100027f 	cmp	x19, #0x0
    650c:	5400016c 	b.gt	6538 <bgetr+0x74>
    6510:	90000023 	adrp	x3, a000 <__func__.4888+0x13>
    6514:	91159063 	add	x3, x3, #0x564
    6518:	91008863 	add	x3, x3, #0x22
    651c:	90000021 	adrp	x1, a000 <__func__.4888+0x13>
    6520:	90000020 	adrp	x0, a000 <__func__.4888+0x13>
    6524:	911b0021 	add	x1, x1, #0x6c0
    6528:	9121c400 	add	x0, x0, #0x871
    652c:	528067a2 	mov	w2, #0x33d                 	// #829
    6530:	94000743 	bl	823c <_assert_log>
    6534:	94000753 	bl	8280 <_assert_break>
/home/zrz0517/study/TEE/RT-TEE/optee_os/lib/libutils/isoc/bget.c:830
    6538:	eb13029f 	cmp	x20, x19
    653c:	93407e81 	sxtw	x1, w20
    6540:	93407e62 	sxtw	x2, w19
    6544:	9a81a042 	csel	x2, x2, x1, ge  // ge = tcont
    6548:	aa1503e1 	mov	x1, x21
    654c:	940002c1 	bl	7050 <memcpy>
/home/zrz0517/study/TEE/RT-TEE/optee_os/lib/libutils/isoc/bget.c:834
    6550:	eb13029f 	cmp	x20, x19
    6554:	540000ad 	b.le	6568 <bgetr+0xa4>
/home/zrz0517/study/TEE/RT-TEE/optee_os/lib/libutils/isoc/bget.c:835
    6558:	cb130282 	sub	x2, x20, x19
    655c:	52800001 	mov	w1, #0x0                   	// #0
    6560:	8b1302c0 	add	x0, x22, x19
    6564:	940002da 	bl	70cc <memset>
/home/zrz0517/study/TEE/RT-TEE/optee_os/lib/libutils/isoc/bget.c:837
    6568:	aa1703e1 	mov	x1, x23
    656c:	aa1503e0 	mov	x0, x21
    6570:	97ffff2f 	bl	622c <brel>
/home/zrz0517/study/TEE/RT-TEE/optee_os/lib/libutils/isoc/bget.c:839
    6574:	aa1603e0 	mov	x0, x22
    6578:	a94153f3 	ldp	x19, x20, [sp, #16]
    657c:	a9425bf5 	ldp	x21, x22, [sp, #32]
    6580:	f9401bf7 	ldr	x23, [sp, #48]
    6584:	a8c47bfd 	ldp	x29, x30, [sp], #64
    6588:	d65f03c0 	ret

000000000000658c <bpool>:
bpool():
/home/zrz0517/study/TEE/RT-TEE/optee_os/lib/libutils/isoc/bget.c:1018
    658c:	a9bf7bfd 	stp	x29, x30, [sp, #-16]!
/home/zrz0517/study/TEE/RT-TEE/optee_os/lib/libutils/isoc/bget.c:1023
    6590:	927cec21 	and	x1, x1, #0xfffffffffffffff0
/home/zrz0517/study/TEE/RT-TEE/optee_os/lib/libutils/isoc/bget.c:1042
    6594:	f1004021 	subs	x1, x1, #0x10
/home/zrz0517/study/TEE/RT-TEE/optee_os/lib/libutils/isoc/bget.c:1018
    6598:	910003fd 	mov	x29, sp
/home/zrz0517/study/TEE/RT-TEE/optee_os/lib/libutils/isoc/bget.c:1042
    659c:	54000165 	b.pl	65c8 <bpool+0x3c>  // b.nfrst
/home/zrz0517/study/TEE/RT-TEE/optee_os/lib/libutils/isoc/bget.c:1042 (discriminator 1)
    65a0:	90000023 	adrp	x3, a000 <__func__.4888+0x13>
    65a4:	91159063 	add	x3, x3, #0x564
    65a8:	90000021 	adrp	x1, a000 <__func__.4888+0x13>
    65ac:	90000020 	adrp	x0, a000 <__func__.4888+0x13>
    65b0:	9100a063 	add	x3, x3, #0x28
    65b4:	911b0021 	add	x1, x1, #0x6c0
    65b8:	9121ec00 	add	x0, x0, #0x87b
    65bc:	52808242 	mov	w2, #0x412                 	// #1042
/home/zrz0517/study/TEE/RT-TEE/optee_os/lib/libutils/isoc/bget.c:1052 (discriminator 1)
    65c0:	9400071f 	bl	823c <_assert_log>
    65c4:	9400072f 	bl	8280 <_assert_break>
/home/zrz0517/study/TEE/RT-TEE/optee_os/lib/libutils/isoc/bget.c:1052
    65c8:	f9400c44 	ldr	x4, [x2, #24]
    65cc:	f9400883 	ldr	x3, [x4, #16]
/home/zrz0517/study/TEE/RT-TEE/optee_os/lib/libutils/isoc/bget.c:1048
    65d0:	f900001f 	str	xzr, [x0]
/home/zrz0517/study/TEE/RT-TEE/optee_os/lib/libutils/isoc/bget.c:1052
    65d4:	eb02007f 	cmp	x3, x2
    65d8:	54000140 	b.eq	6600 <bpool+0x74>  // b.none
/home/zrz0517/study/TEE/RT-TEE/optee_os/lib/libutils/isoc/bget.c:1052 (discriminator 1)
    65dc:	90000023 	adrp	x3, a000 <__func__.4888+0x13>
    65e0:	91159063 	add	x3, x3, #0x564
    65e4:	90000021 	adrp	x1, a000 <__func__.4888+0x13>
    65e8:	90000020 	adrp	x0, a000 <__func__.4888+0x13>
    65ec:	9100a063 	add	x3, x3, #0x28
    65f0:	52808382 	mov	w2, #0x41c                 	// #1052
    65f4:	911b0021 	add	x1, x1, #0x6c0
    65f8:	91192800 	add	x0, x0, #0x64a
    65fc:	17fffff1 	b	65c0 <bpool+0x34>
/home/zrz0517/study/TEE/RT-TEE/optee_os/lib/libutils/isoc/bget.c:1053
    6600:	f9400862 	ldr	x2, [x3, #16]
    6604:	f9400c42 	ldr	x2, [x2, #24]
    6608:	eb02007f 	cmp	x3, x2
    660c:	54000140 	b.eq	6634 <bpool+0xa8>  // b.none
    6610:	90000023 	adrp	x3, a000 <__func__.4888+0x13>
    6614:	91159063 	add	x3, x3, #0x564
    6618:	90000021 	adrp	x1, a000 <__func__.4888+0x13>
    661c:	90000020 	adrp	x0, a000 <__func__.4888+0x13>
    6620:	9100a063 	add	x3, x3, #0x28
    6624:	528083a2 	mov	w2, #0x41d                 	// #1053
    6628:	911b0021 	add	x1, x1, #0x6c0
    662c:	911a1400 	add	x0, x0, #0x685
    6630:	17ffffe4 	b	65c0 <bpool+0x34>
/home/zrz0517/study/TEE/RT-TEE/optee_os/lib/libutils/isoc/bget.c:1055
    6634:	a9011003 	stp	x3, x4, [x0, #16]
/home/zrz0517/study/TEE/RT-TEE/optee_os/lib/libutils/isoc/bget.c:1056
    6638:	f9000c60 	str	x0, [x3, #24]
/home/zrz0517/study/TEE/RT-TEE/optee_os/lib/libutils/isoc/bget.c:1057
    663c:	f9400c02 	ldr	x2, [x0, #24]
    6640:	f9000840 	str	x0, [x2, #16]
/home/zrz0517/study/TEE/RT-TEE/optee_os/lib/libutils/isoc/bget.c:1073
    6644:	8b010002 	add	x2, x0, x1
/home/zrz0517/study/TEE/RT-TEE/optee_os/lib/libutils/isoc/bget.c:1068
    6648:	f9000401 	str	x1, [x0, #8]
/home/zrz0517/study/TEE/RT-TEE/optee_os/lib/libutils/isoc/bget.c:1074
    664c:	f8216801 	str	x1, [x0, x1]
/home/zrz0517/study/TEE/RT-TEE/optee_os/lib/libutils/isoc/bget.c:1077
    6650:	d2f00000 	mov	x0, #0x8000000000000000    	// #-9223372036854775808
    6654:	f9000440 	str	x0, [x2, #8]
/home/zrz0517/study/TEE/RT-TEE/optee_os/lib/libutils/isoc/bget.c:1078
    6658:	a8c17bfd 	ldp	x29, x30, [sp], #16
    665c:	d65f03c0 	ret

0000000000006660 <bstats>:
bstats():
/home/zrz0517/study/TEE/RT-TEE/optee_os/lib/libutils/isoc/bget.c:1091
    6660:	f94014a7 	ldr	x7, [x5, #40]
/home/zrz0517/study/TEE/RT-TEE/optee_os/lib/libutils/isoc/bget.c:1089
    6664:	f94008a6 	ldr	x6, [x5, #16]
/home/zrz0517/study/TEE/RT-TEE/optee_os/lib/libutils/isoc/bget.c:1091
    6668:	f9000067 	str	x7, [x3]
/home/zrz0517/study/TEE/RT-TEE/optee_os/lib/libutils/isoc/bget.c:1092
    666c:	f94018a3 	ldr	x3, [x5, #48]
    6670:	f9000083 	str	x3, [x4]
/home/zrz0517/study/TEE/RT-TEE/optee_os/lib/libutils/isoc/bget.c:1093
    6674:	f94010a3 	ldr	x3, [x5, #32]
    6678:	f9000003 	str	x3, [x0]
/home/zrz0517/study/TEE/RT-TEE/optee_os/lib/libutils/isoc/bget.c:1094
    667c:	f900003f 	str	xzr, [x1]
/home/zrz0517/study/TEE/RT-TEE/optee_os/lib/libutils/isoc/bget.c:1095
    6680:	92800000 	mov	x0, #0xffffffffffffffff    	// #-1
    6684:	f9000040 	str	x0, [x2]
/home/zrz0517/study/TEE/RT-TEE/optee_os/lib/libutils/isoc/bget.c:1096
    6688:	eb0600bf 	cmp	x5, x6
    668c:	54000041 	b.ne	6694 <bstats+0x34>  // b.any
    6690:	d65f03c0 	ret
/home/zrz0517/study/TEE/RT-TEE/optee_os/lib/libutils/isoc/bget.c:1097
    6694:	f94004c3 	ldr	x3, [x6, #8]
    6698:	f100007f 	cmp	x3, #0x0
    669c:	540001ac 	b.gt	66d0 <bstats+0x70>
/home/zrz0517/study/TEE/RT-TEE/optee_os/lib/libutils/isoc/bget.c:1097 (discriminator 1)
    66a0:	90000023 	adrp	x3, a000 <__func__.4888+0x13>
    66a4:	91159063 	add	x3, x3, #0x564
    66a8:	9100b863 	add	x3, x3, #0x2e
    66ac:	90000021 	adrp	x1, a000 <__func__.4888+0x13>
    66b0:	90000020 	adrp	x0, a000 <__func__.4888+0x13>
    66b4:	911b0021 	add	x1, x1, #0x6c0
    66b8:	9122c000 	add	x0, x0, #0x8b0
/home/zrz0517/study/TEE/RT-TEE/optee_os/lib/libutils/isoc/bget.c:1088 (discriminator 1)
    66bc:	a9bf7bfd 	stp	x29, x30, [sp, #-16]!
/home/zrz0517/study/TEE/RT-TEE/optee_os/lib/libutils/isoc/bget.c:1097 (discriminator 1)
    66c0:	52808922 	mov	w2, #0x449                 	// #1097
/home/zrz0517/study/TEE/RT-TEE/optee_os/lib/libutils/isoc/bget.c:1088 (discriminator 1)
    66c4:	910003fd 	mov	x29, sp
/home/zrz0517/study/TEE/RT-TEE/optee_os/lib/libutils/isoc/bget.c:1097 (discriminator 1)
    66c8:	940006dd 	bl	823c <_assert_log>
    66cc:	940006ed 	bl	8280 <_assert_break>
/home/zrz0517/study/TEE/RT-TEE/optee_os/lib/libutils/isoc/bget.c:1098
    66d0:	f9400020 	ldr	x0, [x1]
    66d4:	8b030000 	add	x0, x0, x3
    66d8:	f9000020 	str	x0, [x1]
/home/zrz0517/study/TEE/RT-TEE/optee_os/lib/libutils/isoc/bget.c:1099
    66dc:	f9400043 	ldr	x3, [x2]
    66e0:	f94004c0 	ldr	x0, [x6, #8]
    66e4:	eb03001f 	cmp	x0, x3
    66e8:	5400004d 	b.le	66f0 <bstats+0x90>
/home/zrz0517/study/TEE/RT-TEE/optee_os/lib/libutils/isoc/bget.c:1100
    66ec:	f9000040 	str	x0, [x2]
/home/zrz0517/study/TEE/RT-TEE/optee_os/lib/libutils/isoc/bget.c:1102
    66f0:	f94008c6 	ldr	x6, [x6, #16]
    66f4:	17ffffe5 	b	6688 <bstats+0x28>

00000000000066f8 <malloc_reset_stats>:
malloc_reset_stats():
/home/zrz0517/study/TEE/RT-TEE/optee_os/lib/libutils/isoc/bget_malloc.c:183
    66f8:	d0000020 	adrp	x0, c000 <ta_props>
    66fc:	91062000 	add	x0, x0, #0x188
    6700:	b900241f 	str	wzr, [x0, #36]
/home/zrz0517/study/TEE/RT-TEE/optee_os/lib/libutils/isoc/bget_malloc.c:185
    6704:	2905fc1f 	stp	wzr, wzr, [x0, #44]
/home/zrz0517/study/TEE/RT-TEE/optee_os/lib/libutils/isoc/bget_malloc.c:186
    6708:	b900341f 	str	wzr, [x0, #52]
/home/zrz0517/study/TEE/RT-TEE/optee_os/lib/libutils/isoc/bget_malloc.c:188
    670c:	d65f03c0 	ret

0000000000006710 <malloc_get_stats>:
malloc_get_stats():
/home/zrz0517/study/TEE/RT-TEE/optee_os/lib/libutils/isoc/bget_malloc.c:191
    6710:	a9bf7bfd 	stp	x29, x30, [sp, #-16]!
/home/zrz0517/study/TEE/RT-TEE/optee_os/lib/libutils/isoc/bget_malloc.c:194
    6714:	d2800702 	mov	x2, #0x38                  	// #56
    6718:	d0000021 	adrp	x1, c000 <ta_props>
/home/zrz0517/study/TEE/RT-TEE/optee_os/lib/libutils/isoc/bget_malloc.c:191
    671c:	910003fd 	mov	x29, sp
/home/zrz0517/study/TEE/RT-TEE/optee_os/lib/libutils/isoc/bget_malloc.c:194
    6720:	91062021 	add	x1, x1, #0x188
    6724:	9400024b 	bl	7050 <memcpy>
    6728:	aa0003e3 	mov	x3, x0
/home/zrz0517/study/TEE/RT-TEE/optee_os/lib/libutils/isoc/bget_malloc.c:195
    672c:	d0000020 	adrp	x0, c000 <ta_props>
    6730:	f9408800 	ldr	x0, [x0, #272]
    6734:	b9002060 	str	w0, [x3, #32]
/home/zrz0517/study/TEE/RT-TEE/optee_os/lib/libutils/isoc/bget_malloc.c:197
    6738:	a8c17bfd 	ldp	x29, x30, [sp], #16
    673c:	d65f03c0 	ret

0000000000006740 <malloc>:
malloc():
/home/zrz0517/study/TEE/RT-TEE/optee_os/lib/libutils/isoc/bget_malloc.c:817
    6740:	a9be7bfd 	stp	x29, x30, [sp, #-32]!
    6744:	910003fd 	mov	x29, sp
    6748:	a90153f3 	stp	x19, x20, [sp, #16]
    674c:	aa0003f3 	mov	x19, x0
raw_malloc():
/home/zrz0517/study/TEE/RT-TEE/optee_os/lib/libutils/isoc/bget_malloc.c:304
    6750:	d0000034 	adrp	x20, c000 <ta_props>
    6754:	b7f801e0 	tbnz	x0, #63, 6790 <malloc+0x50>
/home/zrz0517/study/TEE/RT-TEE/optee_os/lib/libutils/isoc/bget_malloc.c:311
    6758:	f100001f 	cmp	x0, #0x0
/home/zrz0517/study/TEE/RT-TEE/optee_os/lib/libutils/isoc/bget_malloc.c:313
    675c:	9103c281 	add	x1, x20, #0xf0
    6760:	9a9f1400 	csinc	x0, x0, xzr, ne  // ne = any
    6764:	97fffe1f 	bl	5fe0 <bget>
    6768:	aa0003e6 	mov	x6, x0
/home/zrz0517/study/TEE/RT-TEE/optee_os/lib/libutils/isoc/bget_malloc.c:315
    676c:	9103c294 	add	x20, x20, #0xf0
    6770:	aa1303e1 	mov	x1, x19
    6774:	aa0603e0 	mov	x0, x6
    6778:	f9401282 	ldr	x2, [x20, #32]
    677c:	97fffdc5 	bl	5e90 <raw_malloc_return_hook.isra.3>
malloc():
/home/zrz0517/study/TEE/RT-TEE/optee_os/lib/libutils/isoc/bget_malloc.c:824
    6780:	aa0603e0 	mov	x0, x6
    6784:	a94153f3 	ldp	x19, x20, [sp, #16]
    6788:	a8c27bfd 	ldp	x29, x30, [sp], #32
    678c:	d65f03c0 	ret
raw_malloc():
/home/zrz0517/study/TEE/RT-TEE/optee_os/lib/libutils/isoc/bget_malloc.c:291
    6790:	d2800006 	mov	x6, #0x0                   	// #0
    6794:	17fffff6 	b	676c <malloc+0x2c>

0000000000006798 <free>:
raw_free():
/home/zrz0517/study/TEE/RT-TEE/optee_os/lib/libutils/isoc/bget_malloc.c:324
    6798:	b4000080 	cbz	x0, 67a8 <free+0x10>
/home/zrz0517/study/TEE/RT-TEE/optee_os/lib/libutils/isoc/bget_malloc.c:325
    679c:	d0000021 	adrp	x1, c000 <ta_props>
    67a0:	9103c021 	add	x1, x1, #0xf0
    67a4:	17fffea2 	b	622c <brel>
free():
/home/zrz0517/study/TEE/RT-TEE/optee_os/lib/libutils/isoc/bget_malloc.c:832
    67a8:	d65f03c0 	ret

00000000000067ac <calloc>:
calloc():
/home/zrz0517/study/TEE/RT-TEE/optee_os/lib/libutils/isoc/bget_malloc.c:835
    67ac:	a9be7bfd 	stp	x29, x30, [sp, #-32]!
    67b0:	910003fd 	mov	x29, sp
    67b4:	a90153f3 	stp	x19, x20, [sp, #16]
raw_calloc():
/home/zrz0517/study/TEE/RT-TEE/optee_os/lib/libutils/isoc/bget_malloc.c:337
    67b8:	9b017c13 	mul	x19, x0, x1
    67bc:	9bc17c00 	umulh	x0, x0, x1
    67c0:	d0000034 	adrp	x20, c000 <ta_props>
    67c4:	f100001f 	cmp	x0, #0x0
    67c8:	d2800020 	mov	x0, #0x1                   	// #1
    67cc:	9a9f07e1 	cset	x1, ne  // ne = any
    67d0:	f100027f 	cmp	x19, #0x0
    67d4:	9a80a021 	csel	x1, x1, x0, ge  // ge = tcont
    67d8:	b50001c1 	cbnz	x1, 6810 <calloc+0x64>
/home/zrz0517/study/TEE/RT-TEE/optee_os/lib/libutils/isoc/bget_malloc.c:348
    67dc:	9103c281 	add	x1, x20, #0xf0
    67e0:	9a801260 	csel	x0, x19, x0, ne  // ne = any
    67e4:	97fffe6f 	bl	61a0 <bgetz>
    67e8:	aa0003e6 	mov	x6, x0
/home/zrz0517/study/TEE/RT-TEE/optee_os/lib/libutils/isoc/bget_malloc.c:350
    67ec:	9103c294 	add	x20, x20, #0xf0
    67f0:	aa1303e1 	mov	x1, x19
    67f4:	aa0603e0 	mov	x0, x6
    67f8:	f9401282 	ldr	x2, [x20, #32]
    67fc:	97fffda5 	bl	5e90 <raw_malloc_return_hook.isra.3>
calloc():
/home/zrz0517/study/TEE/RT-TEE/optee_os/lib/libutils/isoc/bget_malloc.c:842
    6800:	aa0603e0 	mov	x0, x6
    6804:	a94153f3 	ldp	x19, x20, [sp, #16]
    6808:	a8c27bfd 	ldp	x29, x30, [sp], #32
    680c:	d65f03c0 	ret
raw_calloc():
/home/zrz0517/study/TEE/RT-TEE/optee_os/lib/libutils/isoc/bget_malloc.c:331
    6810:	d2800006 	mov	x6, #0x0                   	// #0
    6814:	17fffff6 	b	67ec <calloc+0x40>

0000000000006818 <realloc>:
realloc():
/home/zrz0517/study/TEE/RT-TEE/optee_os/lib/libutils/isoc/bget_malloc.c:850
    6818:	a9be7bfd 	stp	x29, x30, [sp, #-32]!
    681c:	910003fd 	mov	x29, sp
    6820:	a90153f3 	stp	x19, x20, [sp, #16]
    6824:	aa0103f3 	mov	x19, x1
raw_realloc():
/home/zrz0517/study/TEE/RT-TEE/optee_os/lib/libutils/isoc/bget_malloc.c:362
    6828:	d0000034 	adrp	x20, c000 <ta_props>
    682c:	b7f801e1 	tbnz	x1, #63, 6868 <realloc+0x50>
/home/zrz0517/study/TEE/RT-TEE/optee_os/lib/libutils/isoc/bget_malloc.c:371
    6830:	f100003f 	cmp	x1, #0x0
/home/zrz0517/study/TEE/RT-TEE/optee_os/lib/libutils/isoc/bget_malloc.c:373
    6834:	9103c282 	add	x2, x20, #0xf0
    6838:	9a9f1421 	csinc	x1, x1, xzr, ne  // ne = any
    683c:	97ffff22 	bl	64c4 <bgetr>
    6840:	aa0003e6 	mov	x6, x0
/home/zrz0517/study/TEE/RT-TEE/optee_os/lib/libutils/isoc/bget_malloc.c:375
    6844:	9103c294 	add	x20, x20, #0xf0
    6848:	aa1303e1 	mov	x1, x19
    684c:	aa0603e0 	mov	x0, x6
    6850:	f9401282 	ldr	x2, [x20, #32]
    6854:	97fffd8f 	bl	5e90 <raw_malloc_return_hook.isra.3>
realloc():
/home/zrz0517/study/TEE/RT-TEE/optee_os/lib/libutils/isoc/bget_malloc.c:857
    6858:	aa0603e0 	mov	x0, x6
    685c:	a94153f3 	ldp	x19, x20, [sp, #16]
    6860:	a8c27bfd 	ldp	x29, x30, [sp], #32
    6864:	d65f03c0 	ret
raw_realloc():
/home/zrz0517/study/TEE/RT-TEE/optee_os/lib/libutils/isoc/bget_malloc.c:358
    6868:	d2800006 	mov	x6, #0x0                   	// #0
    686c:	17fffff6 	b	6844 <realloc+0x2c>

0000000000006870 <memalign>:
memalign():
/home/zrz0517/study/TEE/RT-TEE/optee_os/lib/libutils/isoc/bget_malloc.c:860
    6870:	a9bc7bfd 	stp	x29, x30, [sp, #-64]!
    6874:	910003fd 	mov	x29, sp
    6878:	a90153f3 	stp	x19, x20, [sp, #16]
    687c:	a9025bf5 	stp	x21, x22, [sp, #32]
    6880:	f9001bf7 	str	x23, [sp, #48]
raw_memalign():
/home/zrz0517/study/TEE/RT-TEE/optee_os/lib/libutils/isoc/bget_malloc.c:535
    6884:	b4001d20 	cbz	x0, 6c28 <memalign+0x3b8>
    6888:	cb0003f3 	neg	x19, x0
    688c:	ea33001f 	bics	xzr, x0, x19
    6890:	54001cc1 	b.ne	6c28 <memalign+0x3b8>  // b.any
    6894:	aa0103f4 	mov	x20, x1
    6898:	aa0003f5 	mov	x21, x0
/home/zrz0517/study/TEE/RT-TEE/optee_os/lib/libutils/isoc/bget_malloc.c:542
    689c:	f100401f 	cmp	x0, #0x10
    68a0:	540002a8 	b.hi	68f4 <memalign+0x84>  // b.pmore
raw_malloc():
/home/zrz0517/study/TEE/RT-TEE/optee_os/lib/libutils/isoc/bget_malloc.c:304
    68a4:	d0000035 	adrp	x21, c000 <ta_props>
    68a8:	b7f80221 	tbnz	x1, #63, 68ec <memalign+0x7c>
/home/zrz0517/study/TEE/RT-TEE/optee_os/lib/libutils/isoc/bget_malloc.c:311
    68ac:	f100003f 	cmp	x1, #0x0
/home/zrz0517/study/TEE/RT-TEE/optee_os/lib/libutils/isoc/bget_malloc.c:313
    68b0:	9103c2a1 	add	x1, x21, #0xf0
    68b4:	9a9f1680 	csinc	x0, x20, xzr, ne  // ne = any
    68b8:	97fffdca 	bl	5fe0 <bget>
    68bc:	aa0003f3 	mov	x19, x0
/home/zrz0517/study/TEE/RT-TEE/optee_os/lib/libutils/isoc/bget_malloc.c:315
    68c0:	9103c2b5 	add	x21, x21, #0xf0
    68c4:	f94012a2 	ldr	x2, [x21, #32]
raw_memalign():
/home/zrz0517/study/TEE/RT-TEE/optee_os/lib/libutils/isoc/bget_malloc.c:589
    68c8:	aa1403e1 	mov	x1, x20
    68cc:	aa1303e0 	mov	x0, x19
    68d0:	97fffd70 	bl	5e90 <raw_malloc_return_hook.isra.3>
memalign():
/home/zrz0517/study/TEE/RT-TEE/optee_os/lib/libutils/isoc/bget_malloc.c:867
    68d4:	aa1303e0 	mov	x0, x19
    68d8:	a94153f3 	ldp	x19, x20, [sp, #16]
    68dc:	a9425bf5 	ldp	x21, x22, [sp, #32]
    68e0:	f9401bf7 	ldr	x23, [sp, #48]
    68e4:	a8c47bfd 	ldp	x29, x30, [sp], #64
    68e8:	d65f03c0 	ret
raw_malloc():
/home/zrz0517/study/TEE/RT-TEE/optee_os/lib/libutils/isoc/bget_malloc.c:291
    68ec:	d2800013 	mov	x19, #0x0                   	// #0
    68f0:	17fffff4 	b	68c0 <memalign+0x50>
raw_memalign():
/home/zrz0517/study/TEE/RT-TEE/optee_os/lib/libutils/isoc/bget_malloc.c:545
    68f4:	91008037 	add	x23, x1, #0x20
    68f8:	8b0002f7 	add	x23, x23, x0
/home/zrz0517/study/TEE/RT-TEE/optee_os/lib/libutils/isoc/bget_malloc.c:549
    68fc:	eb17001f 	cmp	x0, x23
    6900:	fa579022 	ccmp	x1, x23, #0x2, ls  // ls = plast
    6904:	54001928 	b.hi	6c28 <memalign+0x3b8>  // b.pmore
/home/zrz0517/study/TEE/RT-TEE/optee_os/lib/libutils/isoc/bget_malloc.c:552
    6908:	d0000036 	adrp	x22, c000 <ta_props>
    690c:	9103c2c1 	add	x1, x22, #0xf0
    6910:	aa1703e0 	mov	x0, x23
    6914:	97fffdb3 	bl	5fe0 <bget>
    6918:	aa0003e1 	mov	x1, x0
/home/zrz0517/study/TEE/RT-TEE/optee_os/lib/libutils/isoc/bget_malloc.c:553
    691c:	b40017e0 	cbz	x0, 6c18 <memalign+0x3a8>
/home/zrz0517/study/TEE/RT-TEE/optee_os/lib/libutils/isoc/bget_malloc.c:556
    6920:	d10006a0 	sub	x0, x21, #0x1
    6924:	ea00003f 	tst	x1, x0
    6928:	54000a80 	b.eq	6a78 <memalign+0x208>  // b.none
/home/zrz0517/study/TEE/RT-TEE/optee_os/lib/libutils/isoc/bget_malloc.c:569
    692c:	8b0102a0 	add	x0, x21, x1
/home/zrz0517/study/TEE/RT-TEE/optee_os/lib/libutils/isoc/bget_malloc.c:570
    6930:	8a000273 	and	x19, x19, x0
/home/zrz0517/study/TEE/RT-TEE/optee_os/lib/libutils/isoc/bget_malloc.c:572
    6934:	cb010260 	sub	x0, x19, x1
    6938:	f1007c1f 	cmp	x0, #0x1f
    693c:	54000048 	b.hi	6944 <memalign+0xd4>  // b.pmore
/home/zrz0517/study/TEE/RT-TEE/optee_os/lib/libutils/isoc/bget_malloc.c:573
    6940:	8b150273 	add	x19, x19, x21
/home/zrz0517/study/TEE/RT-TEE/optee_os/lib/libutils/isoc/bget_malloc.c:574
    6944:	8b130280 	add	x0, x20, x19
    6948:	8b170037 	add	x23, x1, x23
    694c:	eb17001f 	cmp	x0, x23
    6950:	54000169 	b.ls	697c <memalign+0x10c>  // b.plast
    6954:	90000023 	adrp	x3, a000 <__func__.4888+0x13>
    6958:	91159063 	add	x3, x3, #0x564
    695c:	90000021 	adrp	x1, a000 <__func__.4888+0x13>
    6960:	90000020 	adrp	x0, a000 <__func__.4888+0x13>
    6964:	9100d463 	add	x3, x3, #0x35
    6968:	9117b821 	add	x1, x1, #0x5ee
    696c:	91230000 	add	x0, x0, #0x8c0
    6970:	528047c2 	mov	w2, #0x23e                 	// #574
brel_before():
/home/zrz0517/study/TEE/RT-TEE/optee_os/lib/libutils/isoc/bget_malloc.c:411
    6974:	94000632 	bl	823c <_assert_log>
    6978:	94000642 	bl	8280 <_assert_break>
    697c:	eb13003f 	cmp	x1, x19
    6980:	54000143 	b.cc	69a8 <memalign+0x138>  // b.lo, b.ul, b.last
    6984:	90000023 	adrp	x3, a000 <__func__.4888+0x13>
    6988:	91159063 	add	x3, x3, #0x564
    698c:	90000021 	adrp	x1, a000 <__func__.4888+0x13>
    6990:	90000020 	adrp	x0, a000 <__func__.4888+0x13>
    6994:	91010863 	add	x3, x3, #0x42
    6998:	52803362 	mov	w2, #0x19b                 	// #411
    699c:	9117b821 	add	x1, x1, #0x5ee
    69a0:	9123b000 	add	x0, x0, #0x8ec
    69a4:	17fffff4 	b	6974 <memalign+0x104>
/home/zrz0517/study/TEE/RT-TEE/optee_os/lib/libutils/isoc/bget_malloc.c:413
    69a8:	cb010275 	sub	x21, x19, x1
/home/zrz0517/study/TEE/RT-TEE/optee_os/lib/libutils/isoc/bget_malloc.c:414
    69ac:	f1007ebf 	cmp	x21, #0x1f
    69b0:	54000148 	b.hi	69d8 <memalign+0x168>  // b.pmore
    69b4:	90000023 	adrp	x3, a000 <__func__.4888+0x13>
    69b8:	91159063 	add	x3, x3, #0x564
    69bc:	90000021 	adrp	x1, a000 <__func__.4888+0x13>
    69c0:	90000020 	adrp	x0, a000 <__func__.4888+0x13>
    69c4:	91010863 	add	x3, x3, #0x42
    69c8:	528033c2 	mov	w2, #0x19e                 	// #414
    69cc:	9117b821 	add	x1, x1, #0x5ee
    69d0:	9123fc00 	add	x0, x0, #0x8ff
    69d4:	17ffffe8 	b	6974 <memalign+0x104>
/home/zrz0517/study/TEE/RT-TEE/optee_os/lib/libutils/isoc/bget_malloc.c:417
    69d8:	d1004020 	sub	x0, x1, #0x10
/home/zrz0517/study/TEE/RT-TEE/optee_os/lib/libutils/isoc/bget_malloc.c:418
    69dc:	f85f8022 	ldur	x2, [x1, #-8]
/home/zrz0517/study/TEE/RT-TEE/optee_os/lib/libutils/isoc/bget_malloc.c:423
    69e0:	f85f0021 	ldur	x1, [x1, #-16]
    69e4:	8b0202a2 	add	x2, x21, x2
    69e8:	b40003e1 	cbz	x1, 6a64 <memalign+0x1f4>
/home/zrz0517/study/TEE/RT-TEE/optee_os/lib/libutils/isoc/bget_malloc.c:428
    69ec:	cb010000 	sub	x0, x0, x1
/home/zrz0517/study/TEE/RT-TEE/optee_os/lib/libutils/isoc/bget_malloc.c:429
    69f0:	f9400403 	ldr	x3, [x0, #8]
    69f4:	eb03003f 	cmp	x1, x3
    69f8:	54000140 	b.eq	6a20 <memalign+0x1b0>  // b.none
    69fc:	90000023 	adrp	x3, a000 <__func__.4888+0x13>
    6a00:	91159063 	add	x3, x3, #0x564
    6a04:	90000021 	adrp	x1, a000 <__func__.4888+0x13>
    6a08:	90000020 	adrp	x0, a000 <__func__.4888+0x13>
    6a0c:	91010863 	add	x3, x3, #0x42
    6a10:	528035a2 	mov	w2, #0x1ad                 	// #429
    6a14:	9117b821 	add	x1, x1, #0x5ee
    6a18:	91249800 	add	x0, x0, #0x926
    6a1c:	17ffffd6 	b	6974 <memalign+0x104>
/home/zrz0517/study/TEE/RT-TEE/optee_os/lib/libutils/isoc/bget_malloc.c:430
    6a20:	8b0102a1 	add	x1, x21, x1
    6a24:	f9000401 	str	x1, [x0, #8]
/home/zrz0517/study/TEE/RT-TEE/optee_os/lib/libutils/isoc/bget_malloc.c:435
    6a28:	a93f0a61 	stp	x1, x2, [x19, #-16]
/home/zrz0517/study/TEE/RT-TEE/optee_os/lib/libutils/isoc/bget_malloc.c:449
    6a2c:	9103c2c1 	add	x1, x22, #0xf0
    6a30:	f9401020 	ldr	x0, [x1, #32]
    6a34:	cb150015 	sub	x21, x0, x21
    6a38:	f9001035 	str	x21, [x1, #32]
/home/zrz0517/study/TEE/RT-TEE/optee_os/lib/libutils/isoc/bget_malloc.c:450
    6a3c:	b6f80215 	tbz	x21, #63, 6a7c <memalign+0x20c>
    6a40:	90000023 	adrp	x3, a000 <__func__.4888+0x13>
    6a44:	91159063 	add	x3, x3, #0x564
    6a48:	91010863 	add	x3, x3, #0x42
    6a4c:	52803842 	mov	w2, #0x1c2                 	// #450
brel_after():
/home/zrz0517/study/TEE/RT-TEE/optee_os/lib/libutils/isoc/bget_malloc.c:522
    6a50:	90000021 	adrp	x1, a000 <__func__.4888+0x13>
    6a54:	90000020 	adrp	x0, a000 <__func__.4888+0x13>
    6a58:	9117b821 	add	x1, x1, #0x5ee
    6a5c:	911e7400 	add	x0, x0, #0x79d
    6a60:	17ffffc5 	b	6974 <memalign+0x104>
brel_before():
/home/zrz0517/study/TEE/RT-TEE/optee_os/lib/libutils/isoc/bget_malloc.c:443
    6a64:	f81f8262 	stur	x2, [x19, #-8]
/home/zrz0517/study/TEE/RT-TEE/optee_os/lib/libutils/isoc/bget_malloc.c:445
    6a68:	aa1503e1 	mov	x1, x21
    6a6c:	d1004262 	sub	x2, x19, #0x10
    6a70:	97fffd18 	bl	5ed0 <create_free_block.constprop.11>
    6a74:	17ffffee 	b	6a2c <memalign+0x1bc>
raw_memalign():
/home/zrz0517/study/TEE/RT-TEE/optee_os/lib/libutils/isoc/bget_malloc.c:556
    6a78:	aa0103f3 	mov	x19, x1
brel_after():
/home/zrz0517/study/TEE/RT-TEE/optee_os/lib/libutils/isoc/bget_malloc.c:466
    6a7c:	f100429f 	cmp	x20, #0x10
    6a80:	d2800200 	mov	x0, #0x10                  	// #16
    6a84:	9a802280 	csel	x0, x20, x0, cs  // cs = hs, nlast
/home/zrz0517/study/TEE/RT-TEE/optee_os/lib/libutils/isoc/bget_malloc.c:470
    6a88:	d1004264 	sub	x4, x19, #0x10
    6a8c:	f85f8262 	ldur	x2, [x19, #-8]
/home/zrz0517/study/TEE/RT-TEE/optee_os/lib/libutils/isoc/bget_malloc.c:466
    6a90:	91003c00 	add	x0, x0, #0xf
    6a94:	927cec00 	and	x0, x0, #0xfffffffffffffff0
/home/zrz0517/study/TEE/RT-TEE/optee_os/lib/libutils/isoc/bget_malloc.c:469
    6a98:	91004001 	add	x1, x0, #0x10
/home/zrz0517/study/TEE/RT-TEE/optee_os/lib/libutils/isoc/bget_malloc.c:470
    6a9c:	cb0203f5 	neg	x21, x2
    6aa0:	eb15003f 	cmp	x1, x21
    6aa4:	5400014d 	b.le	6acc <memalign+0x25c>
    6aa8:	90000023 	adrp	x3, a000 <__func__.4888+0x13>
    6aac:	91159063 	add	x3, x3, #0x564
    6ab0:	90000021 	adrp	x1, a000 <__func__.4888+0x13>
    6ab4:	90000020 	adrp	x0, a000 <__func__.4888+0x13>
    6ab8:	91013863 	add	x3, x3, #0x4e
    6abc:	52803ac2 	mov	w2, #0x1d6                 	// #470
    6ac0:	9117b821 	add	x1, x1, #0x5ee
    6ac4:	91251c00 	add	x0, x0, #0x947
    6ac8:	17ffffab 	b	6974 <memalign+0x104>
/home/zrz0517/study/TEE/RT-TEE/optee_os/lib/libutils/isoc/bget_malloc.c:476
    6acc:	cb0102b5 	sub	x21, x21, x1
/home/zrz0517/study/TEE/RT-TEE/optee_os/lib/libutils/isoc/bget_malloc.c:477
    6ad0:	f1007ebf 	cmp	x21, #0x1f
    6ad4:	54000a4d 	b.le	6c1c <memalign+0x3ac>
/home/zrz0517/study/TEE/RT-TEE/optee_os/lib/libutils/isoc/bget_malloc.c:480
    6ad8:	928001e3 	mov	x3, #0xfffffffffffffff0    	// #-16
    6adc:	cb020063 	sub	x3, x3, x2
    6ae0:	8b030262 	add	x2, x19, x3
/home/zrz0517/study/TEE/RT-TEE/optee_os/lib/libutils/isoc/bget_malloc.c:484
    6ae4:	cb0103e1 	neg	x1, x1
    6ae8:	f9000481 	str	x1, [x4, #8]
/home/zrz0517/study/TEE/RT-TEE/optee_os/lib/libutils/isoc/bget_malloc.c:485
    6aec:	8b000260 	add	x0, x19, x0
    6af0:	f9400441 	ldr	x1, [x2, #8]
    6af4:	f100003f 	cmp	x1, #0x0
    6af8:	540008ad 	b.le	6c0c <memalign+0x39c>
/home/zrz0517/study/TEE/RT-TEE/optee_os/lib/libutils/isoc/bget_malloc.c:491
    6afc:	f8636a63 	ldr	x3, [x19, x3]
    6b00:	b4000143 	cbz	x3, 6b28 <memalign+0x2b8>
    6b04:	90000023 	adrp	x3, a000 <__func__.4888+0x13>
    6b08:	91159063 	add	x3, x3, #0x564
    6b0c:	90000021 	adrp	x1, a000 <__func__.4888+0x13>
    6b10:	90000020 	adrp	x0, a000 <__func__.4888+0x13>
    6b14:	91013863 	add	x3, x3, #0x4e
    6b18:	52803d62 	mov	w2, #0x1eb                 	// #491
    6b1c:	9117b821 	add	x1, x1, #0x5ee
    6b20:	91257400 	add	x0, x0, #0x95d
    6b24:	17ffff94 	b	6974 <memalign+0x104>
/home/zrz0517/study/TEE/RT-TEE/optee_os/lib/libutils/isoc/bget_malloc.c:492
    6b28:	f8616843 	ldr	x3, [x2, x1]
    6b2c:	eb03003f 	cmp	x1, x3
    6b30:	54000140 	b.eq	6b58 <memalign+0x2e8>  // b.none
    6b34:	90000023 	adrp	x3, a000 <__func__.4888+0x13>
    6b38:	91159063 	add	x3, x3, #0x564
    6b3c:	90000021 	adrp	x1, a000 <__func__.4888+0x13>
    6b40:	90000020 	adrp	x0, a000 <__func__.4888+0x13>
    6b44:	91013863 	add	x3, x3, #0x4e
    6b48:	52803d82 	mov	w2, #0x1ec                 	// #492
    6b4c:	9117b821 	add	x1, x1, #0x5ee
    6b50:	9125cc00 	add	x0, x0, #0x973
    6b54:	17ffff88 	b	6974 <memalign+0x104>
/home/zrz0517/study/TEE/RT-TEE/optee_os/lib/libutils/isoc/bget_malloc.c:496
    6b58:	8b0102a3 	add	x3, x21, x1
    6b5c:	a9000c1f 	stp	xzr, x3, [x0]
/home/zrz0517/study/TEE/RT-TEE/optee_os/lib/libutils/isoc/bget_malloc.c:499
    6b60:	f8616843 	ldr	x3, [x2, x1]
    6b64:	8b150063 	add	x3, x3, x21
    6b68:	f8216843 	str	x3, [x2, x1]
/home/zrz0517/study/TEE/RT-TEE/optee_os/lib/libutils/isoc/bget_malloc.c:505
    6b6c:	f9400c41 	ldr	x1, [x2, #24]
    6b70:	f9400823 	ldr	x3, [x1, #16]
    6b74:	eb03005f 	cmp	x2, x3
    6b78:	54000140 	b.eq	6ba0 <memalign+0x330>  // b.none
    6b7c:	90000023 	adrp	x3, a000 <__func__.4888+0x13>
    6b80:	91159063 	add	x3, x3, #0x564
    6b84:	90000021 	adrp	x1, a000 <__func__.4888+0x13>
    6b88:	90000020 	adrp	x0, a000 <__func__.4888+0x13>
    6b8c:	91013863 	add	x3, x3, #0x4e
    6b90:	52803f22 	mov	w2, #0x1f9                 	// #505
    6b94:	9117b821 	add	x1, x1, #0x5ee
    6b98:	91264800 	add	x0, x0, #0x992
    6b9c:	17ffff76 	b	6974 <memalign+0x104>
/home/zrz0517/study/TEE/RT-TEE/optee_os/lib/libutils/isoc/bget_malloc.c:506
    6ba0:	f9400843 	ldr	x3, [x2, #16]
    6ba4:	f9400c64 	ldr	x4, [x3, #24]
    6ba8:	eb04005f 	cmp	x2, x4
    6bac:	54000140 	b.eq	6bd4 <memalign+0x364>  // b.none
    6bb0:	90000023 	adrp	x3, a000 <__func__.4888+0x13>
    6bb4:	91159063 	add	x3, x3, #0x564
    6bb8:	90000021 	adrp	x1, a000 <__func__.4888+0x13>
    6bbc:	90000020 	adrp	x0, a000 <__func__.4888+0x13>
    6bc0:	91013863 	add	x3, x3, #0x4e
    6bc4:	52803f42 	mov	w2, #0x1fa                 	// #506
    6bc8:	9117b821 	add	x1, x1, #0x5ee
    6bcc:	9126c400 	add	x0, x0, #0x9b1
    6bd0:	17ffff69 	b	6974 <memalign+0x104>
/home/zrz0517/study/TEE/RT-TEE/optee_os/lib/libutils/isoc/bget_malloc.c:509
    6bd4:	a9010403 	stp	x3, x1, [x0, #16]
/home/zrz0517/study/TEE/RT-TEE/optee_os/lib/libutils/isoc/bget_malloc.c:513
    6bd8:	f9000820 	str	x0, [x1, #16]
/home/zrz0517/study/TEE/RT-TEE/optee_os/lib/libutils/isoc/bget_malloc.c:514
    6bdc:	f9400801 	ldr	x1, [x0, #16]
    6be0:	f9000c20 	str	x0, [x1, #24]
/home/zrz0517/study/TEE/RT-TEE/optee_os/lib/libutils/isoc/bget_malloc.c:521
    6be4:	9103c2c1 	add	x1, x22, #0xf0
    6be8:	f9401020 	ldr	x0, [x1, #32]
    6bec:	cb150015 	sub	x21, x0, x21
    6bf0:	f9001035 	str	x21, [x1, #32]
/home/zrz0517/study/TEE/RT-TEE/optee_os/lib/libutils/isoc/bget_malloc.c:522
    6bf4:	b6f80155 	tbz	x21, #63, 6c1c <memalign+0x3ac>
    6bf8:	90000023 	adrp	x3, a000 <__func__.4888+0x13>
    6bfc:	91159063 	add	x3, x3, #0x564
    6c00:	91013863 	add	x3, x3, #0x4e
    6c04:	52804142 	mov	w2, #0x20a                 	// #522
    6c08:	17ffff92 	b	6a50 <memalign+0x1e0>
/home/zrz0517/study/TEE/RT-TEE/optee_os/lib/libutils/isoc/bget_malloc.c:517
    6c0c:	aa1503e1 	mov	x1, x21
    6c10:	97fffcb0 	bl	5ed0 <create_free_block.constprop.11>
    6c14:	17fffff4 	b	6be4 <memalign+0x374>
raw_memalign():
/home/zrz0517/study/TEE/RT-TEE/optee_os/lib/libutils/isoc/bget_malloc.c:552
    6c18:	d2800013 	mov	x19, #0x0                   	// #0
/home/zrz0517/study/TEE/RT-TEE/optee_os/lib/libutils/isoc/bget_malloc.c:589
    6c1c:	9103c2d6 	add	x22, x22, #0xf0
    6c20:	f94012c2 	ldr	x2, [x22, #32]
    6c24:	17ffff29 	b	68c8 <memalign+0x58>
/home/zrz0517/study/TEE/RT-TEE/optee_os/lib/libutils/isoc/bget_malloc.c:536
    6c28:	d2800013 	mov	x19, #0x0                   	// #0
memalign():
/home/zrz0517/study/TEE/RT-TEE/optee_os/lib/libutils/isoc/bget_malloc.c:866
    6c2c:	17ffff2a 	b	68d4 <memalign+0x64>

0000000000006c30 <malloc_add_pool>:
malloc_add_pool():
/home/zrz0517/study/TEE/RT-TEE/optee_os/lib/libutils/isoc/bget_malloc.c:878
    6c30:	a9bb7bfd 	stp	x29, x30, [sp, #-80]!
    6c34:	910003fd 	mov	x29, sp
    6c38:	a90153f3 	stp	x19, x20, [sp, #16]
/home/zrz0517/study/TEE/RT-TEE/optee_os/lib/libutils/isoc/bget_malloc.c:883
    6c3c:	8b010014 	add	x20, x0, x1
/home/zrz0517/study/TEE/RT-TEE/optee_os/lib/libutils/isoc/bget_malloc.c:889
    6c40:	91003c00 	add	x0, x0, #0xf
/home/zrz0517/study/TEE/RT-TEE/optee_os/lib/libutils/isoc/bget_malloc.c:878
    6c44:	a9025bf5 	stp	x21, x22, [sp, #32]
/home/zrz0517/study/TEE/RT-TEE/optee_os/lib/libutils/isoc/bget_malloc.c:890
    6c48:	927cee94 	and	x20, x20, #0xfffffffffffffff0
/home/zrz0517/study/TEE/RT-TEE/optee_os/lib/libutils/isoc/bget_malloc.c:889
    6c4c:	927cec15 	and	x21, x0, #0xfffffffffffffff0
/home/zrz0517/study/TEE/RT-TEE/optee_os/lib/libutils/isoc/bget_malloc.c:878
    6c50:	a90363f7 	stp	x23, x24, [sp, #48]
/home/zrz0517/study/TEE/RT-TEE/optee_os/lib/libutils/isoc/bget_malloc.c:891
    6c54:	eb1402bf 	cmp	x21, x20
/home/zrz0517/study/TEE/RT-TEE/optee_os/lib/libutils/isoc/bget_malloc.c:878
    6c58:	f90023f9 	str	x25, [sp, #64]
/home/zrz0517/study/TEE/RT-TEE/optee_os/lib/libutils/isoc/bget_malloc.c:891
    6c5c:	54000163 	b.cc	6c88 <malloc_add_pool+0x58>  // b.lo, b.ul, b.last
/home/zrz0517/study/TEE/RT-TEE/optee_os/lib/libutils/isoc/bget_malloc.c:891 (discriminator 1)
    6c60:	90000023 	adrp	x3, a000 <__func__.4888+0x13>
    6c64:	91159063 	add	x3, x3, #0x564
    6c68:	90000021 	adrp	x1, a000 <__func__.4888+0x13>
    6c6c:	90000020 	adrp	x0, a000 <__func__.4888+0x13>
    6c70:	91016463 	add	x3, x3, #0x59
    6c74:	9117b821 	add	x1, x1, #0x5ee
    6c78:	91274000 	add	x0, x0, #0x9d0
    6c7c:	52806f62 	mov	w2, #0x37b                 	// #891
/home/zrz0517/study/TEE/RT-TEE/optee_os/lib/libutils/isoc/bget_malloc.c:904 (discriminator 1)
    6c80:	9400056f 	bl	823c <_assert_log>
    6c84:	9400057f 	bl	8280 <_assert_break>
/home/zrz0517/study/TEE/RT-TEE/optee_os/lib/libutils/isoc/bget_malloc.c:893
    6c88:	cb150294 	sub	x20, x20, x21
    6c8c:	f100be9f 	cmp	x20, #0x2f
    6c90:	540005e9 	b.ls	6d4c <malloc_add_pool+0x11c>  // b.plast
/home/zrz0517/study/TEE/RT-TEE/optee_os/lib/libutils/isoc/bget_malloc.c:901
    6c94:	d0000036 	adrp	x22, c000 <ta_props>
    6c98:	9103c2d9 	add	x25, x22, #0xf0
    6c9c:	aa1503e0 	mov	x0, x21
    6ca0:	aa1903e2 	mov	x2, x25
    6ca4:	aa1403e1 	mov	x1, x20
    6ca8:	97fffe39 	bl	658c <bpool>
/home/zrz0517/study/TEE/RT-TEE/optee_os/lib/libutils/isoc/bget_malloc.c:902
    6cac:	d0000020 	adrp	x0, c000 <ta_props>
    6cb0:	91062003 	add	x3, x0, #0x188
    6cb4:	aa0003f3 	mov	x19, x0
    6cb8:	f9401c77 	ldr	x23, [x3, #56]
    6cbc:	910006f7 	add	x23, x23, #0x1
/home/zrz0517/study/TEE/RT-TEE/optee_os/lib/libutils/isoc/bget_malloc.c:903
    6cc0:	d37ceef8 	lsl	x24, x23, #4
raw_realloc():
/home/zrz0517/study/TEE/RT-TEE/optee_os/lib/libutils/isoc/bget_malloc.c:362
    6cc4:	b7f802d8 	tbnz	x24, #63, 6d1c <malloc_add_pool+0xec>
/home/zrz0517/study/TEE/RT-TEE/optee_os/lib/libutils/isoc/bget_malloc.c:373
    6cc8:	f9402060 	ldr	x0, [x3, #64]
/home/zrz0517/study/TEE/RT-TEE/optee_os/lib/libutils/isoc/bget_malloc.c:371
    6ccc:	f100031f 	cmp	x24, #0x0
/home/zrz0517/study/TEE/RT-TEE/optee_os/lib/libutils/isoc/bget_malloc.c:373
    6cd0:	aa1903e2 	mov	x2, x25
    6cd4:	9a9f1701 	csinc	x1, x24, xzr, ne  // ne = any
    6cd8:	97fffdfb 	bl	64c4 <bgetr>
    6cdc:	aa0003e6 	mov	x6, x0
/home/zrz0517/study/TEE/RT-TEE/optee_os/lib/libutils/isoc/bget_malloc.c:375
    6ce0:	9103c2d6 	add	x22, x22, #0xf0
    6ce4:	aa1803e1 	mov	x1, x24
    6ce8:	aa0603e0 	mov	x0, x6
    6cec:	f94012c2 	ldr	x2, [x22, #32]
    6cf0:	97fffc68 	bl	5e90 <raw_malloc_return_hook.isra.3>
malloc_add_pool():
/home/zrz0517/study/TEE/RT-TEE/optee_os/lib/libutils/isoc/bget_malloc.c:904
    6cf4:	b5000186 	cbnz	x6, 6d24 <malloc_add_pool+0xf4>
/home/zrz0517/study/TEE/RT-TEE/optee_os/lib/libutils/isoc/bget_malloc.c:904 (discriminator 1)
    6cf8:	90000023 	adrp	x3, a000 <__func__.4888+0x13>
    6cfc:	91159063 	add	x3, x3, #0x564
    6d00:	90000021 	adrp	x1, a000 <__func__.4888+0x13>
    6d04:	90000020 	adrp	x0, a000 <__func__.4888+0x13>
    6d08:	91016463 	add	x3, x3, #0x59
    6d0c:	52807102 	mov	w2, #0x388                 	// #904
    6d10:	9117b821 	add	x1, x1, #0x5ee
    6d14:	91277000 	add	x0, x0, #0x9dc
    6d18:	17ffffda 	b	6c80 <malloc_add_pool+0x50>
raw_realloc():
/home/zrz0517/study/TEE/RT-TEE/optee_os/lib/libutils/isoc/bget_malloc.c:358
    6d1c:	d2800006 	mov	x6, #0x0                   	// #0
    6d20:	17fffff0 	b	6ce0 <malloc_add_pool+0xb0>
malloc_add_pool():
/home/zrz0517/study/TEE/RT-TEE/optee_os/lib/libutils/isoc/bget_malloc.c:905
    6d24:	91062260 	add	x0, x19, #0x188
/home/zrz0517/study/TEE/RT-TEE/optee_os/lib/libutils/isoc/bget_malloc.c:906
    6d28:	f9401c01 	ldr	x1, [x0, #56]
/home/zrz0517/study/TEE/RT-TEE/optee_os/lib/libutils/isoc/bget_malloc.c:905
    6d2c:	a9039817 	stp	x23, x6, [x0, #56]
/home/zrz0517/study/TEE/RT-TEE/optee_os/lib/libutils/isoc/bget_malloc.c:906
    6d30:	d37cec21 	lsl	x1, x1, #4
    6d34:	8b0100c2 	add	x2, x6, x1
    6d38:	f82168d5 	str	x21, [x6, x1]
/home/zrz0517/study/TEE/RT-TEE/optee_os/lib/libutils/isoc/bget_malloc.c:909
    6d3c:	b9402801 	ldr	w1, [x0, #40]
/home/zrz0517/study/TEE/RT-TEE/optee_os/lib/libutils/isoc/bget_malloc.c:907
    6d40:	f9000454 	str	x20, [x2, #8]
/home/zrz0517/study/TEE/RT-TEE/optee_os/lib/libutils/isoc/bget_malloc.c:909
    6d44:	0b140034 	add	w20, w1, w20
    6d48:	b9002814 	str	w20, [x0, #40]
/home/zrz0517/study/TEE/RT-TEE/optee_os/lib/libutils/isoc/bget_malloc.c:913
    6d4c:	a94153f3 	ldp	x19, x20, [sp, #16]
    6d50:	a9425bf5 	ldp	x21, x22, [sp, #32]
    6d54:	a94363f7 	ldp	x23, x24, [sp, #48]
    6d58:	f94023f9 	ldr	x25, [sp, #64]
    6d5c:	a8c57bfd 	ldp	x29, x30, [sp], #80
    6d60:	d65f03c0 	ret

0000000000006d64 <malloc_buffer_is_within_alloced>:
malloc_buffer_is_within_alloced():
/home/zrz0517/study/TEE/RT-TEE/optee_os/lib/libutils/isoc/bget_malloc.c:920
    6d64:	8b010001 	add	x1, x0, x1
/home/zrz0517/study/TEE/RT-TEE/optee_os/lib/libutils/isoc/bget_malloc.c:927
    6d68:	eb01001f 	cmp	x0, x1
    6d6c:	54000b88 	b.hi	6edc <malloc_buffer_is_within_alloced+0x178>  // b.pmore
    6d70:	aa0003e4 	mov	x4, x0
bpool_foreach_iterator_init():
/home/zrz0517/study/TEE/RT-TEE/optee_os/lib/libutils/isoc/bget_malloc.c:230
    6d74:	d0000020 	adrp	x0, c000 <ta_props>
    6d78:	91062000 	add	x0, x0, #0x188
/home/zrz0517/study/TEE/RT-TEE/optee_os/lib/libutils/isoc/bget_malloc.c:229
    6d7c:	d2800005 	mov	x5, #0x0                   	// #0
bpool_foreach_pool():
/home/zrz0517/study/TEE/RT-TEE/optee_os/lib/libutils/isoc/bget_malloc.c:239
    6d80:	d2f0000a 	mov	x10, #0x8000000000000000    	// #-9223372036854775808
    6d84:	928001eb 	mov	x11, #0xfffffffffffffff0    	// #-16
bpool_foreach_iterator_init():
/home/zrz0517/study/TEE/RT-TEE/optee_os/lib/libutils/isoc/bget_malloc.c:230
    6d88:	a9439809 	ldp	x9, x6, [x0, #56]
    6d8c:	f94000c3 	ldr	x3, [x6]
/home/zrz0517/study/TEE/RT-TEE/optee_os/lib/libutils/isoc/bget_malloc.c:229
    6d90:	aa0303e0 	mov	x0, x3
bpool_foreach_pool():
/home/zrz0517/study/TEE/RT-TEE/optee_os/lib/libutils/isoc/bget_malloc.c:237
    6d94:	f9400462 	ldr	x2, [x3, #8]
/home/zrz0517/study/TEE/RT-TEE/optee_os/lib/libutils/isoc/bget_malloc.c:239
    6d98:	eb0a005f 	cmp	x2, x10
    6d9c:	540009a0 	b.eq	6ed0 <malloc_buffer_is_within_alloced+0x16c>  // b.none
malloc_buffer_is_within_alloced():
/home/zrz0517/study/TEE/RT-TEE/optee_os/lib/libutils/isoc/bget_malloc.c:916
    6da0:	a9bf7bfd 	stp	x29, x30, [sp, #-16]!
    6da4:	910003fd 	mov	x29, sp
    6da8:	1400000d 	b	6ddc <malloc_buffer_is_within_alloced+0x78>
bpool_foreach_pool():
/home/zrz0517/study/TEE/RT-TEE/optee_os/lib/libutils/isoc/bget_malloc.c:256
    6dac:	91004000 	add	x0, x0, #0x10
malloc_buffer_is_within_alloced():
/home/zrz0517/study/TEE/RT-TEE/optee_os/lib/libutils/isoc/bget_malloc.c:936
    6db0:	8b020002 	add	x2, x0, x2
/home/zrz0517/study/TEE/RT-TEE/optee_os/lib/libutils/isoc/bget_malloc.c:938
    6db4:	eb02003f 	cmp	x1, x2
    6db8:	1a9f87e2 	cset	w2, ls  // ls = plast
    6dbc:	eb00009f 	cmp	x4, x0
    6dc0:	1a9f37e0 	cset	w0, cs  // cs = hs, nlast
    6dc4:	6a000040 	ands	w0, w2, w0
    6dc8:	540007a1 	b.ne	6ebc <malloc_buffer_is_within_alloced+0x158>  // b.any
bpool_foreach_pool():
/home/zrz0517/study/TEE/RT-TEE/optee_os/lib/libutils/isoc/bget_malloc.c:237
    6dcc:	f9400462 	ldr	x2, [x3, #8]
bpool_foreach_iterator_init():
/home/zrz0517/study/TEE/RT-TEE/optee_os/lib/libutils/isoc/bget_malloc.c:229
    6dd0:	aa0303e0 	mov	x0, x3
bpool_foreach_pool():
/home/zrz0517/study/TEE/RT-TEE/optee_os/lib/libutils/isoc/bget_malloc.c:239
    6dd4:	eb0a005f 	cmp	x2, x10
    6dd8:	540006a0 	b.eq	6eac <malloc_buffer_is_within_alloced+0x148>  // b.none
/home/zrz0517/study/TEE/RT-TEE/optee_os/lib/libutils/isoc/bget_malloc.c:242
    6ddc:	b6f80242 	tbz	x2, #63, 6e24 <malloc_buffer_is_within_alloced+0xc0>
/home/zrz0517/study/TEE/RT-TEE/optee_os/lib/libutils/isoc/bget_malloc.c:244
    6de0:	cb0203e8 	neg	x8, x2
/home/zrz0517/study/TEE/RT-TEE/optee_os/lib/libutils/isoc/bget_malloc.c:246
    6de4:	52800007 	mov	w7, #0x0                   	// #0
/home/zrz0517/study/TEE/RT-TEE/optee_os/lib/libutils/isoc/bget_malloc.c:259
    6de8:	8b080063 	add	x3, x3, x8
bpool_foreach():
/home/zrz0517/study/TEE/RT-TEE/optee_os/lib/libutils/isoc/bget_malloc.c:270
    6dec:	35ffff07 	cbnz	w7, 6dcc <malloc_buffer_is_within_alloced+0x68>
bget_buf_size():
/home/zrz0517/study/TEE/RT-TEE/optee_os/lib/libutils/isoc/bget_malloc.c:611
    6df0:	cb020162 	sub	x2, x11, x2
/home/zrz0517/study/TEE/RT-TEE/optee_os/lib/libutils/isoc/bget_malloc.c:612
    6df4:	f100005f 	cmp	x2, #0x0
    6df8:	54fffdac 	b.gt	6dac <malloc_buffer_is_within_alloced+0x48>
    6dfc:	90000023 	adrp	x3, a000 <__func__.4888+0x13>
    6e00:	91159063 	add	x3, x3, #0x564
    6e04:	9101a463 	add	x3, x3, #0x69
    6e08:	90000021 	adrp	x1, a000 <__func__.4888+0x13>
    6e0c:	90000020 	adrp	x0, a000 <__func__.4888+0x13>
    6e10:	9117b821 	add	x1, x1, #0x5ee
    6e14:	9121c400 	add	x0, x0, #0x871
    6e18:	52804c82 	mov	w2, #0x264                 	// #612
    6e1c:	94000508 	bl	823c <_assert_log>
    6e20:	94000518 	bl	8280 <_assert_break>
bpool_foreach_pool():
/home/zrz0517/study/TEE/RT-TEE/optee_os/lib/libutils/isoc/bget_malloc.c:252
    6e24:	f9400c67 	ldr	x7, [x3, #24]
    6e28:	f94008e7 	ldr	x7, [x7, #16]
    6e2c:	eb0300ff 	cmp	x7, x3
    6e30:	54000160 	b.eq	6e5c <malloc_buffer_is_within_alloced+0xf8>  // b.none
    6e34:	90000023 	adrp	x3, a000 <__func__.4888+0x13>
    6e38:	91159063 	add	x3, x3, #0x564
    6e3c:	9101dc63 	add	x3, x3, #0x77
    6e40:	90000021 	adrp	x1, a000 <__func__.4888+0x13>
    6e44:	90000020 	adrp	x0, a000 <__func__.4888+0x13>
    6e48:	9117b821 	add	x1, x1, #0x5ee
    6e4c:	911c4400 	add	x0, x0, #0x711
    6e50:	52801f82 	mov	w2, #0xfc                  	// #252
    6e54:	940004fa 	bl	823c <_assert_log>
    6e58:	9400050a 	bl	8280 <_assert_break>
/home/zrz0517/study/TEE/RT-TEE/optee_os/lib/libutils/isoc/bget_malloc.c:253
    6e5c:	f9400867 	ldr	x7, [x3, #16]
    6e60:	f9400ce7 	ldr	x7, [x7, #24]
    6e64:	eb0300ff 	cmp	x7, x3
    6e68:	54000160 	b.eq	6e94 <malloc_buffer_is_within_alloced+0x130>  // b.none
    6e6c:	90000023 	adrp	x3, a000 <__func__.4888+0x13>
    6e70:	91159063 	add	x3, x3, #0x564
    6e74:	9101dc63 	add	x3, x3, #0x77
    6e78:	90000021 	adrp	x1, a000 <__func__.4888+0x13>
    6e7c:	90000020 	adrp	x0, a000 <__func__.4888+0x13>
    6e80:	9117b821 	add	x1, x1, #0x5ee
    6e84:	911cb000 	add	x0, x0, #0x72c
    6e88:	52801fa2 	mov	w2, #0xfd                  	// #253
    6e8c:	940004ec 	bl	823c <_assert_log>
    6e90:	940004fc 	bl	8280 <_assert_break>
    6e94:	aa0203e8 	mov	x8, x2
/home/zrz0517/study/TEE/RT-TEE/optee_os/lib/libutils/isoc/bget_malloc.c:249
    6e98:	52800027 	mov	w7, #0x1                   	// #1
    6e9c:	17ffffd3 	b	6de8 <malloc_buffer_is_within_alloced+0x84>
bpool_foreach():
/home/zrz0517/study/TEE/RT-TEE/optee_os/lib/libutils/isoc/bget_malloc.c:279
    6ea0:	d37ceca0 	lsl	x0, x5, #4
    6ea4:	f86068c3 	ldr	x3, [x6, x0]
    6ea8:	17ffffc9 	b	6dcc <malloc_buffer_is_within_alloced+0x68>
/home/zrz0517/study/TEE/RT-TEE/optee_os/lib/libutils/isoc/bget_malloc.c:275
    6eac:	910004a5 	add	x5, x5, #0x1
    6eb0:	eb0900bf 	cmp	x5, x9
    6eb4:	54ffff63 	b.cc	6ea0 <malloc_buffer_is_within_alloced+0x13c>  // b.lo, b.ul, b.last
malloc_buffer_is_within_alloced():
/home/zrz0517/study/TEE/RT-TEE/optee_os/lib/libutils/isoc/bget_malloc.c:921
    6eb8:	52800000 	mov	w0, #0x0                   	// #0
/home/zrz0517/study/TEE/RT-TEE/optee_os/lib/libutils/isoc/bget_malloc.c:948
    6ebc:	a8c17bfd 	ldp	x29, x30, [sp], #16
    6ec0:	d65f03c0 	ret
bpool_foreach():
/home/zrz0517/study/TEE/RT-TEE/optee_os/lib/libutils/isoc/bget_malloc.c:279
    6ec4:	d37ceca0 	lsl	x0, x5, #4
    6ec8:	f86068c3 	ldr	x3, [x6, x0]
    6ecc:	17ffffb1 	b	6d90 <malloc_buffer_is_within_alloced+0x2c>
/home/zrz0517/study/TEE/RT-TEE/optee_os/lib/libutils/isoc/bget_malloc.c:275
    6ed0:	910004a5 	add	x5, x5, #0x1
    6ed4:	eb0900bf 	cmp	x5, x9
    6ed8:	54ffff63 	b.cc	6ec4 <malloc_buffer_is_within_alloced+0x160>  // b.lo, b.ul, b.last
malloc_buffer_is_within_alloced():
/home/zrz0517/study/TEE/RT-TEE/optee_os/lib/libutils/isoc/bget_malloc.c:921
    6edc:	52800000 	mov	w0, #0x0                   	// #0
/home/zrz0517/study/TEE/RT-TEE/optee_os/lib/libutils/isoc/bget_malloc.c:948
    6ee0:	d65f03c0 	ret

0000000000006ee4 <malloc_buffer_overlaps_heap>:
malloc_buffer_overlaps_heap():
/home/zrz0517/study/TEE/RT-TEE/optee_os/lib/libutils/isoc/bget_malloc.c:960
    6ee4:	d0000022 	adrp	x2, c000 <ta_props>
    6ee8:	91062042 	add	x2, x2, #0x188
/home/zrz0517/study/TEE/RT-TEE/optee_os/lib/libutils/isoc/bget_malloc.c:953
    6eec:	8b010001 	add	x1, x0, x1
/home/zrz0517/study/TEE/RT-TEE/optee_os/lib/libutils/isoc/bget_malloc.c:960
    6ef0:	d2800005 	mov	x5, #0x0                   	// #0
    6ef4:	a9438c47 	ldp	x7, x3, [x2, #56]
/home/zrz0517/study/TEE/RT-TEE/optee_os/lib/libutils/isoc/bget_malloc.c:960 (discriminator 1)
    6ef8:	eb0500ff 	cmp	x7, x5
    6efc:	54000081 	b.ne	6f0c <malloc_buffer_overlaps_heap+0x28>  // b.any
/home/zrz0517/study/TEE/RT-TEE/optee_os/lib/libutils/isoc/bget_malloc.c:955
    6f00:	52800002 	mov	w2, #0x0                   	// #0
/home/zrz0517/study/TEE/RT-TEE/optee_os/lib/libutils/isoc/bget_malloc.c:978
    6f04:	2a0203e0 	mov	w0, w2
    6f08:	d65f03c0 	ret
/home/zrz0517/study/TEE/RT-TEE/optee_os/lib/libutils/isoc/bget_malloc.c:962
    6f0c:	a9401066 	ldp	x6, x4, [x3]
/home/zrz0517/study/TEE/RT-TEE/optee_os/lib/libutils/isoc/bget_malloc.c:964
    6f10:	eb01001f 	cmp	x0, x1
    6f14:	1a9f97e2 	cset	w2, hi  // hi = pmore
/home/zrz0517/study/TEE/RT-TEE/optee_os/lib/libutils/isoc/bget_malloc.c:962
    6f18:	8b0400c4 	add	x4, x6, x4
/home/zrz0517/study/TEE/RT-TEE/optee_os/lib/libutils/isoc/bget_malloc.c:964
    6f1c:	eb0400df 	cmp	x6, x4
    6f20:	1a9f97e8 	cset	w8, hi  // hi = pmore
    6f24:	2a080042 	orr	w2, w2, w8
    6f28:	35fffee2 	cbnz	w2, 6f04 <malloc_buffer_overlaps_heap+0x20>
/home/zrz0517/study/TEE/RT-TEE/optee_os/lib/libutils/isoc/bget_malloc.c:969
    6f2c:	eb06003f 	cmp	x1, x6
    6f30:	91004063 	add	x3, x3, #0x10
    6f34:	1a9f97e2 	cset	w2, hi  // hi = pmore
    6f38:	eb04001f 	cmp	x0, x4
    6f3c:	1a9f27e4 	cset	w4, cc  // cc = lo, ul, last
    6f40:	2a040042 	orr	w2, w2, w4
    6f44:	35fffe02 	cbnz	w2, 6f04 <malloc_buffer_overlaps_heap+0x20>
/home/zrz0517/study/TEE/RT-TEE/optee_os/lib/libutils/isoc/bget_malloc.c:960 (discriminator 2)
    6f48:	910004a5 	add	x5, x5, #0x1
    6f4c:	17ffffeb 	b	6ef8 <malloc_buffer_overlaps_heap+0x14>

0000000000006f50 <snprintf>:
snprintf():
/home/zrz0517/study/TEE/RT-TEE/optee_os/lib/libutils/isoc/snprintf.c:10
    6f50:	a9b07bfd 	stp	x29, x30, [sp, #-256]!
    6f54:	910003fd 	mov	x29, sp
    6f58:	a90d93e3 	stp	x3, x4, [sp, #216]
/home/zrz0517/study/TEE/RT-TEE/optee_os/lib/libutils/isoc/snprintf.c:14
    6f5c:	910403e3 	add	x3, sp, #0x100
    6f60:	a9030fe3 	stp	x3, x3, [sp, #48]
    6f64:	910343e3 	add	x3, sp, #0xd0
    6f68:	f90023e3 	str	x3, [sp, #64]
    6f6c:	128004e3 	mov	w3, #0xffffffd8            	// #-40
    6f70:	b9004be3 	str	w3, [sp, #72]
    6f74:	12800fe3 	mov	w3, #0xffffff80            	// #-128
    6f78:	b9004fe3 	str	w3, [sp, #76]
/home/zrz0517/study/TEE/RT-TEE/optee_os/lib/libutils/isoc/snprintf.c:15
    6f7c:	910043e3 	add	x3, sp, #0x10
/home/zrz0517/study/TEE/RT-TEE/optee_os/lib/libutils/isoc/snprintf.c:10
    6f80:	a90e9be5 	stp	x5, x6, [sp, #232]
/home/zrz0517/study/TEE/RT-TEE/optee_os/lib/libutils/isoc/snprintf.c:15
    6f84:	a94317e4 	ldp	x4, x5, [sp, #48]
    6f88:	a90117e4 	stp	x4, x5, [sp, #16]
    6f8c:	a94417e4 	ldp	x4, x5, [sp, #64]
    6f90:	a90217e4 	stp	x4, x5, [sp, #32]
/home/zrz0517/study/TEE/RT-TEE/optee_os/lib/libutils/isoc/snprintf.c:10
    6f94:	3d8017e0 	str	q0, [sp, #80]
/home/zrz0517/study/TEE/RT-TEE/optee_os/lib/libutils/isoc/snprintf.c:15
    6f98:	52800004 	mov	w4, #0x0                   	// #0
/home/zrz0517/study/TEE/RT-TEE/optee_os/lib/libutils/isoc/snprintf.c:10
    6f9c:	3d801be1 	str	q1, [sp, #96]
    6fa0:	3d801fe2 	str	q2, [sp, #112]
    6fa4:	3d8023e3 	str	q3, [sp, #128]
    6fa8:	3d8027e4 	str	q4, [sp, #144]
    6fac:	3d802be5 	str	q5, [sp, #160]
    6fb0:	3d802fe6 	str	q6, [sp, #176]
    6fb4:	3d8033e7 	str	q7, [sp, #192]
    6fb8:	f9007fe7 	str	x7, [sp, #248]
/home/zrz0517/study/TEE/RT-TEE/optee_os/lib/libutils/isoc/snprintf.c:15
    6fbc:	94000052 	bl	7104 <__vsnprintf>
/home/zrz0517/study/TEE/RT-TEE/optee_os/lib/libutils/isoc/snprintf.c:19
    6fc0:	a8d07bfd 	ldp	x29, x30, [sp], #256
    6fc4:	d65f03c0 	ret

0000000000006fc8 <vsnprintf>:
vsnprintf():
/home/zrz0517/study/TEE/RT-TEE/optee_os/lib/libutils/isoc/snprintf.c:22
    6fc8:	a9bb7bfd 	stp	x29, x30, [sp, #-80]!
    6fcc:	910003fd 	mov	x29, sp
    6fd0:	a90153f3 	stp	x19, x20, [sp, #16]
    6fd4:	aa0003f3 	mov	x19, x0
    6fd8:	aa0103f4 	mov	x20, x1
/home/zrz0517/study/TEE/RT-TEE/optee_os/lib/libutils/isoc/snprintf.c:23
    6fdc:	9100c3e0 	add	x0, sp, #0x30
    6fe0:	aa0303e1 	mov	x1, x3
/home/zrz0517/study/TEE/RT-TEE/optee_os/lib/libutils/isoc/snprintf.c:22
    6fe4:	f90013f5 	str	x21, [sp, #32]
    6fe8:	aa0203f5 	mov	x21, x2
/home/zrz0517/study/TEE/RT-TEE/optee_os/lib/libutils/isoc/snprintf.c:23
    6fec:	d2800402 	mov	x2, #0x20                  	// #32
    6ff0:	94000018 	bl	7050 <memcpy>
    6ff4:	aa1503e2 	mov	x2, x21
    6ff8:	aa0003e3 	mov	x3, x0
    6ffc:	aa1403e1 	mov	x1, x20
    7000:	52800004 	mov	w4, #0x0                   	// #0
    7004:	aa1303e0 	mov	x0, x19
    7008:	9400003f 	bl	7104 <__vsnprintf>
/home/zrz0517/study/TEE/RT-TEE/optee_os/lib/libutils/isoc/snprintf.c:24
    700c:	a94153f3 	ldp	x19, x20, [sp, #16]
    7010:	f94013f5 	ldr	x21, [sp, #32]
    7014:	a8c57bfd 	ldp	x29, x30, [sp], #80
    7018:	d65f03c0 	ret

000000000000701c <memcmp>:
memcmp():
/home/zrz0517/study/TEE/RT-TEE/optee_os/lib/libutils/isoc/newlib/memcmp.c:91
    701c:	d1000421 	sub	x1, x1, #0x1
/home/zrz0517/study/TEE/RT-TEE/optee_os/lib/libutils/isoc/newlib/memcmp.c:90
    7020:	d2800004 	mov	x4, #0x0                   	// #0
    7024:	eb04005f 	cmp	x2, x4
    7028:	54000061 	b.ne	7034 <memcmp+0x18>  // b.any
/home/zrz0517/study/TEE/RT-TEE/optee_os/lib/libutils/isoc/newlib/memcmp.c:96
    702c:	52800000 	mov	w0, #0x0                   	// #0
    7030:	14000007 	b	704c <memcmp+0x30>
/home/zrz0517/study/TEE/RT-TEE/optee_os/lib/libutils/isoc/newlib/memcmp.c:91
    7034:	38646803 	ldrb	w3, [x0, x4]
    7038:	91000484 	add	x4, x4, #0x1
    703c:	38646825 	ldrb	w5, [x1, x4]
    7040:	6b05007f 	cmp	w3, w5
    7044:	54ffff00 	b.eq	7024 <memcmp+0x8>  // b.none
/home/zrz0517/study/TEE/RT-TEE/optee_os/lib/libutils/isoc/newlib/memcmp.c:92
    7048:	4b050060 	sub	w0, w3, w5
/home/zrz0517/study/TEE/RT-TEE/optee_os/lib/libutils/isoc/newlib/memcmp.c:136
    704c:	d65f03c0 	ret

0000000000007050 <memcpy>:
memcpy():
/home/zrz0517/study/TEE/RT-TEE/optee_os/lib/libutils/isoc/newlib/memcpy.c:94
    7050:	d2800003 	mov	x3, #0x0                   	// #0
    7054:	eb03005f 	cmp	x2, x3
    7058:	54000041 	b.ne	7060 <memcpy+0x10>  // b.any
/home/zrz0517/study/TEE/RT-TEE/optee_os/lib/libutils/isoc/newlib/memcpy.c:135
    705c:	d65f03c0 	ret
/home/zrz0517/study/TEE/RT-TEE/optee_os/lib/libutils/isoc/newlib/memcpy.c:95
    7060:	38636824 	ldrb	w4, [x1, x3]
    7064:	38236804 	strb	w4, [x0, x3]
    7068:	91000463 	add	x3, x3, #0x1
    706c:	17fffffa 	b	7054 <memcpy+0x4>

0000000000007070 <memmove>:
memmove():
/home/zrz0517/study/TEE/RT-TEE/optee_os/lib/libutils/isoc/newlib/memmove.c:96
    7070:	eb01001f 	cmp	x0, x1
    7074:	54000289 	b.ls	70c4 <memmove+0x54>  // b.plast
/home/zrz0517/study/TEE/RT-TEE/optee_os/lib/libutils/isoc/newlib/memmove.c:96 (discriminator 1)
    7078:	8b020023 	add	x3, x1, x2
    707c:	eb00007f 	cmp	x3, x0
    7080:	54000229 	b.ls	70c4 <memmove+0x54>  // b.plast
/home/zrz0517/study/TEE/RT-TEE/optee_os/lib/libutils/isoc/newlib/memmove.c:99
    7084:	8b020004 	add	x4, x0, x2
/home/zrz0517/study/TEE/RT-TEE/optee_os/lib/libutils/isoc/newlib/memmove.c:100
    7088:	aa2203e2 	mvn	x2, x2
    708c:	d2800001 	mov	x1, #0x0                   	// #0
    7090:	d1000421 	sub	x1, x1, #0x1
    7094:	eb01005f 	cmp	x2, x1
    7098:	54000041 	b.ne	70a0 <memmove+0x30>  // b.any
/home/zrz0517/study/TEE/RT-TEE/optee_os/lib/libutils/isoc/newlib/memmove.c:157
    709c:	d65f03c0 	ret
/home/zrz0517/study/TEE/RT-TEE/optee_os/lib/libutils/isoc/newlib/memmove.c:101
    70a0:	38616865 	ldrb	w5, [x3, x1]
    70a4:	38216885 	strb	w5, [x4, x1]
    70a8:	17fffffa 	b	7090 <memmove+0x20>
/home/zrz0517/study/TEE/RT-TEE/optee_os/lib/libutils/isoc/newlib/memmove.c:104
    70ac:	38636824 	ldrb	w4, [x1, x3]
    70b0:	38236804 	strb	w4, [x0, x3]
    70b4:	91000463 	add	x3, x3, #0x1
/home/zrz0517/study/TEE/RT-TEE/optee_os/lib/libutils/isoc/newlib/memmove.c:103
    70b8:	eb03005f 	cmp	x2, x3
    70bc:	54ffff81 	b.ne	70ac <memmove+0x3c>  // b.any
    70c0:	17fffff7 	b	709c <memmove+0x2c>
    70c4:	d2800003 	mov	x3, #0x0                   	// #0
    70c8:	17fffffc 	b	70b8 <memmove+0x48>

00000000000070cc <memset>:
memset():
/home/zrz0517/study/TEE/RT-TEE/optee_os/lib/libutils/isoc/newlib/memset.c:125
    70cc:	d2800003 	mov	x3, #0x0                   	// #0
    70d0:	eb03005f 	cmp	x2, x3
    70d4:	54000041 	b.ne	70dc <memset+0x10>  // b.any
/home/zrz0517/study/TEE/RT-TEE/optee_os/lib/libutils/isoc/newlib/memset.c:129
    70d8:	d65f03c0 	ret
/home/zrz0517/study/TEE/RT-TEE/optee_os/lib/libutils/isoc/newlib/memset.c:126
    70dc:	38236801 	strb	w1, [x0, x3]
    70e0:	91000463 	add	x3, x3, #0x1
    70e4:	17fffffb 	b	70d0 <memset+0x4>

00000000000070e8 <strlen>:
strlen():
/home/zrz0517/study/TEE/RT-TEE/optee_os/lib/libutils/isoc/newlib/strlen.c:117
    70e8:	aa0003e1 	mov	x1, x0
    70ec:	39400022 	ldrb	w2, [x1]
    70f0:	35000062 	cbnz	w2, 70fc <strlen+0x14>
/home/zrz0517/study/TEE/RT-TEE/optee_os/lib/libutils/isoc/newlib/strlen.c:120
    70f4:	cb000020 	sub	x0, x1, x0
    70f8:	d65f03c0 	ret
/home/zrz0517/study/TEE/RT-TEE/optee_os/lib/libutils/isoc/newlib/strlen.c:118
    70fc:	91000421 	add	x1, x1, #0x1
    7100:	17fffffb 	b	70ec <strlen+0x4>

0000000000007104 <__vsnprintf>:
__vsnprintf():
/home/zrz0517/study/TEE/RT-TEE/optee_os/lib/libutils/ext/snprintk.c:137
    7104:	d10403ff 	sub	sp, sp, #0x100
    7108:	aa0203e9 	mov	x9, x2
kprintf():
/home/zrz0517/study/TEE/RT-TEE/optee_os/lib/libutils/ext/snprintk.c:537
    710c:	910363ed 	add	x13, sp, #0xd8
__vsnprintf():
/home/zrz0517/study/TEE/RT-TEE/optee_os/lib/libutils/ext/snprintk.c:137
    7110:	a9037bfd 	stp	x29, x30, [sp, #48]
    7114:	9100c3fd 	add	x29, sp, #0x30
    7118:	a90987e0 	stp	x0, x1, [sp, #152]
    711c:	12001c80 	and	w0, w4, #0xff
    7120:	a90453f3 	stp	x19, x20, [sp, #64]
    7124:	b9401874 	ldr	w20, [x3, #24]
    7128:	a90873fb 	stp	x27, x28, [sp, #128]
    712c:	b900afe0 	str	w0, [sp, #172]
    7130:	a9407073 	ldp	x19, x28, [x3]
    7134:	a9076bf9 	stp	x25, x26, [sp, #112]
kprintf():
/home/zrz0517/study/TEE/RT-TEE/optee_os/lib/libutils/ext/snprintk.c:267
    7138:	5280001a 	mov	w26, #0x0                   	// #0
__vsnprintf():
/home/zrz0517/study/TEE/RT-TEE/optee_os/lib/libutils/ext/snprintk.c:141
    713c:	f9404fe0 	ldr	x0, [sp, #152]
/home/zrz0517/study/TEE/RT-TEE/optee_os/lib/libutils/ext/snprintk.c:137
    7140:	a9055bf5 	stp	x21, x22, [sp, #80]
kprintf():
/home/zrz0517/study/TEE/RT-TEE/optee_os/lib/libutils/ext/snprintk.c:269
    7144:	d2800016 	mov	x22, #0x0                   	// #0
__vsnprintf():
/home/zrz0517/study/TEE/RT-TEE/optee_os/lib/libutils/ext/snprintk.c:141
    7148:	8b010019 	add	x25, x0, x1
    714c:	aa0003fb 	mov	x27, x0
/home/zrz0517/study/TEE/RT-TEE/optee_os/lib/libutils/ext/snprintk.c:137
    7150:	a90663f7 	stp	x23, x24, [sp, #96]
kprintf():
/home/zrz0517/study/TEE/RT-TEE/optee_os/lib/libutils/ext/snprintk.c:275
    7154:	39400120 	ldrb	w0, [x9]
    7158:	7100941f 	cmp	w0, #0x25
    715c:	7a401804 	ccmp	w0, #0x0, #0x4, ne  // ne = any
    7160:	540003c1 	b.ne	71d8 <__vsnprintf+0xd4>  // b.any
/home/zrz0517/study/TEE/RT-TEE/optee_os/lib/libutils/ext/snprintk.c:279
    7164:	34005be0 	cbz	w0, 7ce0 <__vsnprintf+0xbdc>
/home/zrz0517/study/TEE/RT-TEE/optee_os/lib/libutils/ext/snprintk.c:287
    7168:	12800003 	mov	w3, #0xffffffff            	// #-1
/home/zrz0517/study/TEE/RT-TEE/optee_os/lib/libutils/ext/snprintk.c:282
    716c:	91000529 	add	x9, x9, #0x1
    7170:	2a1403e1 	mov	w1, w20
    7174:	aa1303e0 	mov	x0, x19
/home/zrz0517/study/TEE/RT-TEE/optee_os/lib/libutils/ext/snprintk.c:324
    7178:	2a0303e6 	mov	w6, w3
/home/zrz0517/study/TEE/RT-TEE/optee_os/lib/libutils/ext/snprintk.c:288
    717c:	52800002 	mov	w2, #0x0                   	// #0
/home/zrz0517/study/TEE/RT-TEE/optee_os/lib/libutils/ext/snprintk.c:286
    7180:	52800017 	mov	w23, #0x0                   	// #0
/home/zrz0517/study/TEE/RT-TEE/optee_os/lib/libutils/ext/snprintk.c:284
    7184:	52800015 	mov	w21, #0x0                   	// #0
/home/zrz0517/study/TEE/RT-TEE/optee_os/lib/libutils/ext/snprintk.c:299
    7188:	52800407 	mov	w7, #0x20                  	// #32
/home/zrz0517/study/TEE/RT-TEE/optee_os/lib/libutils/ext/snprintk.c:290
    718c:	38401538 	ldrb	w24, [x9], #1
/home/zrz0517/study/TEE/RT-TEE/optee_os/lib/libutils/ext/snprintk.c:291
    7190:	71018f1f 	cmp	w24, #0x63
    7194:	540019e0 	b.eq	74d0 <__vsnprintf+0x3cc>  // b.none
    7198:	540007ec 	b.gt	7294 <__vsnprintf+0x190>
    719c:	7100c31f 	cmp	w24, #0x30
    71a0:	540017c0 	b.eq	7498 <__vsnprintf+0x394>  // b.none
    71a4:	5400038c 	b.gt	7214 <__vsnprintf+0x110>
    71a8:	7100ab1f 	cmp	w24, #0x2a
    71ac:	54001100 	b.eq	73cc <__vsnprintf+0x2c8>  // b.none
    71b0:	5400022c 	b.gt	71f4 <__vsnprintf+0xf0>
    71b4:	7100831f 	cmp	w24, #0x20
    71b8:	54001000 	b.eq	73b8 <__vsnprintf+0x2b4>  // b.none
    71bc:	71008f1f 	cmp	w24, #0x23
    71c0:	54001020 	b.eq	73c4 <__vsnprintf+0x2c0>  // b.none
/home/zrz0517/study/TEE/RT-TEE/optee_os/lib/libutils/ext/snprintk.c:541
    71c4:	340058f8 	cbz	w24, 7ce0 <__vsnprintf+0xbdc>
/home/zrz0517/study/TEE/RT-TEE/optee_os/lib/libutils/ext/snprintk.c:545
    71c8:	2a0103f4 	mov	w20, w1
    71cc:	aa0003f3 	mov	x19, x0
    71d0:	390363f8 	strb	w24, [sp, #216]
/home/zrz0517/study/TEE/RT-TEE/optee_os/lib/libutils/ext/snprintk.c:548
    71d4:	140000c5 	b	74e8 <__vsnprintf+0x3e4>
/home/zrz0517/study/TEE/RT-TEE/optee_os/lib/libutils/ext/snprintk.c:276
    71d8:	1100075a 	add	w26, w26, #0x1
/home/zrz0517/study/TEE/RT-TEE/optee_os/lib/libutils/ext/snprintk.c:277
    71dc:	b400009b 	cbz	x27, 71ec <__vsnprintf+0xe8>
    71e0:	eb1b033f 	cmp	x25, x27
    71e4:	54000049 	b.ls	71ec <__vsnprintf+0xe8>  // b.plast
    71e8:	38001760 	strb	w0, [x27], #1
/home/zrz0517/study/TEE/RT-TEE/optee_os/lib/libutils/ext/snprintk.c:275
    71ec:	91000529 	add	x9, x9, #0x1
    71f0:	17ffffd9 	b	7154 <__vsnprintf+0x50>
    71f4:	7100b71f 	cmp	w24, #0x2d
    71f8:	54000f80 	b.eq	73e8 <__vsnprintf+0x2e4>  // b.none
    71fc:	7100bb1f 	cmp	w24, #0x2e
    7200:	540010e0 	b.eq	741c <__vsnprintf+0x318>  // b.none
    7204:	7100af1f 	cmp	w24, #0x2b
    7208:	54fffde1 	b.ne	71c4 <__vsnprintf+0xc0>  // b.any
/home/zrz0517/study/TEE/RT-TEE/optee_os/lib/libutils/ext/snprintk.c:319
    720c:	2a1803e2 	mov	w2, w24
    7210:	17ffffdf 	b	718c <__vsnprintf+0x88>
    7214:	7101131f 	cmp	w24, #0x44
    7218:	54001840 	b.eq	7520 <__vsnprintf+0x41c>  // b.none
    721c:	5400018c 	b.gt	724c <__vsnprintf+0x148>
    7220:	7100e71f 	cmp	w24, #0x39
    7224:	54fffd0c 	b.gt	71c4 <__vsnprintf+0xc0>
/home/zrz0517/study/TEE/RT-TEE/optee_os/lib/libutils/ext/snprintk.c:344
    7228:	52800017 	mov	w23, #0x0                   	// #0
/home/zrz0517/study/TEE/RT-TEE/optee_os/lib/libutils/ext/snprintk.c:346
    722c:	5100c308 	sub	w8, w24, #0x30
    7230:	52800144 	mov	w4, #0xa                   	// #10
/home/zrz0517/study/TEE/RT-TEE/optee_os/lib/libutils/ext/snprintk.c:347
    7234:	38401538 	ldrb	w24, [x9], #1
/home/zrz0517/study/TEE/RT-TEE/optee_os/lib/libutils/ext/snprintk.c:346
    7238:	1b0422f7 	madd	w23, w23, w4, w8
/home/zrz0517/study/TEE/RT-TEE/optee_os/lib/libutils/ext/snprintk.c:348
    723c:	5100c304 	sub	w4, w24, #0x30
    7240:	7100249f 	cmp	w4, #0x9
    7244:	54ffff49 	b.ls	722c <__vsnprintf+0x128>  // b.plast
    7248:	17ffffd2 	b	7190 <__vsnprintf+0x8c>
    724c:	7101571f 	cmp	w24, #0x55
    7250:	54003e20 	b.eq	7a14 <__vsnprintf+0x910>  // b.none
    7254:	7101631f 	cmp	w24, #0x58
    7258:	540043a0 	b.eq	7acc <__vsnprintf+0x9c8>  // b.none
    725c:	71013f1f 	cmp	w24, #0x4f
    7260:	54fffb21 	b.ne	71c4 <__vsnprintf+0xc0>  // b.any
/home/zrz0517/study/TEE/RT-TEE/optee_os/lib/libutils/ext/snprintk.c:408
    7264:	321c02b5 	orr	w21, w21, #0x10
/home/zrz0517/study/TEE/RT-TEE/optee_os/lib/libutils/ext/snprintk.c:411
    7268:	36382675 	tbz	w21, #7, 7734 <__vsnprintf+0x630>
    726c:	37f827a1 	tbnz	w1, #31, 7760 <__vsnprintf+0x65c>
    7270:	91003c13 	add	x19, x0, #0xf
    7274:	2a0103f4 	mov	w20, w1
    7278:	927df273 	and	x19, x19, #0xfffffffffffffff8
    727c:	f9400000 	ldr	x0, [x0]
/home/zrz0517/study/TEE/RT-TEE/optee_os/lib/libutils/ext/snprintk.c:488
    7280:	52800002 	mov	w2, #0x0                   	// #0
    7284:	3100047f 	cmn	w3, #0x1
    7288:	540016e0 	b.eq	7564 <__vsnprintf+0x460>  // b.none
    728c:	52800001 	mov	w1, #0x0                   	// #0
    7290:	1400024e 	b	7bc8 <__vsnprintf+0xac4>
    7294:	7101bf1f 	cmp	w24, #0x6f
    7298:	54fffe80 	b.eq	7268 <__vsnprintf+0x164>  // b.none
    729c:	5400024c 	b.gt	72e4 <__vsnprintf+0x1e0>
    72a0:	7101a71f 	cmp	w24, #0x69
    72a4:	54001400 	b.eq	7524 <__vsnprintf+0x420>  // b.none
    72a8:	540000ec 	b.gt	72c4 <__vsnprintf+0x1c0>
    72ac:	7101931f 	cmp	w24, #0x64
    72b0:	540013a0 	b.eq	7524 <__vsnprintf+0x420>  // b.none
    72b4:	7101a31f 	cmp	w24, #0x68
    72b8:	54fff861 	b.ne	71c4 <__vsnprintf+0xc0>  // b.any
/home/zrz0517/study/TEE/RT-TEE/optee_os/lib/libutils/ext/snprintk.c:352
    72bc:	321a02b5 	orr	w21, w21, #0x40
/home/zrz0517/study/TEE/RT-TEE/optee_os/lib/libutils/ext/snprintk.c:353
    72c0:	17ffffb3 	b	718c <__vsnprintf+0x88>
    72c4:	7101b31f 	cmp	w24, #0x6c
    72c8:	54000ec0 	b.eq	74a0 <__vsnprintf+0x39c>  // b.none
    72cc:	7101bb1f 	cmp	w24, #0x6e
    72d0:	54001c40 	b.eq	7658 <__vsnprintf+0x554>  // b.none
    72d4:	7101ab1f 	cmp	w24, #0x6a
    72d8:	54fff761 	b.ne	71c4 <__vsnprintf+0xc0>  // b.any
/home/zrz0517/study/TEE/RT-TEE/optee_os/lib/libutils/ext/snprintk.c:355
    72dc:	321902b5 	orr	w21, w21, #0x80
/home/zrz0517/study/TEE/RT-TEE/optee_os/lib/libutils/ext/snprintk.c:356
    72e0:	17ffffab 	b	718c <__vsnprintf+0x88>
    72e4:	7101d31f 	cmp	w24, #0x74
    72e8:	54000ec0 	b.eq	74c0 <__vsnprintf+0x3bc>  // b.none
    72ec:	5400042c 	b.gt	7370 <__vsnprintf+0x26c>
    72f0:	7101c71f 	cmp	w24, #0x71
    72f4:	54000de0 	b.eq	74b0 <__vsnprintf+0x3ac>  // b.none
    72f8:	5400276b 	b.lt	77e4 <__vsnprintf+0x6e0>  // b.tstop
    72fc:	7101cf1f 	cmp	w24, #0x73
    7300:	54fff621 	b.ne	71c4 <__vsnprintf+0xc0>  // b.any
/home/zrz0517/study/TEE/RT-TEE/optee_os/lib/libutils/ext/snprintk.c:442
    7304:	37f83621 	tbnz	w1, #31, 79c8 <__vsnprintf+0x8c4>
    7308:	91003c13 	add	x19, x0, #0xf
    730c:	2a0103f4 	mov	w20, w1
    7310:	927df273 	and	x19, x19, #0xfffffffffffffff8
    7314:	f9400004 	ldr	x4, [x0]
    7318:	b5000064 	cbnz	x4, 7324 <__vsnprintf+0x220>
/home/zrz0517/study/TEE/RT-TEE/optee_os/lib/libutils/ext/snprintk.c:444
    731c:	f0000004 	adrp	x4, a000 <__func__.4888+0x13>
    7320:	91280084 	add	x4, x4, #0xa00
/home/zrz0517/study/TEE/RT-TEE/optee_os/lib/libutils/ext/snprintk.c:445
    7324:	3100047f 	cmn	w3, #0x1
    7328:	54003620 	b.eq	79ec <__vsnprintf+0x8e8>  // b.none
/home/zrz0517/study/TEE/RT-TEE/optee_os/lib/libutils/ext/snprintk.c:451
    732c:	93407c62 	sxtw	x2, w3
    7330:	aa0403e0 	mov	x0, x4
    7334:	52800001 	mov	w1, #0x0                   	// #0
    7338:	f9005be4 	str	x4, [sp, #176]
    733c:	b900bbe3 	str	w3, [sp, #184]
    7340:	a90c37e9 	stp	x9, x13, [sp, #192]
    7344:	940003b3 	bl	8210 <memchr>
/home/zrz0517/study/TEE/RT-TEE/optee_os/lib/libutils/ext/snprintk.c:453
    7348:	b940bbe3 	ldr	w3, [sp, #184]
    734c:	f9405be4 	ldr	x4, [sp, #176]
    7350:	a94c37e9 	ldp	x9, x13, [sp, #192]
    7354:	b4000080 	cbz	x0, 7364 <__vsnprintf+0x260>
/home/zrz0517/study/TEE/RT-TEE/optee_os/lib/libutils/ext/snprintk.c:454
    7358:	cb040000 	sub	x0, x0, x4
    735c:	6b00007f 	cmp	w3, w0
    7360:	1a80d063 	csel	w3, w3, w0, le
/home/zrz0517/study/TEE/RT-TEE/optee_os/lib/libutils/ext/snprintk.c:285
    7364:	52800001 	mov	w1, #0x0                   	// #0
/home/zrz0517/study/TEE/RT-TEE/optee_os/lib/libutils/ext/snprintk.c:461
    7368:	52800002 	mov	w2, #0x0                   	// #0
    736c:	14000148 	b	788c <__vsnprintf+0x788>
    7370:	7101e31f 	cmp	w24, #0x78
    7374:	54003ca0 	b.eq	7b08 <__vsnprintf+0xa04>  // b.none
    7378:	7101eb1f 	cmp	w24, #0x7a
    737c:	54000a60 	b.eq	74c8 <__vsnprintf+0x3c4>  // b.none
    7380:	7101d71f 	cmp	w24, #0x75
    7384:	54fff201 	b.ne	71c4 <__vsnprintf+0xc0>  // b.any
/home/zrz0517/study/TEE/RT-TEE/optee_os/lib/libutils/ext/snprintk.c:467
    7388:	363834b5 	tbz	w21, #7, 7a1c <__vsnprintf+0x918>
    738c:	37f835e1 	tbnz	w1, #31, 7a48 <__vsnprintf+0x944>
    7390:	91003c13 	add	x19, x0, #0xf
    7394:	2a0103f4 	mov	w20, w1
    7398:	927df273 	and	x19, x19, #0xfffffffffffffff8
    739c:	f9400000 	ldr	x0, [x0]
/home/zrz0517/study/TEE/RT-TEE/optee_os/lib/libutils/ext/snprintk.c:482
    73a0:	52800002 	mov	w2, #0x0                   	// #0
/home/zrz0517/study/TEE/RT-TEE/optee_os/lib/libutils/ext/snprintk.c:488
    73a4:	3100047f 	cmn	w3, #0x1
    73a8:	540041e1 	b.ne	7be4 <__vsnprintf+0xae0>  // b.any
/home/zrz0517/study/TEE/RT-TEE/optee_os/lib/libutils/ext/snprintk.c:508
    73ac:	910095a1 	add	x1, x13, #0x25
/home/zrz0517/study/TEE/RT-TEE/optee_os/lib/libutils/ext/snprintk.c:517
    73b0:	d2800145 	mov	x5, #0xa                   	// #10
    73b4:	14000216 	b	7c0c <__vsnprintf+0xb08>
/home/zrz0517/study/TEE/RT-TEE/optee_os/lib/libutils/ext/snprintk.c:299
    73b8:	7100005f 	cmp	w2, #0x0
    73bc:	1a871042 	csel	w2, w2, w7, ne  // ne = any
    73c0:	17ffff73 	b	718c <__vsnprintf+0x88>
/home/zrz0517/study/TEE/RT-TEE/optee_os/lib/libutils/ext/snprintk.c:302
    73c4:	320002b5 	orr	w21, w21, #0x1
/home/zrz0517/study/TEE/RT-TEE/optee_os/lib/libutils/ext/snprintk.c:303
    73c8:	17ffff71 	b	718c <__vsnprintf+0x88>
/home/zrz0517/study/TEE/RT-TEE/optee_os/lib/libutils/ext/snprintk.c:311
    73cc:	37f80121 	tbnz	w1, #31, 73f0 <__vsnprintf+0x2ec>
    73d0:	91002c05 	add	x5, x0, #0xb
    73d4:	aa0003e4 	mov	x4, x0
    73d8:	927df0a0 	and	x0, x5, #0xfffffffffffffff8
    73dc:	b9400097 	ldr	w23, [x4]
    73e0:	36ffed77 	tbz	w23, #31, 718c <__vsnprintf+0x88>
/home/zrz0517/study/TEE/RT-TEE/optee_os/lib/libutils/ext/snprintk.c:313
    73e4:	4b1703f7 	neg	w23, w23
/home/zrz0517/study/TEE/RT-TEE/optee_os/lib/libutils/ext/snprintk.c:316
    73e8:	321e02b5 	orr	w21, w21, #0x4
/home/zrz0517/study/TEE/RT-TEE/optee_os/lib/libutils/ext/snprintk.c:317
    73ec:	17ffff68 	b	718c <__vsnprintf+0x88>
/home/zrz0517/study/TEE/RT-TEE/optee_os/lib/libutils/ext/snprintk.c:311
    73f0:	11002025 	add	w5, w1, #0x8
    73f4:	710000bf 	cmp	w5, #0x0
    73f8:	540000cd 	b.le	7410 <__vsnprintf+0x30c>
    73fc:	91002c08 	add	x8, x0, #0xb
    7400:	aa0003e4 	mov	x4, x0
    7404:	2a0503e1 	mov	w1, w5
    7408:	927df100 	and	x0, x8, #0xfffffffffffffff8
    740c:	17fffff4 	b	73dc <__vsnprintf+0x2d8>
    7410:	8b21c384 	add	x4, x28, w1, sxtw
    7414:	2a0503e1 	mov	w1, w5
    7418:	17fffff1 	b	73dc <__vsnprintf+0x2d8>
/home/zrz0517/study/TEE/RT-TEE/optee_os/lib/libutils/ext/snprintk.c:322
    741c:	38401538 	ldrb	w24, [x9], #1
    7420:	7100ab1f 	cmp	w24, #0x2a
    7424:	54000361 	b.ne	7490 <__vsnprintf+0x38c>  // b.any
/home/zrz0517/study/TEE/RT-TEE/optee_os/lib/libutils/ext/snprintk.c:323
    7428:	37f80141 	tbnz	w1, #31, 7450 <__vsnprintf+0x34c>
    742c:	91002c04 	add	x4, x0, #0xb
    7430:	2a0103e5 	mov	w5, w1
    7434:	927df084 	and	x4, x4, #0xfffffffffffffff8
/home/zrz0517/study/TEE/RT-TEE/optee_os/lib/libutils/ext/snprintk.c:324
    7438:	b9400003 	ldr	w3, [x0]
    743c:	2a0503e1 	mov	w1, w5
    7440:	aa0403e0 	mov	x0, x4
    7444:	7100007f 	cmp	w3, #0x0
    7448:	1a86a063 	csel	w3, w3, w6, ge  // ge = tcont
/home/zrz0517/study/TEE/RT-TEE/optee_os/lib/libutils/ext/snprintk.c:325
    744c:	17ffff50 	b	718c <__vsnprintf+0x88>
/home/zrz0517/study/TEE/RT-TEE/optee_os/lib/libutils/ext/snprintk.c:323
    7450:	11002025 	add	w5, w1, #0x8
    7454:	710000bf 	cmp	w5, #0x0
    7458:	5400008d 	b.le	7468 <__vsnprintf+0x364>
    745c:	91002c04 	add	x4, x0, #0xb
    7460:	927df084 	and	x4, x4, #0xfffffffffffffff8
    7464:	17fffff5 	b	7438 <__vsnprintf+0x334>
    7468:	aa0003e4 	mov	x4, x0
    746c:	8b21c380 	add	x0, x28, w1, sxtw
    7470:	17fffff2 	b	7438 <__vsnprintf+0x334>
/home/zrz0517/study/TEE/RT-TEE/optee_os/lib/libutils/ext/snprintk.c:329
    7474:	52800145 	mov	w5, #0xa                   	// #10
/home/zrz0517/study/TEE/RT-TEE/optee_os/lib/libutils/ext/snprintk.c:330
    7478:	38401538 	ldrb	w24, [x9], #1
/home/zrz0517/study/TEE/RT-TEE/optee_os/lib/libutils/ext/snprintk.c:329
    747c:	1b051063 	madd	w3, w3, w5, w4
/home/zrz0517/study/TEE/RT-TEE/optee_os/lib/libutils/ext/snprintk.c:328
    7480:	5100c304 	sub	w4, w24, #0x30
    7484:	7100249f 	cmp	w4, #0x9
    7488:	54ffff69 	b.ls	7474 <__vsnprintf+0x370>  // b.plast
    748c:	17ffff41 	b	7190 <__vsnprintf+0x8c>
/home/zrz0517/study/TEE/RT-TEE/optee_os/lib/libutils/ext/snprintk.c:327
    7490:	52800003 	mov	w3, #0x0                   	// #0
    7494:	17fffffb 	b	7480 <__vsnprintf+0x37c>
/home/zrz0517/study/TEE/RT-TEE/optee_os/lib/libutils/ext/snprintk.c:340
    7498:	321602b5 	orr	w21, w21, #0x400
/home/zrz0517/study/TEE/RT-TEE/optee_os/lib/libutils/ext/snprintk.c:341
    749c:	17ffff3c 	b	718c <__vsnprintf+0x88>
/home/zrz0517/study/TEE/RT-TEE/optee_os/lib/libutils/ext/snprintk.c:358
    74a0:	39400124 	ldrb	w4, [x9]
    74a4:	7101b09f 	cmp	w4, #0x6c
    74a8:	54000081 	b.ne	74b8 <__vsnprintf+0x3b4>  // b.any
    74ac:	91000529 	add	x9, x9, #0x1
/home/zrz0517/study/TEE/RT-TEE/optee_os/lib/libutils/ext/snprintk.c:366
    74b0:	321b02b5 	orr	w21, w21, #0x20
/home/zrz0517/study/TEE/RT-TEE/optee_os/lib/libutils/ext/snprintk.c:367
    74b4:	17ffff36 	b	718c <__vsnprintf+0x88>
/home/zrz0517/study/TEE/RT-TEE/optee_os/lib/libutils/ext/snprintk.c:362
    74b8:	321c02b5 	orr	w21, w21, #0x10
    74bc:	17ffff34 	b	718c <__vsnprintf+0x88>
/home/zrz0517/study/TEE/RT-TEE/optee_os/lib/libutils/ext/snprintk.c:369
    74c0:	321802b5 	orr	w21, w21, #0x100
/home/zrz0517/study/TEE/RT-TEE/optee_os/lib/libutils/ext/snprintk.c:370
    74c4:	17ffff32 	b	718c <__vsnprintf+0x88>
/home/zrz0517/study/TEE/RT-TEE/optee_os/lib/libutils/ext/snprintk.c:372
    74c8:	321702b5 	orr	w21, w21, #0x200
/home/zrz0517/study/TEE/RT-TEE/optee_os/lib/libutils/ext/snprintk.c:373
    74cc:	17ffff30 	b	718c <__vsnprintf+0x88>
/home/zrz0517/study/TEE/RT-TEE/optee_os/lib/libutils/ext/snprintk.c:375
    74d0:	37f80161 	tbnz	w1, #31, 74fc <__vsnprintf+0x3f8>
    74d4:	91002c13 	add	x19, x0, #0xb
    74d8:	2a0103f4 	mov	w20, w1
    74dc:	927df273 	and	x19, x19, #0xfffffffffffffff8
    74e0:	b9400000 	ldr	w0, [x0]
    74e4:	390363e0 	strb	w0, [sp, #216]
/home/zrz0517/study/TEE/RT-TEE/optee_os/lib/libutils/ext/snprintk.c:546
    74e8:	52800023 	mov	w3, #0x1                   	// #1
/home/zrz0517/study/TEE/RT-TEE/optee_os/lib/libutils/ext/snprintk.c:285
    74ec:	52800001 	mov	w1, #0x0                   	// #0
/home/zrz0517/study/TEE/RT-TEE/optee_os/lib/libutils/ext/snprintk.c:547
    74f0:	52800002 	mov	w2, #0x0                   	// #0
/home/zrz0517/study/TEE/RT-TEE/optee_os/lib/libutils/ext/snprintk.c:544
    74f4:	910363e4 	add	x4, sp, #0xd8
    74f8:	140000e5 	b	788c <__vsnprintf+0x788>
/home/zrz0517/study/TEE/RT-TEE/optee_os/lib/libutils/ext/snprintk.c:375
    74fc:	11002034 	add	w20, w1, #0x8
    7500:	7100029f 	cmp	w20, #0x0
    7504:	5400008d 	b.le	7514 <__vsnprintf+0x410>
    7508:	91002c13 	add	x19, x0, #0xb
    750c:	927df273 	and	x19, x19, #0xfffffffffffffff8
    7510:	17fffff4 	b	74e0 <__vsnprintf+0x3dc>
    7514:	aa0003f3 	mov	x19, x0
    7518:	8b21c380 	add	x0, x28, w1, sxtw
    751c:	17fffff1 	b	74e0 <__vsnprintf+0x3dc>
/home/zrz0517/study/TEE/RT-TEE/optee_os/lib/libutils/ext/snprintk.c:380
    7520:	321c02b5 	orr	w21, w21, #0x10
/home/zrz0517/study/TEE/RT-TEE/optee_os/lib/libutils/ext/snprintk.c:384
    7524:	36380435 	tbz	w21, #7, 75a8 <__vsnprintf+0x4a4>
    7528:	37f80561 	tbnz	w1, #31, 75d4 <__vsnprintf+0x4d0>
    752c:	91003c13 	add	x19, x0, #0xf
    7530:	2a0103f4 	mov	w20, w1
    7534:	927df273 	and	x19, x19, #0xfffffffffffffff8
    7538:	f9400000 	ldr	x0, [x0]
/home/zrz0517/study/TEE/RT-TEE/optee_os/lib/libutils/ext/snprintk.c:385
    753c:	b6fff340 	tbz	x0, #63, 73a4 <__vsnprintf+0x2a0>
/home/zrz0517/study/TEE/RT-TEE/optee_os/lib/libutils/ext/snprintk.c:386
    7540:	cb0003e0 	neg	x0, x0
/home/zrz0517/study/TEE/RT-TEE/optee_os/lib/libutils/ext/snprintk.c:389
    7544:	52800021 	mov	w1, #0x1                   	// #1
/home/zrz0517/study/TEE/RT-TEE/optee_os/lib/libutils/ext/snprintk.c:387
    7548:	528005a2 	mov	w2, #0x2d                  	// #45
/home/zrz0517/study/TEE/RT-TEE/optee_os/lib/libutils/ext/snprintk.c:488
    754c:	3100047f 	cmn	w3, #0x1
    7550:	540033c1 	b.ne	7bc8 <__vsnprintf+0xac4>  // b.any
/home/zrz0517/study/TEE/RT-TEE/optee_os/lib/libutils/ext/snprintk.c:503
    7554:	7100043f 	cmp	w1, #0x1
    7558:	54fff2a0 	b.eq	73ac <__vsnprintf+0x2a8>  // b.none
    755c:	7100083f 	cmp	w1, #0x2
    7560:	54002140 	b.eq	7988 <__vsnprintf+0x884>  // b.none
/home/zrz0517/study/TEE/RT-TEE/optee_os/lib/libutils/ext/snprintk.c:488
    7564:	910095a1 	add	x1, x13, #0x25
/home/zrz0517/study/TEE/RT-TEE/optee_os/lib/libutils/ext/snprintk.c:506
    7568:	12000805 	and	w5, w0, #0x7
    756c:	d1000424 	sub	x4, x1, #0x1
    7570:	1100c0a5 	add	w5, w5, #0x30
    7574:	381ff025 	sturb	w5, [x1, #-1]
/home/zrz0517/study/TEE/RT-TEE/optee_os/lib/libutils/ext/snprintk.c:507
    7578:	d343fc00 	lsr	x0, x0, #3
/home/zrz0517/study/TEE/RT-TEE/optee_os/lib/libutils/ext/snprintk.c:508
    757c:	b5003380 	cbnz	x0, 7bec <__vsnprintf+0xae8>
/home/zrz0517/study/TEE/RT-TEE/optee_os/lib/libutils/ext/snprintk.c:510
    7580:	360000d5 	tbz	w21, #0, 7598 <__vsnprintf+0x494>
    7584:	7100c0bf 	cmp	w5, #0x30
    7588:	54000080 	b.eq	7598 <__vsnprintf+0x494>  // b.none
/home/zrz0517/study/TEE/RT-TEE/optee_os/lib/libutils/ext/snprintk.c:511
    758c:	52800600 	mov	w0, #0x30                  	// #48
    7590:	381ff080 	sturb	w0, [x4, #-1]
    7594:	d1000824 	sub	x4, x1, #0x2
/home/zrz0517/study/TEE/RT-TEE/optee_os/lib/libutils/ext/snprintk.c:537
    7598:	910095a0 	add	x0, x13, #0x25
    759c:	2a0303e1 	mov	w1, w3
    75a0:	4b040003 	sub	w3, w0, w4
    75a4:	140000ba 	b	788c <__vsnprintf+0x788>
/home/zrz0517/study/TEE/RT-TEE/optee_os/lib/libutils/ext/snprintk.c:384
    75a8:	3747fc15 	tbnz	w21, #8, 7528 <__vsnprintf+0x424>
    75ac:	374ffbf5 	tbnz	w21, #9, 7528 <__vsnprintf+0x424>
    75b0:	372ffbd5 	tbnz	w21, #5, 7528 <__vsnprintf+0x424>
    75b4:	3727fbb5 	tbnz	w21, #4, 7528 <__vsnprintf+0x424>
    75b8:	36300335 	tbz	w21, #6, 761c <__vsnprintf+0x518>
    75bc:	37f801e1 	tbnz	w1, #31, 75f8 <__vsnprintf+0x4f4>
    75c0:	91002c13 	add	x19, x0, #0xb
    75c4:	2a0103f4 	mov	w20, w1
    75c8:	927df273 	and	x19, x19, #0xfffffffffffffff8
    75cc:	79800000 	ldrsh	x0, [x0]
    75d0:	17ffffdb 	b	753c <__vsnprintf+0x438>
    75d4:	11002034 	add	w20, w1, #0x8
    75d8:	7100029f 	cmp	w20, #0x0
    75dc:	5400008d 	b.le	75ec <__vsnprintf+0x4e8>
    75e0:	91003c13 	add	x19, x0, #0xf
    75e4:	927df273 	and	x19, x19, #0xfffffffffffffff8
    75e8:	17ffffd4 	b	7538 <__vsnprintf+0x434>
    75ec:	aa0003f3 	mov	x19, x0
    75f0:	8b21c380 	add	x0, x28, w1, sxtw
    75f4:	17ffffd1 	b	7538 <__vsnprintf+0x434>
    75f8:	11002034 	add	w20, w1, #0x8
    75fc:	7100029f 	cmp	w20, #0x0
    7600:	5400008d 	b.le	7610 <__vsnprintf+0x50c>
    7604:	91002c13 	add	x19, x0, #0xb
    7608:	927df273 	and	x19, x19, #0xfffffffffffffff8
    760c:	17fffff0 	b	75cc <__vsnprintf+0x4c8>
    7610:	aa0003f3 	mov	x19, x0
    7614:	8b21c380 	add	x0, x28, w1, sxtw
    7618:	17ffffed 	b	75cc <__vsnprintf+0x4c8>
    761c:	37f800c1 	tbnz	w1, #31, 7634 <__vsnprintf+0x530>
    7620:	91002c13 	add	x19, x0, #0xb
    7624:	2a0103f4 	mov	w20, w1
    7628:	927df273 	and	x19, x19, #0xfffffffffffffff8
    762c:	b9800000 	ldrsw	x0, [x0]
    7630:	17ffffc3 	b	753c <__vsnprintf+0x438>
    7634:	11002034 	add	w20, w1, #0x8
    7638:	7100029f 	cmp	w20, #0x0
    763c:	5400008d 	b.le	764c <__vsnprintf+0x548>
    7640:	91002c13 	add	x19, x0, #0xb
    7644:	927df273 	and	x19, x19, #0xfffffffffffffff8
    7648:	17fffff9 	b	762c <__vsnprintf+0x528>
    764c:	aa0003f3 	mov	x19, x0
    7650:	8b21c380 	add	x0, x28, w1, sxtw
    7654:	17fffff6 	b	762c <__vsnprintf+0x528>
/home/zrz0517/study/TEE/RT-TEE/optee_os/lib/libutils/ext/snprintk.c:392
    7658:	36380135 	tbz	w21, #7, 767c <__vsnprintf+0x578>
/home/zrz0517/study/TEE/RT-TEE/optee_os/lib/libutils/ext/snprintk.c:401
    765c:	37f80281 	tbnz	w1, #31, 76ac <__vsnprintf+0x5a8>
    7660:	91003c13 	add	x19, x0, #0xf
    7664:	2a0103f4 	mov	w20, w1
    7668:	927df273 	and	x19, x19, #0xfffffffffffffff8
    766c:	f9400000 	ldr	x0, [x0]
    7670:	93407f41 	sxtw	x1, w26
    7674:	f9000001 	str	x1, [x0]
    7678:	17fffeb7 	b	7154 <__vsnprintf+0x50>
/home/zrz0517/study/TEE/RT-TEE/optee_os/lib/libutils/ext/snprintk.c:394
    767c:	3747ff15 	tbnz	w21, #8, 765c <__vsnprintf+0x558>
/home/zrz0517/study/TEE/RT-TEE/optee_os/lib/libutils/ext/snprintk.c:396
    7680:	374ffef5 	tbnz	w21, #9, 765c <__vsnprintf+0x558>
/home/zrz0517/study/TEE/RT-TEE/optee_os/lib/libutils/ext/snprintk.c:398
    7684:	372ffed5 	tbnz	w21, #5, 765c <__vsnprintf+0x558>
/home/zrz0517/study/TEE/RT-TEE/optee_os/lib/libutils/ext/snprintk.c:400
    7688:	3727feb5 	tbnz	w21, #4, 765c <__vsnprintf+0x558>
/home/zrz0517/study/TEE/RT-TEE/optee_os/lib/libutils/ext/snprintk.c:402
    768c:	36300355 	tbz	w21, #6, 76f4 <__vsnprintf+0x5f0>
/home/zrz0517/study/TEE/RT-TEE/optee_os/lib/libutils/ext/snprintk.c:403
    7690:	37f80201 	tbnz	w1, #31, 76d0 <__vsnprintf+0x5cc>
    7694:	91003c13 	add	x19, x0, #0xf
    7698:	2a0103f4 	mov	w20, w1
    769c:	927df273 	and	x19, x19, #0xfffffffffffffff8
    76a0:	f9400000 	ldr	x0, [x0]
    76a4:	7900001a 	strh	w26, [x0]
    76a8:	17fffeab 	b	7154 <__vsnprintf+0x50>
/home/zrz0517/study/TEE/RT-TEE/optee_os/lib/libutils/ext/snprintk.c:401
    76ac:	11002034 	add	w20, w1, #0x8
    76b0:	7100029f 	cmp	w20, #0x0
    76b4:	5400008d 	b.le	76c4 <__vsnprintf+0x5c0>
    76b8:	91003c13 	add	x19, x0, #0xf
    76bc:	927df273 	and	x19, x19, #0xfffffffffffffff8
    76c0:	17ffffeb 	b	766c <__vsnprintf+0x568>
    76c4:	aa0003f3 	mov	x19, x0
    76c8:	8b21c380 	add	x0, x28, w1, sxtw
    76cc:	17ffffe8 	b	766c <__vsnprintf+0x568>
/home/zrz0517/study/TEE/RT-TEE/optee_os/lib/libutils/ext/snprintk.c:403
    76d0:	11002034 	add	w20, w1, #0x8
    76d4:	7100029f 	cmp	w20, #0x0
    76d8:	5400008d 	b.le	76e8 <__vsnprintf+0x5e4>
    76dc:	91003c13 	add	x19, x0, #0xf
    76e0:	927df273 	and	x19, x19, #0xfffffffffffffff8
    76e4:	17ffffef 	b	76a0 <__vsnprintf+0x59c>
    76e8:	aa0003f3 	mov	x19, x0
    76ec:	8b21c380 	add	x0, x28, w1, sxtw
    76f0:	17ffffec 	b	76a0 <__vsnprintf+0x59c>
/home/zrz0517/study/TEE/RT-TEE/optee_os/lib/libutils/ext/snprintk.c:405
    76f4:	37f800e1 	tbnz	w1, #31, 7710 <__vsnprintf+0x60c>
    76f8:	91003c13 	add	x19, x0, #0xf
    76fc:	2a0103f4 	mov	w20, w1
    7700:	927df273 	and	x19, x19, #0xfffffffffffffff8
    7704:	f9400000 	ldr	x0, [x0]
    7708:	b900001a 	str	w26, [x0]
    770c:	17fffe92 	b	7154 <__vsnprintf+0x50>
    7710:	11002034 	add	w20, w1, #0x8
    7714:	7100029f 	cmp	w20, #0x0
    7718:	5400008d 	b.le	7728 <__vsnprintf+0x624>
    771c:	91003c13 	add	x19, x0, #0xf
    7720:	927df273 	and	x19, x19, #0xfffffffffffffff8
    7724:	17fffff8 	b	7704 <__vsnprintf+0x600>
    7728:	aa0003f3 	mov	x19, x0
    772c:	8b21c380 	add	x0, x28, w1, sxtw
    7730:	17fffff5 	b	7704 <__vsnprintf+0x600>
/home/zrz0517/study/TEE/RT-TEE/optee_os/lib/libutils/ext/snprintk.c:411
    7734:	3747d9d5 	tbnz	w21, #8, 726c <__vsnprintf+0x168>
    7738:	374fd9b5 	tbnz	w21, #9, 726c <__vsnprintf+0x168>
    773c:	372fd995 	tbnz	w21, #5, 726c <__vsnprintf+0x168>
    7740:	3727d975 	tbnz	w21, #4, 726c <__vsnprintf+0x168>
    7744:	36300335 	tbz	w21, #6, 77a8 <__vsnprintf+0x6a4>
    7748:	37f801e1 	tbnz	w1, #31, 7784 <__vsnprintf+0x680>
    774c:	91002c13 	add	x19, x0, #0xb
    7750:	2a0103f4 	mov	w20, w1
    7754:	927df273 	and	x19, x19, #0xfffffffffffffff8
    7758:	79400000 	ldrh	w0, [x0]
    775c:	17fffec9 	b	7280 <__vsnprintf+0x17c>
    7760:	11002034 	add	w20, w1, #0x8
    7764:	7100029f 	cmp	w20, #0x0
    7768:	5400008d 	b.le	7778 <__vsnprintf+0x674>
    776c:	91003c13 	add	x19, x0, #0xf
    7770:	927df273 	and	x19, x19, #0xfffffffffffffff8
    7774:	17fffec2 	b	727c <__vsnprintf+0x178>
    7778:	aa0003f3 	mov	x19, x0
    777c:	8b21c380 	add	x0, x28, w1, sxtw
    7780:	17fffebf 	b	727c <__vsnprintf+0x178>
    7784:	11002034 	add	w20, w1, #0x8
    7788:	7100029f 	cmp	w20, #0x0
    778c:	5400008d 	b.le	779c <__vsnprintf+0x698>
    7790:	91002c13 	add	x19, x0, #0xb
    7794:	927df273 	and	x19, x19, #0xfffffffffffffff8
    7798:	17fffff0 	b	7758 <__vsnprintf+0x654>
    779c:	aa0003f3 	mov	x19, x0
    77a0:	8b21c380 	add	x0, x28, w1, sxtw
    77a4:	17ffffed 	b	7758 <__vsnprintf+0x654>
    77a8:	37f800c1 	tbnz	w1, #31, 77c0 <__vsnprintf+0x6bc>
    77ac:	91002c13 	add	x19, x0, #0xb
    77b0:	2a0103f4 	mov	w20, w1
    77b4:	927df273 	and	x19, x19, #0xfffffffffffffff8
    77b8:	b9400000 	ldr	w0, [x0]
    77bc:	17fffeb1 	b	7280 <__vsnprintf+0x17c>
    77c0:	11002034 	add	w20, w1, #0x8
    77c4:	7100029f 	cmp	w20, #0x0
    77c8:	5400008d 	b.le	77d8 <__vsnprintf+0x6d4>
    77cc:	91002c13 	add	x19, x0, #0xb
    77d0:	927df273 	and	x19, x19, #0xfffffffffffffff8
    77d4:	17fffff9 	b	77b8 <__vsnprintf+0x6b4>
    77d8:	aa0003f3 	mov	x19, x0
    77dc:	8b21c380 	add	x0, x28, w1, sxtw
    77e0:	17fffff6 	b	77b8 <__vsnprintf+0x6b4>
/home/zrz0517/study/TEE/RT-TEE/optee_os/lib/libutils/ext/snprintk.c:415
    77e4:	b940afe2 	ldr	w2, [sp, #172]
    77e8:	34000b82 	cbz	w2, 7958 <__vsnprintf+0x854>
    77ec:	39400122 	ldrb	w2, [x9]
    77f0:	7101545f 	cmp	w2, #0x55
    77f4:	54000b21 	b.ne	7958 <__vsnprintf+0x854>  // b.any
    77f8:	39400522 	ldrb	w2, [x9, #1]
    77fc:	7101b05f 	cmp	w2, #0x6c
    7800:	54000ac1 	b.ne	7958 <__vsnprintf+0x854>  // b.any
/home/zrz0517/study/TEE/RT-TEE/optee_os/lib/libutils/ext/snprintk.c:420
    7804:	91000929 	add	x9, x9, #0x2
/home/zrz0517/study/TEE/RT-TEE/optee_os/lib/libutils/ext/snprintk.c:421
    7808:	37f80961 	tbnz	w1, #31, 7934 <__vsnprintf+0x830>
    780c:	91003c13 	add	x19, x0, #0xf
    7810:	2a0103f4 	mov	w20, w1
    7814:	927df273 	and	x19, x19, #0xfffffffffffffff8
    7818:	f9400000 	ldr	x0, [x0]
uuid2str():
/home/zrz0517/study/TEE/RT-TEE/optee_os/lib/libutils/ext/snprintk.c:223
    781c:	f0000002 	adrp	x2, a000 <__func__.4888+0x13>
    7820:	91281c42 	add	x2, x2, #0xa07
    7824:	a90b27ed 	stp	x13, x9, [sp, #176]
    7828:	39403c01 	ldrb	w1, [x0, #15]
    782c:	79400804 	ldrh	w4, [x0, #4]
    7830:	39402407 	ldrb	w7, [x0, #9]
    7834:	39402006 	ldrb	w6, [x0, #8]
    7838:	79400c05 	ldrh	w5, [x0, #6]
    783c:	b9002be1 	str	w1, [sp, #40]
    7840:	39403801 	ldrb	w1, [x0, #14]
    7844:	b90023e1 	str	w1, [sp, #32]
    7848:	39403401 	ldrb	w1, [x0, #13]
    784c:	b9001be1 	str	w1, [sp, #24]
    7850:	39403001 	ldrb	w1, [x0, #12]
    7854:	b90013e1 	str	w1, [sp, #16]
    7858:	39402c01 	ldrb	w1, [x0, #11]
    785c:	b9000be1 	str	w1, [sp, #8]
    7860:	39402801 	ldrb	w1, [x0, #10]
    7864:	b90003e1 	str	w1, [sp]
    7868:	d28004a1 	mov	x1, #0x25                  	// #37
    786c:	b9400003 	ldr	w3, [x0]
    7870:	aa0d03e0 	mov	x0, x13
    7874:	94000146 	bl	7d8c <snprintk>
    7878:	2a0003e3 	mov	w3, w0
kprintf():
/home/zrz0517/study/TEE/RT-TEE/optee_os/lib/libutils/ext/snprintk.c:425
    787c:	a94b27ed 	ldp	x13, x9, [sp, #176]
/home/zrz0517/study/TEE/RT-TEE/optee_os/lib/libutils/ext/snprintk.c:285
    7880:	52800001 	mov	w1, #0x0                   	// #0
/home/zrz0517/study/TEE/RT-TEE/optee_os/lib/libutils/ext/snprintk.c:424
    7884:	52800002 	mov	w2, #0x0                   	// #0
/home/zrz0517/study/TEE/RT-TEE/optee_os/lib/libutils/ext/snprintk.c:423
    7888:	aa0d03e4 	mov	x4, x13
/home/zrz0517/study/TEE/RT-TEE/optee_os/lib/libutils/ext/snprintk.c:565
    788c:	6b03003f 	cmp	w1, w3
    7890:	1a83a020 	csel	w0, w1, w3, ge  // ge = tcont
/home/zrz0517/study/TEE/RT-TEE/optee_os/lib/libutils/ext/snprintk.c:566
    7894:	34001c82 	cbz	w2, 7c24 <__vsnprintf+0xb20>
/home/zrz0517/study/TEE/RT-TEE/optee_os/lib/libutils/ext/snprintk.c:567
    7898:	11000400 	add	w0, w0, #0x1
/home/zrz0517/study/TEE/RT-TEE/optee_os/lib/libutils/ext/snprintk.c:572
    789c:	6b17001f 	cmp	w0, w23
    78a0:	1a97a005 	csel	w5, w0, w23, ge  // ge = tcont
    78a4:	0b05035a 	add	w26, w26, w5
/home/zrz0517/study/TEE/RT-TEE/optee_os/lib/libutils/ext/snprintk.c:575
    78a8:	52808085 	mov	w5, #0x404                 	// #1028
    78ac:	6a0502a5 	ands	w5, w21, w5
    78b0:	540000a1 	b.ne	78c4 <__vsnprintf+0x7c0>  // b.any
/home/zrz0517/study/TEE/RT-TEE/optee_os/lib/libutils/ext/snprintk.c:576
    78b4:	4b0002e6 	sub	w6, w23, w0
/home/zrz0517/study/TEE/RT-TEE/optee_os/lib/libutils/ext/snprintk.c:578
    78b8:	52800407 	mov	w7, #0x20                  	// #32
/home/zrz0517/study/TEE/RT-TEE/optee_os/lib/libutils/ext/snprintk.c:577
    78bc:	710000df 	cmp	w6, #0x0
    78c0:	54001b8c 	b.gt	7c30 <__vsnprintf+0xb2c>
/home/zrz0517/study/TEE/RT-TEE/optee_os/lib/libutils/ext/snprintk.c:582
    78c4:	34001ca2 	cbz	w2, 7c58 <__vsnprintf+0xb54>
/home/zrz0517/study/TEE/RT-TEE/optee_os/lib/libutils/ext/snprintk.c:583
    78c8:	b5001c1b 	cbnz	x27, 7c48 <__vsnprintf+0xb44>
/home/zrz0517/study/TEE/RT-TEE/optee_os/lib/libutils/ext/snprintk.c:586
    78cc:	d280001b 	mov	x27, #0x0                   	// #0
/home/zrz0517/study/TEE/RT-TEE/optee_os/lib/libutils/ext/snprintk.c:590
    78d0:	711000bf 	cmp	w5, #0x400
    78d4:	540000a1 	b.ne	78e8 <__vsnprintf+0x7e4>  // b.any
/home/zrz0517/study/TEE/RT-TEE/optee_os/lib/libutils/ext/snprintk.c:591
    78d8:	4b0002e2 	sub	w2, w23, w0
/home/zrz0517/study/TEE/RT-TEE/optee_os/lib/libutils/ext/snprintk.c:593
    78dc:	52800605 	mov	w5, #0x30                  	// #48
/home/zrz0517/study/TEE/RT-TEE/optee_os/lib/libutils/ext/snprintk.c:592
    78e0:	7100005f 	cmp	w2, #0x0
    78e4:	54001d8c 	b.gt	7c94 <__vsnprintf+0xb90>
/home/zrz0517/study/TEE/RT-TEE/optee_os/lib/libutils/ext/snprintk.c:597
    78e8:	4b030021 	sub	w1, w1, w3
/home/zrz0517/study/TEE/RT-TEE/optee_os/lib/libutils/ext/snprintk.c:599
    78ec:	52800602 	mov	w2, #0x30                  	// #48
/home/zrz0517/study/TEE/RT-TEE/optee_os/lib/libutils/ext/snprintk.c:598
    78f0:	7100003f 	cmp	w1, #0x0
    78f4:	54001dcc 	b.gt	7cac <__vsnprintf+0xba8>
    78f8:	2a0303e3 	mov	w3, w3
    78fc:	d2800001 	mov	x1, #0x0                   	// #0
/home/zrz0517/study/TEE/RT-TEE/optee_os/lib/libutils/ext/snprintk.c:602
    7900:	eb01007f 	cmp	x3, x1
    7904:	54001e01 	b.ne	7cc4 <__vsnprintf+0xbc0>  // b.any
/home/zrz0517/study/TEE/RT-TEE/optee_os/lib/libutils/ext/snprintk.c:605
    7908:	3617c275 	tbz	w21, #2, 7154 <__vsnprintf+0x50>
/home/zrz0517/study/TEE/RT-TEE/optee_os/lib/libutils/ext/snprintk.c:606
    790c:	4b0002eb 	sub	w11, w23, w0
/home/zrz0517/study/TEE/RT-TEE/optee_os/lib/libutils/ext/snprintk.c:608
    7910:	52800400 	mov	w0, #0x20                  	// #32
/home/zrz0517/study/TEE/RT-TEE/optee_os/lib/libutils/ext/snprintk.c:607
    7914:	7100017f 	cmp	w11, #0x0
    7918:	54ffc1ed 	b.le	7154 <__vsnprintf+0x50>
/home/zrz0517/study/TEE/RT-TEE/optee_os/lib/libutils/ext/snprintk.c:608
    791c:	b400009b 	cbz	x27, 792c <__vsnprintf+0x828>
    7920:	eb1b033f 	cmp	x25, x27
    7924:	54000049 	b.ls	792c <__vsnprintf+0x828>  // b.plast
    7928:	38001760 	strb	w0, [x27], #1
    792c:	5100056b 	sub	w11, w11, #0x1
    7930:	17fffff9 	b	7914 <__vsnprintf+0x810>
/home/zrz0517/study/TEE/RT-TEE/optee_os/lib/libutils/ext/snprintk.c:421
    7934:	11002034 	add	w20, w1, #0x8
    7938:	7100029f 	cmp	w20, #0x0
    793c:	5400008d 	b.le	794c <__vsnprintf+0x848>
    7940:	91003c13 	add	x19, x0, #0xf
    7944:	927df273 	and	x19, x19, #0xfffffffffffffff8
    7948:	17ffffb4 	b	7818 <__vsnprintf+0x714>
    794c:	aa0003f3 	mov	x19, x0
    7950:	8b21c380 	add	x0, x28, w1, sxtw
    7954:	17ffffb1 	b	7818 <__vsnprintf+0x714>
/home/zrz0517/study/TEE/RT-TEE/optee_os/lib/libutils/ext/snprintk.c:435
    7958:	37f80261 	tbnz	w1, #31, 79a4 <__vsnprintf+0x8a0>
    795c:	91003c13 	add	x19, x0, #0xf
    7960:	2a0103f4 	mov	w20, w1
    7964:	927df273 	and	x19, x19, #0xfffffffffffffff8
    7968:	f9400000 	ldr	x0, [x0]
/home/zrz0517/study/TEE/RT-TEE/optee_os/lib/libutils/ext/snprintk.c:437
    796c:	f0000016 	adrp	x22, a000 <__func__.4888+0x13>
/home/zrz0517/study/TEE/RT-TEE/optee_os/lib/libutils/ext/snprintk.c:438
    7970:	321f02b5 	orr	w21, w21, #0x2
/home/zrz0517/study/TEE/RT-TEE/optee_os/lib/libutils/ext/snprintk.c:437
    7974:	91277ad6 	add	x22, x22, #0x9de
/home/zrz0517/study/TEE/RT-TEE/optee_os/lib/libutils/ext/snprintk.c:439
    7978:	52800f18 	mov	w24, #0x78                  	// #120
/home/zrz0517/study/TEE/RT-TEE/optee_os/lib/libutils/ext/snprintk.c:488
    797c:	52800002 	mov	w2, #0x0                   	// #0
    7980:	3100047f 	cmn	w3, #0x1
    7984:	54001201 	b.ne	7bc4 <__vsnprintf+0xac0>  // b.any
    7988:	910095a4 	add	x4, x13, #0x25
/home/zrz0517/study/TEE/RT-TEE/optee_os/lib/libutils/ext/snprintk.c:525
    798c:	92400c01 	and	x1, x0, #0xf
/home/zrz0517/study/TEE/RT-TEE/optee_os/lib/libutils/ext/snprintk.c:526
    7990:	d344fc00 	lsr	x0, x0, #4
/home/zrz0517/study/TEE/RT-TEE/optee_os/lib/libutils/ext/snprintk.c:525
    7994:	38616ac1 	ldrb	w1, [x22, x1]
    7998:	381ffc81 	strb	w1, [x4, #-1]!
/home/zrz0517/study/TEE/RT-TEE/optee_os/lib/libutils/ext/snprintk.c:527
    799c:	b5ffff80 	cbnz	x0, 798c <__vsnprintf+0x888>
    79a0:	17fffefe 	b	7598 <__vsnprintf+0x494>
/home/zrz0517/study/TEE/RT-TEE/optee_os/lib/libutils/ext/snprintk.c:435
    79a4:	11002034 	add	w20, w1, #0x8
    79a8:	7100029f 	cmp	w20, #0x0
    79ac:	5400008d 	b.le	79bc <__vsnprintf+0x8b8>
    79b0:	91003c13 	add	x19, x0, #0xf
    79b4:	927df273 	and	x19, x19, #0xfffffffffffffff8
    79b8:	17ffffec 	b	7968 <__vsnprintf+0x864>
    79bc:	aa0003f3 	mov	x19, x0
    79c0:	8b21c380 	add	x0, x28, w1, sxtw
    79c4:	17ffffe9 	b	7968 <__vsnprintf+0x864>
/home/zrz0517/study/TEE/RT-TEE/optee_os/lib/libutils/ext/snprintk.c:442
    79c8:	11002034 	add	w20, w1, #0x8
    79cc:	7100029f 	cmp	w20, #0x0
    79d0:	5400008d 	b.le	79e0 <__vsnprintf+0x8dc>
    79d4:	91003c13 	add	x19, x0, #0xf
    79d8:	927df273 	and	x19, x19, #0xfffffffffffffff8
    79dc:	17fffe4e 	b	7314 <__vsnprintf+0x210>
    79e0:	aa0003f3 	mov	x19, x0
    79e4:	8b21c380 	add	x0, x28, w1, sxtw
    79e8:	17fffe4b 	b	7314 <__vsnprintf+0x210>
/home/zrz0517/study/TEE/RT-TEE/optee_os/lib/libutils/ext/snprintk.c:460
    79ec:	aa0403e0 	mov	x0, x4
    79f0:	a90b27e4 	stp	x4, x9, [sp, #176]
    79f4:	f90063ed 	str	x13, [sp, #192]
    79f8:	97fffdbc 	bl	70e8 <strlen>
/home/zrz0517/study/TEE/RT-TEE/optee_os/lib/libutils/ext/snprintk.c:285
    79fc:	52800001 	mov	w1, #0x0                   	// #0
/home/zrz0517/study/TEE/RT-TEE/optee_os/lib/libutils/ext/snprintk.c:460
    7a00:	2a0003e3 	mov	w3, w0
/home/zrz0517/study/TEE/RT-TEE/optee_os/lib/libutils/ext/snprintk.c:461
    7a04:	52800002 	mov	w2, #0x0                   	// #0
    7a08:	a94b27e4 	ldp	x4, x9, [sp, #176]
    7a0c:	f94063ed 	ldr	x13, [sp, #192]
    7a10:	17ffff9f 	b	788c <__vsnprintf+0x788>
/home/zrz0517/study/TEE/RT-TEE/optee_os/lib/libutils/ext/snprintk.c:464
    7a14:	321c02b5 	orr	w21, w21, #0x10
    7a18:	17fffe5c 	b	7388 <__vsnprintf+0x284>
/home/zrz0517/study/TEE/RT-TEE/optee_os/lib/libutils/ext/snprintk.c:467
    7a1c:	3747cb95 	tbnz	w21, #8, 738c <__vsnprintf+0x288>
    7a20:	374fcb75 	tbnz	w21, #9, 738c <__vsnprintf+0x288>
    7a24:	372fcb55 	tbnz	w21, #5, 738c <__vsnprintf+0x288>
    7a28:	3727cb35 	tbnz	w21, #4, 738c <__vsnprintf+0x288>
    7a2c:	36300335 	tbz	w21, #6, 7a90 <__vsnprintf+0x98c>
    7a30:	37f801e1 	tbnz	w1, #31, 7a6c <__vsnprintf+0x968>
    7a34:	91002c13 	add	x19, x0, #0xb
    7a38:	2a0103f4 	mov	w20, w1
    7a3c:	927df273 	and	x19, x19, #0xfffffffffffffff8
    7a40:	79400000 	ldrh	w0, [x0]
    7a44:	17fffe57 	b	73a0 <__vsnprintf+0x29c>
    7a48:	11002034 	add	w20, w1, #0x8
    7a4c:	7100029f 	cmp	w20, #0x0
    7a50:	5400008d 	b.le	7a60 <__vsnprintf+0x95c>
    7a54:	91003c13 	add	x19, x0, #0xf
    7a58:	927df273 	and	x19, x19, #0xfffffffffffffff8
    7a5c:	17fffe50 	b	739c <__vsnprintf+0x298>
    7a60:	aa0003f3 	mov	x19, x0
    7a64:	8b21c380 	add	x0, x28, w1, sxtw
    7a68:	17fffe4d 	b	739c <__vsnprintf+0x298>
    7a6c:	11002034 	add	w20, w1, #0x8
    7a70:	7100029f 	cmp	w20, #0x0
    7a74:	5400008d 	b.le	7a84 <__vsnprintf+0x980>
    7a78:	91002c13 	add	x19, x0, #0xb
    7a7c:	927df273 	and	x19, x19, #0xfffffffffffffff8
    7a80:	17fffff0 	b	7a40 <__vsnprintf+0x93c>
    7a84:	aa0003f3 	mov	x19, x0
    7a88:	8b21c380 	add	x0, x28, w1, sxtw
    7a8c:	17ffffed 	b	7a40 <__vsnprintf+0x93c>
    7a90:	37f800c1 	tbnz	w1, #31, 7aa8 <__vsnprintf+0x9a4>
    7a94:	91002c13 	add	x19, x0, #0xb
    7a98:	2a0103f4 	mov	w20, w1
    7a9c:	927df273 	and	x19, x19, #0xfffffffffffffff8
    7aa0:	b9400000 	ldr	w0, [x0]
    7aa4:	17fffe3f 	b	73a0 <__vsnprintf+0x29c>
    7aa8:	11002034 	add	w20, w1, #0x8
    7aac:	7100029f 	cmp	w20, #0x0
    7ab0:	5400008d 	b.le	7ac0 <__vsnprintf+0x9bc>
    7ab4:	91002c13 	add	x19, x0, #0xb
    7ab8:	927df273 	and	x19, x19, #0xfffffffffffffff8
    7abc:	17fffff9 	b	7aa0 <__vsnprintf+0x99c>
    7ac0:	aa0003f3 	mov	x19, x0
    7ac4:	8b21c380 	add	x0, x28, w1, sxtw
    7ac8:	17fffff6 	b	7aa0 <__vsnprintf+0x99c>
/home/zrz0517/study/TEE/RT-TEE/optee_os/lib/libutils/ext/snprintk.c:471
    7acc:	f0000016 	adrp	x22, a000 <__func__.4888+0x13>
    7ad0:	91277ad6 	add	x22, x22, #0x9de
    7ad4:	910046d6 	add	x22, x22, #0x11
/home/zrz0517/study/TEE/RT-TEE/optee_os/lib/libutils/ext/snprintk.c:475
    7ad8:	363801f5 	tbz	w21, #7, 7b14 <__vsnprintf+0xa10>
    7adc:	37f80321 	tbnz	w1, #31, 7b40 <__vsnprintf+0xa3c>
    7ae0:	91003c13 	add	x19, x0, #0xf
    7ae4:	2a0103f4 	mov	w20, w1
    7ae8:	927df273 	and	x19, x19, #0xfffffffffffffff8
    7aec:	f9400000 	ldr	x0, [x0]
/home/zrz0517/study/TEE/RT-TEE/optee_os/lib/libutils/ext/snprintk.c:478
    7af0:	3607f475 	tbz	w21, #0, 797c <__vsnprintf+0x878>
    7af4:	b4fff440 	cbz	x0, 797c <__vsnprintf+0x878>
/home/zrz0517/study/TEE/RT-TEE/optee_os/lib/libutils/ext/snprintk.c:479
    7af8:	321f02b5 	orr	w21, w21, #0x2
/home/zrz0517/study/TEE/RT-TEE/optee_os/lib/libutils/ext/snprintk.c:476
    7afc:	52800041 	mov	w1, #0x2                   	// #2
/home/zrz0517/study/TEE/RT-TEE/optee_os/lib/libutils/ext/snprintk.c:482
    7b00:	52800002 	mov	w2, #0x0                   	// #0
    7b04:	17fffe92 	b	754c <__vsnprintf+0x448>
/home/zrz0517/study/TEE/RT-TEE/optee_os/lib/libutils/ext/snprintk.c:474
    7b08:	f0000016 	adrp	x22, a000 <__func__.4888+0x13>
    7b0c:	91277ad6 	add	x22, x22, #0x9de
    7b10:	17fffff2 	b	7ad8 <__vsnprintf+0x9d4>
/home/zrz0517/study/TEE/RT-TEE/optee_os/lib/libutils/ext/snprintk.c:475
    7b14:	3747fe55 	tbnz	w21, #8, 7adc <__vsnprintf+0x9d8>
    7b18:	374ffe35 	tbnz	w21, #9, 7adc <__vsnprintf+0x9d8>
    7b1c:	372ffe15 	tbnz	w21, #5, 7adc <__vsnprintf+0x9d8>
    7b20:	3727fdf5 	tbnz	w21, #4, 7adc <__vsnprintf+0x9d8>
    7b24:	36300335 	tbz	w21, #6, 7b88 <__vsnprintf+0xa84>
    7b28:	37f801e1 	tbnz	w1, #31, 7b64 <__vsnprintf+0xa60>
    7b2c:	91002c13 	add	x19, x0, #0xb
    7b30:	2a0103f4 	mov	w20, w1
    7b34:	927df273 	and	x19, x19, #0xfffffffffffffff8
    7b38:	79400000 	ldrh	w0, [x0]
    7b3c:	17ffffed 	b	7af0 <__vsnprintf+0x9ec>
    7b40:	11002034 	add	w20, w1, #0x8
    7b44:	7100029f 	cmp	w20, #0x0
    7b48:	5400008d 	b.le	7b58 <__vsnprintf+0xa54>
    7b4c:	91003c13 	add	x19, x0, #0xf
    7b50:	927df273 	and	x19, x19, #0xfffffffffffffff8
    7b54:	17ffffe6 	b	7aec <__vsnprintf+0x9e8>
    7b58:	aa0003f3 	mov	x19, x0
    7b5c:	8b21c380 	add	x0, x28, w1, sxtw
    7b60:	17ffffe3 	b	7aec <__vsnprintf+0x9e8>
    7b64:	11002034 	add	w20, w1, #0x8
    7b68:	7100029f 	cmp	w20, #0x0
    7b6c:	5400008d 	b.le	7b7c <__vsnprintf+0xa78>
    7b70:	91002c13 	add	x19, x0, #0xb
    7b74:	927df273 	and	x19, x19, #0xfffffffffffffff8
    7b78:	17fffff0 	b	7b38 <__vsnprintf+0xa34>
    7b7c:	aa0003f3 	mov	x19, x0
    7b80:	8b21c380 	add	x0, x28, w1, sxtw
    7b84:	17ffffed 	b	7b38 <__vsnprintf+0xa34>
    7b88:	37f800c1 	tbnz	w1, #31, 7ba0 <__vsnprintf+0xa9c>
    7b8c:	91002c13 	add	x19, x0, #0xb
    7b90:	2a0103f4 	mov	w20, w1
    7b94:	927df273 	and	x19, x19, #0xfffffffffffffff8
    7b98:	b9400000 	ldr	w0, [x0]
    7b9c:	17ffffd5 	b	7af0 <__vsnprintf+0x9ec>
    7ba0:	11002034 	add	w20, w1, #0x8
    7ba4:	7100029f 	cmp	w20, #0x0
    7ba8:	5400008d 	b.le	7bb8 <__vsnprintf+0xab4>
    7bac:	91002c13 	add	x19, x0, #0xb
    7bb0:	927df273 	and	x19, x19, #0xfffffffffffffff8
    7bb4:	17fffff9 	b	7b98 <__vsnprintf+0xa94>
    7bb8:	aa0003f3 	mov	x19, x0
    7bbc:	8b21c380 	add	x0, x28, w1, sxtw
    7bc0:	17fffff6 	b	7b98 <__vsnprintf+0xa94>
/home/zrz0517/study/TEE/RT-TEE/optee_os/lib/libutils/ext/snprintk.c:488
    7bc4:	52800041 	mov	w1, #0x2                   	// #2
/home/zrz0517/study/TEE/RT-TEE/optee_os/lib/libutils/ext/snprintk.c:497
    7bc8:	f100001f 	cmp	x0, #0x0
/home/zrz0517/study/TEE/RT-TEE/optee_os/lib/libutils/ext/snprintk.c:489
    7bcc:	12157ab5 	and	w21, w21, #0xfffffbff
/home/zrz0517/study/TEE/RT-TEE/optee_os/lib/libutils/ext/snprintk.c:497
    7bd0:	7a400860 	ccmp	w3, #0x0, #0x0, eq  // eq = none
    7bd4:	54ffcc01 	b.ne	7554 <__vsnprintf+0x450>  // b.any
    7bd8:	52800003 	mov	w3, #0x0                   	// #0
/home/zrz0517/study/TEE/RT-TEE/optee_os/lib/libutils/ext/snprintk.c:496
    7bdc:	910095a4 	add	x4, x13, #0x25
    7be0:	17fffe6e 	b	7598 <__vsnprintf+0x494>
/home/zrz0517/study/TEE/RT-TEE/optee_os/lib/libutils/ext/snprintk.c:488
    7be4:	52800021 	mov	w1, #0x1                   	// #1
    7be8:	17fffff8 	b	7bc8 <__vsnprintf+0xac4>
/home/zrz0517/study/TEE/RT-TEE/optee_os/lib/libutils/ext/snprintk.c:508
    7bec:	aa0403e1 	mov	x1, x4
    7bf0:	17fffe5e 	b	7568 <__vsnprintf+0x464>
/home/zrz0517/study/TEE/RT-TEE/optee_os/lib/libutils/ext/snprintk.c:517
    7bf4:	9ac50806 	udiv	x6, x0, x5
    7bf8:	9b0580c0 	msub	x0, x6, x5, x0
    7bfc:	1100c000 	add	w0, w0, #0x30
    7c00:	381ff020 	sturb	w0, [x1, #-1]
/home/zrz0517/study/TEE/RT-TEE/optee_os/lib/libutils/ext/snprintk.c:518
    7c04:	aa0603e0 	mov	x0, x6
    7c08:	aa0403e1 	mov	x1, x4
    7c0c:	d1000424 	sub	x4, x1, #0x1
/home/zrz0517/study/TEE/RT-TEE/optee_os/lib/libutils/ext/snprintk.c:516
    7c10:	f100241f 	cmp	x0, #0x9
    7c14:	54ffff08 	b.hi	7bf4 <__vsnprintf+0xaf0>  // b.pmore
/home/zrz0517/study/TEE/RT-TEE/optee_os/lib/libutils/ext/snprintk.c:520
    7c18:	1100c000 	add	w0, w0, #0x30
    7c1c:	381ff020 	sturb	w0, [x1, #-1]
/home/zrz0517/study/TEE/RT-TEE/optee_os/lib/libutils/ext/snprintk.c:521
    7c20:	17fffe5e 	b	7598 <__vsnprintf+0x494>
/home/zrz0517/study/TEE/RT-TEE/optee_os/lib/libutils/ext/snprintk.c:568
    7c24:	360fe3d5 	tbz	w21, #1, 789c <__vsnprintf+0x798>
/home/zrz0517/study/TEE/RT-TEE/optee_os/lib/libutils/ext/snprintk.c:569
    7c28:	11000800 	add	w0, w0, #0x2
    7c2c:	17ffff1c 	b	789c <__vsnprintf+0x798>
/home/zrz0517/study/TEE/RT-TEE/optee_os/lib/libutils/ext/snprintk.c:578
    7c30:	b400009b 	cbz	x27, 7c40 <__vsnprintf+0xb3c>
    7c34:	eb1b033f 	cmp	x25, x27
    7c38:	54000049 	b.ls	7c40 <__vsnprintf+0xb3c>  // b.plast
    7c3c:	38001767 	strb	w7, [x27], #1
    7c40:	510004c6 	sub	w6, w6, #0x1
    7c44:	17ffff1e 	b	78bc <__vsnprintf+0x7b8>
/home/zrz0517/study/TEE/RT-TEE/optee_os/lib/libutils/ext/snprintk.c:583
    7c48:	eb1b033f 	cmp	x25, x27
    7c4c:	54ffe429 	b.ls	78d0 <__vsnprintf+0x7cc>  // b.plast
    7c50:	38001762 	strb	w2, [x27], #1
    7c54:	17ffff1f 	b	78d0 <__vsnprintf+0x7cc>
/home/zrz0517/study/TEE/RT-TEE/optee_os/lib/libutils/ext/snprintk.c:584
    7c58:	360fe3d5 	tbz	w21, #1, 78d0 <__vsnprintf+0x7cc>
/home/zrz0517/study/TEE/RT-TEE/optee_os/lib/libutils/ext/snprintk.c:585
    7c5c:	b4ffe39b 	cbz	x27, 78cc <__vsnprintf+0x7c8>
    7c60:	eb1b033f 	cmp	x25, x27
    7c64:	54ffe369 	b.ls	78d0 <__vsnprintf+0x7cc>  // b.plast
    7c68:	aa1b03e2 	mov	x2, x27
    7c6c:	52800606 	mov	w6, #0x30                  	// #48
    7c70:	38001446 	strb	w6, [x2], #1
/home/zrz0517/study/TEE/RT-TEE/optee_os/lib/libutils/ext/snprintk.c:586
    7c74:	b4ffe2c2 	cbz	x2, 78cc <__vsnprintf+0x7c8>
    7c78:	eb02033f 	cmp	x25, x2
    7c7c:	54000089 	b.ls	7c8c <__vsnprintf+0xb88>  // b.plast
    7c80:	91000b7b 	add	x27, x27, #0x2
    7c84:	381ff378 	sturb	w24, [x27, #-1]
    7c88:	17ffff12 	b	78d0 <__vsnprintf+0x7cc>
    7c8c:	aa0203fb 	mov	x27, x2
    7c90:	17ffff10 	b	78d0 <__vsnprintf+0x7cc>
/home/zrz0517/study/TEE/RT-TEE/optee_os/lib/libutils/ext/snprintk.c:593
    7c94:	b400009b 	cbz	x27, 7ca4 <__vsnprintf+0xba0>
    7c98:	eb1b033f 	cmp	x25, x27
    7c9c:	54000049 	b.ls	7ca4 <__vsnprintf+0xba0>  // b.plast
    7ca0:	38001765 	strb	w5, [x27], #1
    7ca4:	51000442 	sub	w2, w2, #0x1
    7ca8:	17ffff0e 	b	78e0 <__vsnprintf+0x7dc>
/home/zrz0517/study/TEE/RT-TEE/optee_os/lib/libutils/ext/snprintk.c:599
    7cac:	b400009b 	cbz	x27, 7cbc <__vsnprintf+0xbb8>
    7cb0:	eb1b033f 	cmp	x25, x27
    7cb4:	54000049 	b.ls	7cbc <__vsnprintf+0xbb8>  // b.plast
    7cb8:	38001762 	strb	w2, [x27], #1
    7cbc:	51000421 	sub	w1, w1, #0x1
    7cc0:	17ffff0c 	b	78f0 <__vsnprintf+0x7ec>
/home/zrz0517/study/TEE/RT-TEE/optee_os/lib/libutils/ext/snprintk.c:603
    7cc4:	b40000bb 	cbz	x27, 7cd8 <__vsnprintf+0xbd4>
    7cc8:	eb1b033f 	cmp	x25, x27
    7ccc:	54000069 	b.ls	7cd8 <__vsnprintf+0xbd4>  // b.plast
    7cd0:	38616882 	ldrb	w2, [x4, x1]
    7cd4:	38001762 	strb	w2, [x27], #1
    7cd8:	91000421 	add	x1, x1, #0x1
    7cdc:	17ffff09 	b	7900 <__vsnprintf+0x7fc>
__vsnprintf():
/home/zrz0517/study/TEE/RT-TEE/optee_os/lib/libutils/ext/snprintk.c:143
    7ce0:	f9404fe0 	ldr	x0, [sp, #152]
    7ce4:	f100001f 	cmp	x0, #0x0
    7ce8:	f94053e0 	ldr	x0, [sp, #160]
    7cec:	fa401804 	ccmp	x0, #0x0, #0x4, ne  // ne = any
    7cf0:	540000c0 	b.eq	7d08 <__vsnprintf+0xc04>  // b.none
/home/zrz0517/study/TEE/RT-TEE/optee_os/lib/libutils/ext/snprintk.c:145
    7cf4:	f94053e1 	ldr	x1, [sp, #160]
    7cf8:	93407f40 	sxtw	x0, w26
    7cfc:	eb01001f 	cmp	x0, x1
    7d00:	54000163 	b.cc	7d2c <__vsnprintf+0xc28>  // b.lo, b.ul, b.last
/home/zrz0517/study/TEE/RT-TEE/optee_os/lib/libutils/ext/snprintk.c:146
    7d04:	381ff33f 	sturb	wzr, [x25, #-1]
/home/zrz0517/study/TEE/RT-TEE/optee_os/lib/libutils/ext/snprintk.c:151
    7d08:	2a1a03e0 	mov	w0, w26
    7d0c:	a9437bfd 	ldp	x29, x30, [sp, #48]
    7d10:	a94453f3 	ldp	x19, x20, [sp, #64]
    7d14:	a9455bf5 	ldp	x21, x22, [sp, #80]
    7d18:	a94663f7 	ldp	x23, x24, [sp, #96]
    7d1c:	a9476bf9 	ldp	x25, x26, [sp, #112]
    7d20:	a94873fb 	ldp	x27, x28, [sp, #128]
    7d24:	910403ff 	add	sp, sp, #0x100
    7d28:	d65f03c0 	ret
/home/zrz0517/study/TEE/RT-TEE/optee_os/lib/libutils/ext/snprintk.c:148
    7d2c:	f9404fe1 	ldr	x1, [sp, #152]
    7d30:	3820683f 	strb	wzr, [x1, x0]
/home/zrz0517/study/TEE/RT-TEE/optee_os/lib/libutils/ext/snprintk.c:150
    7d34:	17fffff5 	b	7d08 <__vsnprintf+0xc04>

0000000000007d38 <vsnprintk>:
vsnprintk():
/home/zrz0517/study/TEE/RT-TEE/optee_os/lib/libutils/ext/snprintk.c:129
    7d38:	a9bb7bfd 	stp	x29, x30, [sp, #-80]!
    7d3c:	910003fd 	mov	x29, sp
    7d40:	a90153f3 	stp	x19, x20, [sp, #16]
    7d44:	aa0003f3 	mov	x19, x0
    7d48:	aa0103f4 	mov	x20, x1
/home/zrz0517/study/TEE/RT-TEE/optee_os/lib/libutils/ext/snprintk.c:130
    7d4c:	9100c3e0 	add	x0, sp, #0x30
    7d50:	aa0303e1 	mov	x1, x3
/home/zrz0517/study/TEE/RT-TEE/optee_os/lib/libutils/ext/snprintk.c:129
    7d54:	f90013f5 	str	x21, [sp, #32]
    7d58:	aa0203f5 	mov	x21, x2
/home/zrz0517/study/TEE/RT-TEE/optee_os/lib/libutils/ext/snprintk.c:130
    7d5c:	d2800402 	mov	x2, #0x20                  	// #32
    7d60:	97fffcbc 	bl	7050 <memcpy>
    7d64:	aa1503e2 	mov	x2, x21
    7d68:	aa0003e3 	mov	x3, x0
    7d6c:	aa1403e1 	mov	x1, x20
    7d70:	52800024 	mov	w4, #0x1                   	// #1
    7d74:	aa1303e0 	mov	x0, x19
    7d78:	97fffce3 	bl	7104 <__vsnprintf>
/home/zrz0517/study/TEE/RT-TEE/optee_os/lib/libutils/ext/snprintk.c:131
    7d7c:	a94153f3 	ldp	x19, x20, [sp, #16]
    7d80:	f94013f5 	ldr	x21, [sp, #32]
    7d84:	a8c57bfd 	ldp	x29, x30, [sp], #80
    7d88:	d65f03c0 	ret

0000000000007d8c <snprintk>:
snprintk():
/home/zrz0517/study/TEE/RT-TEE/optee_os/lib/libutils/ext/snprintk.c:112
    7d8c:	a9b07bfd 	stp	x29, x30, [sp, #-256]!
    7d90:	910003fd 	mov	x29, sp
    7d94:	a90d93e3 	stp	x3, x4, [sp, #216]
/home/zrz0517/study/TEE/RT-TEE/optee_os/lib/libutils/ext/snprintk.c:116
    7d98:	910403e3 	add	x3, sp, #0x100
    7d9c:	a9030fe3 	stp	x3, x3, [sp, #48]
    7da0:	910343e3 	add	x3, sp, #0xd0
    7da4:	f90023e3 	str	x3, [sp, #64]
    7da8:	128004e3 	mov	w3, #0xffffffd8            	// #-40
    7dac:	b9004be3 	str	w3, [sp, #72]
    7db0:	12800fe3 	mov	w3, #0xffffff80            	// #-128
    7db4:	b9004fe3 	str	w3, [sp, #76]
/home/zrz0517/study/TEE/RT-TEE/optee_os/lib/libutils/ext/snprintk.c:117
    7db8:	910043e3 	add	x3, sp, #0x10
/home/zrz0517/study/TEE/RT-TEE/optee_os/lib/libutils/ext/snprintk.c:112
    7dbc:	a90e9be5 	stp	x5, x6, [sp, #232]
/home/zrz0517/study/TEE/RT-TEE/optee_os/lib/libutils/ext/snprintk.c:117
    7dc0:	a94317e4 	ldp	x4, x5, [sp, #48]
    7dc4:	a90117e4 	stp	x4, x5, [sp, #16]
    7dc8:	a94417e4 	ldp	x4, x5, [sp, #64]
    7dcc:	a90217e4 	stp	x4, x5, [sp, #32]
/home/zrz0517/study/TEE/RT-TEE/optee_os/lib/libutils/ext/snprintk.c:112
    7dd0:	3d8017e0 	str	q0, [sp, #80]
    7dd4:	3d801be1 	str	q1, [sp, #96]
    7dd8:	3d801fe2 	str	q2, [sp, #112]
    7ddc:	3d8023e3 	str	q3, [sp, #128]
    7de0:	3d8027e4 	str	q4, [sp, #144]
    7de4:	3d802be5 	str	q5, [sp, #160]
    7de8:	3d802fe6 	str	q6, [sp, #176]
    7dec:	3d8033e7 	str	q7, [sp, #192]
    7df0:	f9007fe7 	str	x7, [sp, #248]
/home/zrz0517/study/TEE/RT-TEE/optee_os/lib/libutils/ext/snprintk.c:117
    7df4:	97ffffd1 	bl	7d38 <vsnprintk>
/home/zrz0517/study/TEE/RT-TEE/optee_os/lib/libutils/ext/snprintk.c:121
    7df8:	a8d07bfd 	ldp	x29, x30, [sp], #256
    7dfc:	d65f03c0 	ret

0000000000007e00 <trace_set_level>:
trace_set_level():
/home/zrz0517/study/TEE/RT-TEE/optee_os/lib/libutils/ext/trace.c:29
    7e00:	7100141f 	cmp	w0, #0x5
    7e04:	52800081 	mov	w1, #0x4                   	// #4
    7e08:	1a813000 	csel	w0, w0, w1, cc  // cc = lo, ul, last
    7e0c:	f0000001 	adrp	x1, a000 <__func__.4888+0x13>
    7e10:	f946c421 	ldr	x1, [x1, #3464]
    7e14:	b9000020 	str	w0, [x1]
/home/zrz0517/study/TEE/RT-TEE/optee_os/lib/libutils/ext/trace.c:30
    7e18:	d65f03c0 	ret

0000000000007e1c <trace_get_level>:
trace_get_level():
/home/zrz0517/study/TEE/RT-TEE/optee_os/lib/libutils/ext/trace.c:34
    7e1c:	f0000000 	adrp	x0, a000 <__func__.4888+0x13>
/home/zrz0517/study/TEE/RT-TEE/optee_os/lib/libutils/ext/trace.c:35
    7e20:	f946c400 	ldr	x0, [x0, #3464]
    7e24:	b9400000 	ldr	w0, [x0]
    7e28:	d65f03c0 	ret

0000000000007e2c <trace_printf>:
trace_printf():
/home/zrz0517/study/TEE/RT-TEE/optee_os/lib/libutils/ext/trace.c:97
    7e2c:	d108c3ff 	sub	sp, sp, #0x230
    7e30:	a9007bfd 	stp	x29, x30, [sp]
    7e34:	910003fd 	mov	x29, sp
    7e38:	f9010fe5 	str	x5, [sp, #536]
    7e3c:	910803e5 	add	x5, sp, #0x200
    7e40:	a90153f3 	stp	x19, x20, [sp, #16]
    7e44:	a9025bf5 	stp	x21, x22, [sp, #32]
    7e48:	a90363f7 	stp	x23, x24, [sp, #48]
/home/zrz0517/study/TEE/RT-TEE/optee_os/lib/libutils/ext/trace.c:103
    7e4c:	72001c77 	ands	w23, w3, #0xff
/home/zrz0517/study/TEE/RT-TEE/optee_os/lib/libutils/ext/trace.c:97
    7e50:	a9046bf9 	stp	x25, x26, [sp, #64]
    7e54:	3d8067e0 	str	q0, [sp, #400]
    7e58:	3d806be1 	str	q1, [sp, #416]
    7e5c:	3d806fe2 	str	q2, [sp, #432]
    7e60:	3d8073e3 	str	q3, [sp, #448]
    7e64:	3d8077e4 	str	q4, [sp, #464]
    7e68:	3d807be5 	str	q5, [sp, #480]
    7e6c:	3d807fe6 	str	q6, [sp, #496]
    7e70:	f90113e6 	str	x6, [sp, #544]
    7e74:	f90117e7 	str	x7, [sp, #552]
    7e78:	3d8000a7 	str	q7, [x5]
/home/zrz0517/study/TEE/RT-TEE/optee_os/lib/libutils/ext/trace.c:103
    7e7c:	54000cc0 	b.eq	8014 <trace_printf+0x1e8>  // b.none
/home/zrz0517/study/TEE/RT-TEE/optee_os/lib/libutils/ext/trace.c:103 (discriminator 1)
    7e80:	f0000003 	adrp	x3, a000 <__func__.4888+0x13>
    7e84:	f946c463 	ldr	x3, [x3, #3464]
    7e88:	b9400063 	ldr	w3, [x3]
    7e8c:	6b02007f 	cmp	w3, w2
    7e90:	54000b4b 	b.lt	7ff8 <trace_printf+0x1cc>  // b.tstop
trace_level_to_string():
/home/zrz0517/study/TEE/RT-TEE/optee_os/lib/libutils/ext/trace.c:52
    7e94:	7100105f 	cmp	w2, #0x4
/home/zrz0517/study/TEE/RT-TEE/optee_os/lib/libutils/ext/trace.c:55
    7e98:	f0000003 	adrp	x3, a000 <__func__.4888+0x13>
/home/zrz0517/study/TEE/RT-TEE/optee_os/lib/libutils/ext/trace.c:52
    7e9c:	1a9f9045 	csel	w5, w2, wzr, ls  // ls = plast
/home/zrz0517/study/TEE/RT-TEE/optee_os/lib/libutils/ext/trace.c:55
    7ea0:	9128e063 	add	x3, x3, #0xa38
    7ea4:	3865c863 	ldrb	w3, [x3, w5, sxtw]
trace_printf():
/home/zrz0517/study/TEE/RT-TEE/optee_os/lib/libutils/ext/trace.c:107
    7ea8:	910243f4 	add	x20, sp, #0x90
    7eac:	2a0203f8 	mov	w24, w2
    7eb0:	2a0103fa 	mov	w26, w1
    7eb4:	aa0003f6 	mov	x22, x0
    7eb8:	f0000002 	adrp	x2, a000 <__func__.4888+0x13>
    7ebc:	aa0403f9 	mov	x25, x4
    7ec0:	9128f442 	add	x2, x2, #0xa3d
    7ec4:	d2802001 	mov	x1, #0x100                 	// #256
    7ec8:	aa1403e0 	mov	x0, x20
    7ecc:	97ffffb0 	bl	7d8c <snprintk>
/home/zrz0517/study/TEE/RT-TEE/optee_os/lib/libutils/ext/trace.c:109
    7ed0:	37f80940 	tbnz	w0, #31, 7ff8 <trace_printf+0x1cc>
/home/zrz0517/study/TEE/RT-TEE/optee_os/lib/libutils/ext/trace.c:114
    7ed4:	f0000003 	adrp	x3, a000 <__func__.4888+0x13>
/home/zrz0517/study/TEE/RT-TEE/optee_os/lib/libutils/ext/trace.c:111
    7ed8:	93407c15 	sxtw	x21, w0
/home/zrz0517/study/TEE/RT-TEE/optee_os/lib/libutils/ext/trace.c:114
    7edc:	d2802013 	mov	x19, #0x100                 	// #256
    7ee0:	f0000002 	adrp	x2, a000 <__func__.4888+0x13>
    7ee4:	f946c863 	ldr	x3, [x3, #3472]
    7ee8:	91290442 	add	x2, x2, #0xa41
    7eec:	cb150261 	sub	x1, x19, x21
    7ef0:	8b150280 	add	x0, x20, x21
    7ef4:	97ffffa6 	bl	7d8c <snprintk>
/home/zrz0517/study/TEE/RT-TEE/optee_os/lib/libutils/ext/trace.c:116
    7ef8:	37f80800 	tbnz	w0, #31, 7ff8 <trace_printf+0x1cc>
/home/zrz0517/study/TEE/RT-TEE/optee_os/lib/libutils/ext/trace.c:118
    7efc:	8b20c2b5 	add	x21, x21, w0, sxtw
/home/zrz0517/study/TEE/RT-TEE/optee_os/lib/libutils/ext/trace.c:120
    7f00:	34000a17 	cbz	w23, 8040 <trace_printf+0x214>
/home/zrz0517/study/TEE/RT-TEE/optee_os/lib/libutils/ext/trace.c:120 (discriminator 1)
    7f04:	52800342 	mov	w2, #0x1a                  	// #26
    7f08:	1ad82442 	lsr	w2, w2, w24
    7f0c:	360009a2 	tbz	w2, #0, 8040 <trace_printf+0x214>
/home/zrz0517/study/TEE/RT-TEE/optee_os/lib/libutils/ext/trace.c:122
    7f10:	8b150297 	add	x23, x20, x21
    7f14:	cb150273 	sub	x19, x19, x21
print_thread_id():
/home/zrz0517/study/TEE/RT-TEE/optee_os/lib/libutils/ext/trace.c:65
    7f18:	97ffe8c2 	bl	2220 <trace_ext_get_thread_id>
/home/zrz0517/study/TEE/RT-TEE/optee_os/lib/libutils/ext/trace.c:67
    7f1c:	37f80800 	tbnz	w0, #31, 801c <trace_printf+0x1f0>
/home/zrz0517/study/TEE/RT-TEE/optee_os/lib/libutils/ext/trace.c:68
    7f20:	2a0003e4 	mov	w4, w0
    7f24:	f0000002 	adrp	x2, a000 <__func__.4888+0x13>
    7f28:	52800023 	mov	w3, #0x1                   	// #1
    7f2c:	91291442 	add	x2, x2, #0xa45
    7f30:	aa1303e1 	mov	x1, x19
    7f34:	aa1703e0 	mov	x0, x23
    7f38:	97ffff95 	bl	7d8c <snprintk>
trace_printf():
/home/zrz0517/study/TEE/RT-TEE/optee_os/lib/libutils/ext/trace.c:129
    7f3c:	37f805e0 	tbnz	w0, #31, 7ff8 <trace_printf+0x1cc>
/home/zrz0517/study/TEE/RT-TEE/optee_os/lib/libutils/ext/trace.c:131
    7f40:	8b20c2b3 	add	x19, x21, w0, sxtw
/home/zrz0517/study/TEE/RT-TEE/optee_os/lib/libutils/ext/trace.c:133
    7f44:	b4000176 	cbz	x22, 7f70 <trace_printf+0x144>
/home/zrz0517/study/TEE/RT-TEE/optee_os/lib/libutils/ext/trace.c:134
    7f48:	f0000002 	adrp	x2, a000 <__func__.4888+0x13>
    7f4c:	d2802001 	mov	x1, #0x100                 	// #256
    7f50:	2a1a03e4 	mov	w4, w26
    7f54:	aa1603e3 	mov	x3, x22
    7f58:	91294042 	add	x2, x2, #0xa50
    7f5c:	cb130021 	sub	x1, x1, x19
    7f60:	8b130280 	add	x0, x20, x19
    7f64:	97ffff8a 	bl	7d8c <snprintk>
/home/zrz0517/study/TEE/RT-TEE/optee_os/lib/libutils/ext/trace.c:136
    7f68:	37f80480 	tbnz	w0, #31, 7ff8 <trace_printf+0x1cc>
/home/zrz0517/study/TEE/RT-TEE/optee_os/lib/libutils/ext/trace.c:138
    7f6c:	8b20c273 	add	x19, x19, w0, sxtw
/home/zrz0517/study/TEE/RT-TEE/optee_os/lib/libutils/ext/trace.c:148
    7f70:	9108c3e0 	add	x0, sp, #0x230
    7f74:	a90703e0 	stp	x0, x0, [sp, #112]
    7f78:	910843e0 	add	x0, sp, #0x210
    7f7c:	f90043e0 	str	x0, [sp, #128]
    7f80:	128002e0 	mov	w0, #0xffffffe8            	// #-24
    7f84:	b9008be0 	str	w0, [sp, #136]
    7f88:	12800fe0 	mov	w0, #0xffffff80            	// #-128
    7f8c:	b9008fe0 	str	w0, [sp, #140]
/home/zrz0517/study/TEE/RT-TEE/optee_os/lib/libutils/ext/trace.c:149
    7f90:	910143e3 	add	x3, sp, #0x50
    7f94:	a94707e0 	ldp	x0, x1, [sp, #112]
    7f98:	a90507e0 	stp	x0, x1, [sp, #80]
    7f9c:	aa1903e2 	mov	x2, x25
    7fa0:	a94807e0 	ldp	x0, x1, [sp, #128]
    7fa4:	a90607e0 	stp	x0, x1, [sp, #96]
    7fa8:	8b130280 	add	x0, x20, x19
    7fac:	d2802001 	mov	x1, #0x100                 	// #256
    7fb0:	cb130021 	sub	x1, x1, x19
    7fb4:	97ffff61 	bl	7d38 <vsnprintk>
/home/zrz0517/study/TEE/RT-TEE/optee_os/lib/libutils/ext/trace.c:151
    7fb8:	7100001f 	cmp	w0, #0x0
    7fbc:	5400004d 	b.le	7fc4 <trace_printf+0x198>
/home/zrz0517/study/TEE/RT-TEE/optee_os/lib/libutils/ext/trace.c:152
    7fc0:	8b20c273 	add	x19, x19, w0, sxtw
/home/zrz0517/study/TEE/RT-TEE/optee_os/lib/libutils/ext/trace.c:154
    7fc4:	f103fa7f 	cmp	x19, #0xfe
    7fc8:	d2801fc0 	mov	x0, #0xfe                  	// #254
    7fcc:	9a809273 	csel	x19, x19, x0, ls  // ls = plast
/home/zrz0517/study/TEE/RT-TEE/optee_os/lib/libutils/ext/trace.c:157
    7fd0:	52800140 	mov	w0, #0xa                   	// #10
    7fd4:	38336a80 	strb	w0, [x20, x19]
/home/zrz0517/study/TEE/RT-TEE/optee_os/lib/libutils/ext/trace.c:158
    7fd8:	b4000093 	cbz	x19, 7fe8 <trace_printf+0x1bc>
/home/zrz0517/study/TEE/RT-TEE/optee_os/lib/libutils/ext/trace.c:158 (discriminator 1)
    7fdc:	38736a80 	ldrb	w0, [x20, x19]
    7fe0:	7100281f 	cmp	w0, #0xa
    7fe4:	540003c0 	b.eq	805c <trace_printf+0x230>  // b.none
/home/zrz0517/study/TEE/RT-TEE/optee_os/lib/libutils/ext/trace.c:161
    7fe8:	91024be0 	add	x0, sp, #0x92
    7fec:	3833681f 	strb	wzr, [x0, x19]
/home/zrz0517/study/TEE/RT-TEE/optee_os/lib/libutils/ext/trace.c:163
    7ff0:	aa1403e0 	mov	x0, x20
    7ff4:	97ffe881 	bl	21f8 <trace_ext_puts>
/home/zrz0517/study/TEE/RT-TEE/optee_os/lib/libutils/ext/trace.c:164
    7ff8:	a9407bfd 	ldp	x29, x30, [sp]
    7ffc:	a94153f3 	ldp	x19, x20, [sp, #16]
    8000:	a9425bf5 	ldp	x21, x22, [sp, #32]
    8004:	a94363f7 	ldp	x23, x24, [sp, #48]
    8008:	a9446bf9 	ldp	x25, x26, [sp, #64]
    800c:	9108c3ff 	add	sp, sp, #0x230
    8010:	d65f03c0 	ret
trace_level_to_string():
/home/zrz0517/study/TEE/RT-TEE/optee_os/lib/libutils/ext/trace.c:50
    8014:	528009a3 	mov	w3, #0x4d                  	// #77
    8018:	17ffffa4 	b	7ea8 <trace_printf+0x7c>
print_thread_id():
/home/zrz0517/study/TEE/RT-TEE/optee_os/lib/libutils/ext/trace.c:70
    801c:	d0000004 	adrp	x4, a000 <__func__.4888+0x13>
    8020:	52800023 	mov	w3, #0x1                   	// #1
    8024:	91158c84 	add	x4, x4, #0x563
    8028:	d0000002 	adrp	x2, a000 <__func__.4888+0x13>
    802c:	aa1303e1 	mov	x1, x19
    8030:	91292c42 	add	x2, x2, #0xa4b
    8034:	aa1703e0 	mov	x0, x23
    8038:	97ffff55 	bl	7d8c <snprintk>
    803c:	17ffffc0 	b	7f3c <trace_printf+0x110>
trace_printf():
/home/zrz0517/study/TEE/RT-TEE/optee_os/lib/libutils/ext/trace.c:142
    8040:	f103fabf 	cmp	x21, #0xfe
    8044:	54fffda8 	b.hi	7ff8 <trace_printf+0x1cc>  // b.pmore
/home/zrz0517/study/TEE/RT-TEE/optee_os/lib/libutils/ext/trace.c:144
    8048:	910006b3 	add	x19, x21, #0x1
    804c:	52800400 	mov	w0, #0x20                  	// #32
    8050:	38356a80 	strb	w0, [x20, x21]
/home/zrz0517/study/TEE/RT-TEE/optee_os/lib/libutils/ext/trace.c:145
    8054:	38336a9f 	strb	wzr, [x20, x19]
    8058:	17ffffc6 	b	7f70 <trace_printf+0x144>
/home/zrz0517/study/TEE/RT-TEE/optee_os/lib/libutils/ext/trace.c:159
    805c:	d1000673 	sub	x19, x19, #0x1
    8060:	17ffffde 	b	7fd8 <trace_printf+0x1ac>

0000000000008064 <dhex_dump>:
dhex_dump():
/home/zrz0517/study/TEE/RT-TEE/optee_os/lib/libutils/ext/trace.c:276
    8064:	d65f03c0 	ret

0000000000008068 <mempool_alloc_pool>:
mempool_alloc_pool():
/home/zrz0517/study/TEE/RT-TEE/optee_os/lib/libutils/ext/mempool.c:130
    8068:	a9be7bfd 	stp	x29, x30, [sp, #-32]!
    806c:	910003fd 	mov	x29, sp
    8070:	a90153f3 	stp	x19, x20, [sp, #16]
    8074:	aa0003f3 	mov	x19, x0
    8078:	aa0103f4 	mov	x20, x1
/home/zrz0517/study/TEE/RT-TEE/optee_os/lib/libutils/ext/mempool.c:131
    807c:	d2800020 	mov	x0, #0x1                   	// #1
    8080:	d2800301 	mov	x1, #0x18                  	// #24
    8084:	97fff9ca 	bl	67ac <calloc>
/home/zrz0517/study/TEE/RT-TEE/optee_os/lib/libutils/ext/mempool.c:134
    8088:	f2400a7f 	tst	x19, #0x7
    808c:	54000140 	b.eq	80b4 <mempool_alloc_pool+0x4c>  // b.none
/home/zrz0517/study/TEE/RT-TEE/optee_os/lib/libutils/ext/mempool.c:134 (discriminator 1)
    8090:	d0000003 	adrp	x3, a000 <__func__.4888+0x13>
    8094:	d0000001 	adrp	x1, a000 <__func__.4888+0x13>
    8098:	91295c63 	add	x3, x3, #0xa57
    809c:	9129e021 	add	x1, x1, #0xa78
    80a0:	d0000000 	adrp	x0, a000 <__func__.4888+0x13>
    80a4:	912a4c00 	add	x0, x0, #0xa93
    80a8:	528010c2 	mov	w2, #0x86                  	// #134
    80ac:	94000064 	bl	823c <_assert_log>
    80b0:	94000074 	bl	8280 <_assert_break>
/home/zrz0517/study/TEE/RT-TEE/optee_os/lib/libutils/ext/mempool.c:136
    80b4:	b4000080 	cbz	x0, 80c4 <mempool_alloc_pool+0x5c>
/home/zrz0517/study/TEE/RT-TEE/optee_os/lib/libutils/ext/mempool.c:139
    80b8:	92800001 	mov	x1, #0xffffffffffffffff    	// #-1
    80bc:	a9000414 	stp	x20, x1, [x0]
/home/zrz0517/study/TEE/RT-TEE/optee_os/lib/libutils/ext/mempool.c:138
    80c0:	f9000813 	str	x19, [x0, #16]
/home/zrz0517/study/TEE/RT-TEE/optee_os/lib/libutils/ext/mempool.c:149
    80c4:	a94153f3 	ldp	x19, x20, [sp, #16]
    80c8:	a8c27bfd 	ldp	x29, x30, [sp], #32
    80cc:	d65f03c0 	ret

00000000000080d0 <mempool_alloc>:
mempool_alloc():
/home/zrz0517/study/TEE/RT-TEE/optee_os/lib/libutils/ext/mempool.c:159
    80d0:	a9401003 	ldp	x3, x4, [x0]
    80d4:	b7f80304 	tbnz	x4, #63, 8134 <mempool_alloc+0x64>
/home/zrz0517/study/TEE/RT-TEE/optee_os/lib/libutils/ext/mempool.c:162
    80d8:	f9400806 	ldr	x6, [x0, #16]
/home/zrz0517/study/TEE/RT-TEE/optee_os/lib/libutils/ext/mempool.c:166
    80dc:	91001c82 	add	x2, x4, #0x7
/home/zrz0517/study/TEE/RT-TEE/optee_os/lib/libutils/ext/mempool.c:162
    80e0:	8b060085 	add	x5, x4, x6
/home/zrz0517/study/TEE/RT-TEE/optee_os/lib/libutils/ext/mempool.c:166
    80e4:	f8666886 	ldr	x6, [x4, x6]
    80e8:	8b060042 	add	x2, x2, x6
    80ec:	927df042 	and	x2, x2, #0xfffffffffffffff8
/home/zrz0517/study/TEE/RT-TEE/optee_os/lib/libutils/ext/mempool.c:167
    80f0:	eb02007f 	cmp	x3, x2
    80f4:	54000242 	b.cs	813c <mempool_alloc+0x6c>  // b.hs, b.nlast
/home/zrz0517/study/TEE/RT-TEE/optee_os/lib/libutils/ext/mempool.c:152
    80f8:	a9bf7bfd 	stp	x29, x30, [sp, #-16]!
/home/zrz0517/study/TEE/RT-TEE/optee_os/lib/libutils/ext/mempool.c:194
    80fc:	d0000000 	adrp	x0, a000 <__func__.4888+0x13>
    8100:	91295c00 	add	x0, x0, #0xa57
/home/zrz0517/study/TEE/RT-TEE/optee_os/lib/libutils/ext/mempool.c:152
    8104:	910003fd 	mov	x29, sp
/home/zrz0517/study/TEE/RT-TEE/optee_os/lib/libutils/ext/mempool.c:194
    8108:	aa0103e5 	mov	x5, x1
    810c:	52800023 	mov	w3, #0x1                   	// #1
    8110:	52800022 	mov	w2, #0x1                   	// #1
    8114:	52801841 	mov	w1, #0xc2                  	// #194
    8118:	91004c00 	add	x0, x0, #0x13
    811c:	d0000004 	adrp	x4, a000 <__func__.4888+0x13>
    8120:	912adc84 	add	x4, x4, #0xab7
    8124:	97ffff42 	bl	7e2c <trace_printf>
/home/zrz0517/study/TEE/RT-TEE/optee_os/lib/libutils/ext/mempool.c:196
    8128:	d2800000 	mov	x0, #0x0                   	// #0
/home/zrz0517/study/TEE/RT-TEE/optee_os/lib/libutils/ext/mempool.c:197
    812c:	a8c17bfd 	ldp	x29, x30, [sp], #16
    8130:	d65f03c0 	ret
/home/zrz0517/study/TEE/RT-TEE/optee_os/lib/libutils/ext/mempool.c:155
    8134:	d2800005 	mov	x5, #0x0                   	// #0
/home/zrz0517/study/TEE/RT-TEE/optee_os/lib/libutils/ext/mempool.c:160
    8138:	d2800002 	mov	x2, #0x0                   	// #0
/home/zrz0517/study/TEE/RT-TEE/optee_os/lib/libutils/ext/mempool.c:172
    813c:	91007c21 	add	x1, x1, #0x1f
    8140:	927df021 	and	x1, x1, #0xfffffffffffffff8
/home/zrz0517/study/TEE/RT-TEE/optee_os/lib/libutils/ext/mempool.c:173
    8144:	8b010046 	add	x6, x2, x1
    8148:	eb0300df 	cmp	x6, x3
    814c:	54fffd68 	b.hi	80f8 <mempool_alloc+0x28>  // b.pmore
/home/zrz0517/study/TEE/RT-TEE/optee_os/lib/libutils/ext/mempool.c:176
    8150:	f9400806 	ldr	x6, [x0, #16]
    8154:	8b060043 	add	x3, x2, x6
/home/zrz0517/study/TEE/RT-TEE/optee_os/lib/libutils/ext/mempool.c:177
    8158:	f8266841 	str	x1, [x2, x6]
/home/zrz0517/study/TEE/RT-TEE/optee_os/lib/libutils/ext/mempool.c:178
    815c:	f9000464 	str	x4, [x3, #8]
/home/zrz0517/study/TEE/RT-TEE/optee_os/lib/libutils/ext/mempool.c:179
    8160:	b4000045 	cbz	x5, 8168 <mempool_alloc+0x98>
/home/zrz0517/study/TEE/RT-TEE/optee_os/lib/libutils/ext/mempool.c:180
    8164:	f90008a2 	str	x2, [x5, #16]
/home/zrz0517/study/TEE/RT-TEE/optee_os/lib/libutils/ext/mempool.c:181
    8168:	92800001 	mov	x1, #0xffffffffffffffff    	// #-1
    816c:	f9000861 	str	x1, [x3, #16]
/home/zrz0517/study/TEE/RT-TEE/optee_os/lib/libutils/ext/mempool.c:182
    8170:	f9000402 	str	x2, [x0, #8]
/home/zrz0517/study/TEE/RT-TEE/optee_os/lib/libutils/ext/mempool.c:191
    8174:	91006060 	add	x0, x3, #0x18
/home/zrz0517/study/TEE/RT-TEE/optee_os/lib/libutils/ext/mempool.c:197
    8178:	d65f03c0 	ret

000000000000817c <mempool_calloc>:
mempool_calloc():
/home/zrz0517/study/TEE/RT-TEE/optee_os/lib/libutils/ext/mempool.c:200
    817c:	a9be7bfd 	stp	x29, x30, [sp, #-32]!
    8180:	910003fd 	mov	x29, sp
    8184:	a90153f3 	stp	x19, x20, [sp, #16]
/home/zrz0517/study/TEE/RT-TEE/optee_os/lib/libutils/ext/mempool.c:204
    8188:	9b027c34 	mul	x20, x1, x2
    818c:	9bc27c21 	umulh	x1, x1, x2
    8190:	b5000121 	cbnz	x1, 81b4 <mempool_calloc+0x38>
/home/zrz0517/study/TEE/RT-TEE/optee_os/lib/libutils/ext/mempool.c:207
    8194:	aa1403e1 	mov	x1, x20
    8198:	97ffffce 	bl	80d0 <mempool_alloc>
    819c:	aa0003f3 	mov	x19, x0
/home/zrz0517/study/TEE/RT-TEE/optee_os/lib/libutils/ext/mempool.c:208
    81a0:	b50000e0 	cbnz	x0, 81bc <mempool_calloc+0x40>
/home/zrz0517/study/TEE/RT-TEE/optee_os/lib/libutils/ext/mempool.c:212
    81a4:	aa1303e0 	mov	x0, x19
    81a8:	a94153f3 	ldp	x19, x20, [sp, #16]
    81ac:	a8c27bfd 	ldp	x29, x30, [sp], #32
    81b0:	d65f03c0 	ret
/home/zrz0517/study/TEE/RT-TEE/optee_os/lib/libutils/ext/mempool.c:205
    81b4:	d2800013 	mov	x19, #0x0                   	// #0
    81b8:	17fffffb 	b	81a4 <mempool_calloc+0x28>
/home/zrz0517/study/TEE/RT-TEE/optee_os/lib/libutils/ext/mempool.c:209
    81bc:	aa1403e2 	mov	x2, x20
    81c0:	52800001 	mov	w1, #0x0                   	// #0
    81c4:	97fffbc2 	bl	70cc <memset>
    81c8:	17fffff7 	b	81a4 <mempool_calloc+0x28>

00000000000081cc <mempool_free>:
mempool_free():
/home/zrz0517/study/TEE/RT-TEE/optee_os/lib/libutils/ext/mempool.c:221
    81cc:	b40001c1 	cbz	x1, 8204 <mempool_free+0x38>
/home/zrz0517/study/TEE/RT-TEE/optee_os/lib/libutils/ext/mempool.c:226
    81d0:	f85f0022 	ldur	x2, [x1, #-16]
    81d4:	b7f801a2 	tbnz	x2, #63, 8208 <mempool_free+0x3c>
/home/zrz0517/study/TEE/RT-TEE/optee_os/lib/libutils/ext/mempool.c:229
    81d8:	f9400803 	ldr	x3, [x0, #16]
    81dc:	f85f8024 	ldur	x4, [x1, #-8]
    81e0:	8b020063 	add	x3, x3, x2
    81e4:	f9000864 	str	x4, [x3, #16]
    81e8:	aa0203e3 	mov	x3, x2
/home/zrz0517/study/TEE/RT-TEE/optee_os/lib/libutils/ext/mempool.c:233
    81ec:	f85f8024 	ldur	x4, [x1, #-8]
    81f0:	b7f80084 	tbnz	x4, #63, 8200 <mempool_free+0x34>
/home/zrz0517/study/TEE/RT-TEE/optee_os/lib/libutils/ext/mempool.c:236
    81f4:	a9408403 	ldp	x3, x1, [x0, #8]
    81f8:	8b040021 	add	x1, x1, x4
    81fc:	f9000422 	str	x2, [x1, #8]
/home/zrz0517/study/TEE/RT-TEE/optee_os/lib/libutils/ext/mempool.c:240
    8200:	f9000403 	str	x3, [x0, #8]
/home/zrz0517/study/TEE/RT-TEE/optee_os/lib/libutils/ext/mempool.c:242
    8204:	d65f03c0 	ret
/home/zrz0517/study/TEE/RT-TEE/optee_os/lib/libutils/ext/mempool.c:219
    8208:	92800003 	mov	x3, #0xffffffffffffffff    	// #-1
    820c:	17fffff8 	b	81ec <mempool_free+0x20>

0000000000008210 <memchr>:
memchr():
/home/zrz0517/study/TEE/RT-TEE/optee_os/lib/libutils/isoc/newlib/memchr.c:109
    8210:	12001c21 	and	w1, w1, #0xff
/home/zrz0517/study/TEE/RT-TEE/optee_os/lib/libutils/isoc/newlib/memchr.c:153
    8214:	8b020002 	add	x2, x0, x2
    8218:	eb02001f 	cmp	x0, x2
    821c:	54000061 	b.ne	8228 <memchr+0x18>  // b.any
/home/zrz0517/study/TEE/RT-TEE/optee_os/lib/libutils/isoc/newlib/memchr.c:159
    8220:	d2800000 	mov	x0, #0x0                   	// #0
/home/zrz0517/study/TEE/RT-TEE/optee_os/lib/libutils/isoc/newlib/memchr.c:160
    8224:	d65f03c0 	ret
/home/zrz0517/study/TEE/RT-TEE/optee_os/lib/libutils/isoc/newlib/memchr.c:154
    8228:	39400003 	ldrb	w3, [x0]
    822c:	6b01007f 	cmp	w3, w1
    8230:	54ffffa0 	b.eq	8224 <memchr+0x14>  // b.none
/home/zrz0517/study/TEE/RT-TEE/optee_os/lib/libutils/isoc/newlib/memchr.c:156
    8234:	91000400 	add	x0, x0, #0x1
    8238:	17fffff8 	b	8218 <memchr+0x8>

000000000000823c <_assert_log>:
_assert_log():
/home/zrz0517/study/TEE/RT-TEE/optee_os/lib/libutee/assert.c:17
    823c:	d10083ff 	sub	sp, sp, #0x20
/home/zrz0517/study/TEE/RT-TEE/optee_os/lib/libutee/assert.c:18
    8240:	2a0203e7 	mov	w7, w2
    8244:	aa0103e6 	mov	x6, x1
    8248:	aa0003e5 	mov	x5, x0
    824c:	52800022 	mov	w2, #0x1                   	// #1
    8250:	52800001 	mov	w1, #0x0                   	// #0
/home/zrz0517/study/TEE/RT-TEE/optee_os/lib/libutee/assert.c:17
    8254:	a9017bfd 	stp	x29, x30, [sp, #16]
    8258:	910043fd 	add	x29, sp, #0x10
/home/zrz0517/study/TEE/RT-TEE/optee_os/lib/libutee/assert.c:18
    825c:	d2800000 	mov	x0, #0x0                   	// #0
    8260:	d0000004 	adrp	x4, a000 <__func__.4888+0x13>
    8264:	f90003e3 	str	x3, [sp]
    8268:	912bbc84 	add	x4, x4, #0xaef
    826c:	52800023 	mov	w3, #0x1                   	// #1
    8270:	97fffeef 	bl	7e2c <trace_printf>
/home/zrz0517/study/TEE/RT-TEE/optee_os/lib/libutee/assert.c:20
    8274:	a9417bfd 	ldp	x29, x30, [sp, #16]
    8278:	910083ff 	add	sp, sp, #0x20
    827c:	d65f03c0 	ret

0000000000008280 <_assert_break>:
_assert_break():
/home/zrz0517/study/TEE/RT-TEE/optee_os/lib/libutee/assert.c:23
    8280:	a9bf7bfd 	stp	x29, x30, [sp, #-16]!
/home/zrz0517/study/TEE/RT-TEE/optee_os/lib/libutee/assert.c:24
    8284:	d2bfffe0 	mov	x0, #0xffff0000            	// #4294901760
/home/zrz0517/study/TEE/RT-TEE/optee_os/lib/libutee/assert.c:23
    8288:	910003fd 	mov	x29, sp
/home/zrz0517/study/TEE/RT-TEE/optee_os/lib/libutee/assert.c:24
    828c:	97ffe02d 	bl	340 <utee_panic>
/home/zrz0517/study/TEE/RT-TEE/optee_os/lib/libutee/assert.c:27 (discriminator 1)
    8290:	14000000 	b	8290 <_assert_break+0x10>
