
8aaaf200-2450-11e4-abe2-0002a5d5c51b.elf:     file format elf64-littleaarch64
8aaaf200-2450-11e4-abe2-0002a5d5c51b.elf
architecture: aarch64, flags 0x00000150:
HAS_SYMS, DYNAMIC, D_PAGED
start address 0x0000000000000020

Program Header:
    LOAD off    0x0000000000010000 vaddr 0x0000000000000000 paddr 0x0000000000000000 align 2**16
         filesz 0x0000000000008294 memsz 0x0000000000008294 flags r-x
    LOAD off    0x0000000000018298 vaddr 0x0000000000008298 paddr 0x0000000000008298 align 2**16
         filesz 0x0000000000002de0 memsz 0x0000000000002de0 flags r--
    LOAD off    0x000000000001c000 vaddr 0x000000000000c000 paddr 0x000000000000c000 align 2**16
         filesz 0x000000000000012c memsz 0x000000000000a1d8 flags rw-
 DYNAMIC off    0x000000000001af00 vaddr 0x000000000000af00 paddr 0x000000000000af00 align 2**3
         filesz 0x0000000000000110 memsz 0x0000000000000110 flags rw-

Dynamic Section:
  HASH                 0x000000000000b060
  GNU_HASH             0x000000000000ab18
  STRTAB               0x000000000000b058
  SYMTAB               0x000000000000b010
  STRSZ                0x0000000000000001
  SYMENT               0x0000000000000018
  DEBUG                0x0000000000000000
  RELA                 0x000000000000ab38
  RELASZ               0x0000000000000348
  RELAENT              0x0000000000000018
  FLAGS_1              0x0000000008000000
  RELACOUNT            0x0000000000000017
private flags = 0:

Sections:
Idx Name          Size      VMA               LMA               File off  Algn
  0 .ta_head      00000020  0000000000000000  0000000000000000  00010000  2**3
                  CONTENTS, ALLOC, LOAD, DATA
  1 .text         00008274  0000000000000020  0000000000000020  00010020  2**2
                  CONTENTS, ALLOC, LOAD, READONLY, CODE
  2 .eh_frame     00001838  0000000000008298  0000000000008298  00018298  2**3
                  CONTENTS, ALLOC, LOAD, READONLY, DATA
  3 .rodata       00001046  0000000000009ad0  0000000000009ad0  00019ad0  2**3
                  CONTENTS, ALLOC, LOAD, READONLY, DATA
  4 .gnu.hash     0000001c  000000000000ab18  000000000000ab18  0001ab18  2**3
                  CONTENTS, ALLOC, LOAD, READONLY, DATA
  5 .dynsym       00000048  000000000000b010  000000000000b010  0001b010  2**3
                  CONTENTS, ALLOC, LOAD, READONLY, DATA
  6 .rela.dyn     00000228  000000000000ab38  000000000000ab38  0001ab38  2**3
                  CONTENTS, ALLOC, LOAD, READONLY, DATA
  7 .got          00000080  000000000000ad60  000000000000ad60  0001ad60  2**3
                  CONTENTS, ALLOC, LOAD, DATA
  8 .rela.got     00000120  000000000000ade0  000000000000ade0  0001ade0  2**3
                  CONTENTS, ALLOC, LOAD, READONLY, DATA
  9 .dynamic      00000110  000000000000af00  000000000000af00  0001af00  2**3
                  CONTENTS, ALLOC, LOAD, DATA
 10 .dynstr       00000001  000000000000b058  000000000000b058  0001b058  2**0
                  CONTENTS, ALLOC, LOAD, READONLY, DATA
 11 .hash         00000018  000000000000b060  000000000000b060  0001b060  2**3
                  CONTENTS, ALLOC, LOAD, READONLY, DATA
 12 .data         0000012c  000000000000c000  000000000000c000  0001c000  2**3
                  CONTENTS, ALLOC, LOAD, DATA
 13 .bss          0000a0a8  000000000000c130  000000000000c130  0001c12c  2**3
                  ALLOC
 14 .debug_info   0001028a  0000000000000000  0000000000000000  0001c12c  2**0
                  CONTENTS, READONLY, DEBUGGING
 15 .debug_abbrev 000027a5  0000000000000000  0000000000000000  0002c3b6  2**0
                  CONTENTS, READONLY, DEBUGGING
 16 .debug_loc    00018668  0000000000000000  0000000000000000  0002eb5b  2**0
                  CONTENTS, READONLY, DEBUGGING
 17 .debug_aranges 000007a0  0000000000000000  0000000000000000  000471d0  2**4
                  CONTENTS, READONLY, DEBUGGING
 18 .debug_ranges 00001200  0000000000000000  0000000000000000  00047970  2**4
                  CONTENTS, READONLY, DEBUGGING
 19 .debug_macro  0000e8bd  0000000000000000  0000000000000000  00048b70  2**0
                  CONTENTS, READONLY, DEBUGGING
 20 .debug_line   00008d18  0000000000000000  0000000000000000  0005742d  2**0
                  CONTENTS, READONLY, DEBUGGING
 21 .debug_str    000109e1  0000000000000000  0000000000000000  00060145  2**0
                  CONTENTS, READONLY, DEBUGGING
 22 .comment      0000005e  0000000000000000  0000000000000000  00070b26  2**0
                  CONTENTS, READONLY
SYMBOL TABLE:
0000000000000000 l    d  .ta_head	0000000000000000 .ta_head
0000000000000020 l    d  .text	0000000000000000 .text
0000000000008298 l    d  .eh_frame	0000000000000000 .eh_frame
0000000000009ad0 l    d  .rodata	0000000000000000 .rodata
000000000000ab18 l    d  .gnu.hash	0000000000000000 .gnu.hash
000000000000ab38 l    d  .rela.dyn	0000000000000000 .rela.dyn
000000000000ad60 l    d  .got	0000000000000000 .got
000000000000ade0 l    d  .rela.got	0000000000000000 .rela.got
000000000000af00 l    d  .dynamic	0000000000000000 .dynamic
000000000000b010 l    d  .dynsym	0000000000000000 .dynsym
000000000000b058 l    d  .dynstr	0000000000000000 .dynstr
000000000000b060 l    d  .hash	0000000000000000 .hash
000000000000c000 l    d  .data	0000000000000000 .data
000000000000c130 l    d  .bss	0000000000000000 .bss
0000000000000000 l    d  .debug_info	0000000000000000 .debug_info
0000000000000000 l    d  .debug_abbrev	0000000000000000 .debug_abbrev
0000000000000000 l    d  .debug_loc	0000000000000000 .debug_loc
0000000000000000 l    d  .debug_aranges	0000000000000000 .debug_aranges
0000000000000000 l    d  .debug_ranges	0000000000000000 .debug_ranges
0000000000000000 l    d  .debug_macro	0000000000000000 .debug_macro
0000000000000000 l    d  .debug_line	0000000000000000 .debug_line
0000000000000000 l    d  .debug_str	0000000000000000 .debug_str
0000000000000000 l    d  .comment	0000000000000000 .comment
0000000000000000 l    df *ABS*	0000000000000000 user_ta_header.c
0000000000009ad8 l     O .rodata	0000000000000004 __compound_literal.5
0000000000009adc l     O .rodata	0000000000000004 __compound_literal.4
0000000000009ae0 l     O .rodata	0000000000000004 __compound_literal.3
0000000000009ae4 l     O .rodata	0000000000000001 __compound_literal.2
0000000000009ae5 l     O .rodata	0000000000000001 __compound_literal.1
0000000000009ae6 l     O .rodata	0000000000000001 __compound_literal.0
0000000000000000 l    df *ABS*	0000000000000000 hello_world_ta.c
0000000000000000 l    df *ABS*	0000000000000000 user_ta_entry.c
000000000000008c l     F .text	0000000000000028 ta_header_get_session
00000000000000b4 l     F .text	0000000000000094 ta_header_remove_session
00000000000161d0 l     O .bss	0000000000000001 init_done
000000000000c0e0 l     O .data	0000000000000010 ta_sessions
0000000000000000 l    df *ABS*	0000000000000000 utee_syscalls_a64.o
0000000000000000 l    df *ABS*	0000000000000000 gprof_a64.o
0000000000000000 l    df *ABS*	0000000000000000 tee_api.c
000000000000c178 l     O .bss	0000000000000008 tee_api_instance_data
0000000000009b03 l     O .rodata	000000000000000b __func__.4643
0000000000000000 l    df *ABS*	0000000000000000 tee_api_panic.c
0000000000000000 l    df *ABS*	0000000000000000 tee_api_arith_mpi.c
0000000000000ac8 l     F .text	0000000000000030 api_panic
0000000000000af8 l     F .text	0000000000000030 mpi_panic
0000000000000b28 l     F .text	0000000000000060 get_const_mpi
0000000000000b88 l     F .text	0000000000000020 mpi_is_odd
0000000000000ba8 l     F .text	0000000000000028 rng_read
0000000000000bd0 l     F .text	000000000000002c put_mpi
0000000000000bfc l     F .text	0000000000000018 get_mpi
0000000000000c14 l     F .text	00000000000000fc bigint_binary
0000000000000d10 l     F .text	000000000000054c mpi_egcd
000000000000c1d0 l     O .bss	0000000000002000 data.4643
00000000000015b4 l     F .text	0000000000000170 bigint_binary_mod
0000000000009f0d l     O .rodata	000000000000000e __func__.4672
0000000000009f1b l     O .rodata	000000000000000e __func__.4771
0000000000009f29 l     O .rodata	0000000000000009 __func__.4911
0000000000009f32 l     O .rodata	0000000000000012 __func__.4644
0000000000009f44 l     O .rodata	000000000000000f __func__.4682
0000000000009f53 l     O .rodata	000000000000001f __func__.4700
0000000000009f72 l     O .rodata	0000000000000019 __func__.4707
0000000000009f8b l     O .rodata	0000000000000012 __func__.4782
0000000000009f9d l     O .rodata	0000000000000015 __func__.4737
0000000000009fb2 l     O .rodata	000000000000000e __func__.4809
0000000000009fc0 l     O .rodata	000000000000000e __func__.4837
0000000000009fce l     O .rodata	000000000000000e __func__.4843
0000000000009fdc l     O .rodata	0000000000000011 __func__.4872
0000000000009fed l     O .rodata	0000000000000018 __func__.4888
000000000000a005 l     O .rodata	000000000000001d __func__.4968
000000000000a022 l     O .rodata	0000000000000019 __func__.5018
000000000000a03b l     O .rodata	0000000000000015 __func__.5032
0000000000000000 l    df *ABS*	0000000000000000 trace_ext.c
0000000000000000 l    df *ABS*	0000000000000000 bignum.c
000000000000236c l     F .text	0000000000000064 mpi_get_digit
00000000000023d0 l     F .text	0000000000000060 mpi_sub_hlp
0000000000002430 l     F .text	00000000000004d4 mpi_mul_hlp
0000000000002904 l     F .text	0000000000000058 mbedtls_mpi_mod_int.part.3
0000000000004370 l     F .text	00000000000000d4 mpi_write_hlp
0000000000004618 l     F .text	0000000000000088 mpi_check_small_factors
00000000000050a8 l     F .text	0000000000000344 mpi_miller_rabin
0000000000009b10 l     O .rodata	00000000000002a0 small_prime
0000000000009db0 l     O .rodata	0000000000000024 gcd_pairs
0000000000000000 l    df *ABS*	0000000000000000 bget_malloc.c
0000000000005e90 l     F .text	0000000000000040 raw_malloc_return_hook.isra.3
0000000000005ed0 l     F .text	0000000000000110 create_free_block.constprop.11
000000000000a564 l     O .rodata	0000000000000012 __func__.3769
000000000000a576 l     O .rodata	0000000000000005 __func__.3625
000000000000a57b l     O .rodata	0000000000000006 __func__.3640
000000000000a581 l     O .rodata	0000000000000005 __func__.3657
000000000000a586 l     O .rodata	0000000000000006 __func__.3649
000000000000a58c l     O .rodata	0000000000000006 __func__.3666
000000000000a592 l     O .rodata	0000000000000007 __func__.3676
000000000000a599 l     O .rodata	000000000000000d __func__.3805
000000000000a5a6 l     O .rodata	000000000000000c __func__.3779
000000000000a5b2 l     O .rodata	000000000000000b __func__.3790
000000000000a5bd l     O .rodata	0000000000000010 __func__.3857
000000000000a5cd l     O .rodata	000000000000000e __func__.3811
000000000000a5db l     O .rodata	0000000000000013 __func__.3717
000000000000c188 l     O .bss	0000000000000038 mstats
000000000000c1c0 l     O .bss	0000000000000008 malloc_pool_len
000000000000c1c8 l     O .bss	0000000000000008 malloc_pool
000000000000c0f0 l     O .data	0000000000000038 malloc_poolset
0000000000000000 l    df *ABS*	0000000000000000 snprintf.c
0000000000000000 l    df *ABS*	0000000000000000 memcmp.c
0000000000000000 l    df *ABS*	0000000000000000 memcpy.c
0000000000000000 l    df *ABS*	0000000000000000 memmove.c
0000000000000000 l    df *ABS*	0000000000000000 memset.c
0000000000000000 l    df *ABS*	0000000000000000 strlen.c
0000000000000000 l    df *ABS*	0000000000000000 snprintk.c
000000000000a9de l     O .rodata	0000000000000011 hexdigits
000000000000a9ef l     O .rodata	0000000000000011 HEXDIGITS
0000000000000000 l    df *ABS*	0000000000000000 trace.c
000000000000aa38 l     O .rodata	0000000000000005 lvl_strs.3476
0000000000000000 l    df *ABS*	0000000000000000 mempool.c
000000000000aa57 l     O .rodata	0000000000000013 __func__.3533
000000000000aa6a l     O .rodata	000000000000000e __func__.3542
0000000000000000 l    df *ABS*	0000000000000000 memchr.c
0000000000000000 l    df *ABS*	0000000000000000 assert.c
0000000000000000 l    df *ABS*	0000000000000000 
000000000000af00 l     O *ABS*	0000000000000000 _DYNAMIC
000000000000ad78 l     O *ABS*	0000000000000000 _GLOBAL_OFFSET_TABLE_
0000000000002330 g     F .text	000000000000003c putchar
0000000000002080 g     F .text	0000000000000004 TEE_BigIntConvertToFMM
0000000000001c54 g     F .text	000000000000000c TEE_BigIntSquareMod
0000000000001724 g     F .text	0000000000000148 TEE_BigIntShiftRight
0000000000000544 g     F .text	000000000000000c utee_storage_obj_create
0000000000002a4c g     F .text	000000000000012c mbedtls_mpi_grow
000000000000034c g     F .text	000000000000000c utee_return
0000000000000a9c g     F .text	0000000000000008 TEE_Realloc
0000000000002228 g     F .text	00000000000000c8 printf
0000000000000358 g     F .text	000000000000000c utee_log
0000000000000784 g     F .text	00000000000000b0 TEE_InvokeTACommand
0000000000002974 g     F .text	0000000000000030 mbedtls_mpi_init_mempool
0000000000003214 g     F .text	000000000000008c mbedtls_mpi_write_binary
0000000000007d38 g     F .text	0000000000000054 vsnprintk
0000000000003954 g     F .text	000000000000003c mbedtls_mpi_sub_int
0000000000007070 g     F .text	000000000000005c memmove
0000000000006f50 g     F .text	0000000000000078 snprintf
000000000000156c g     F .text	0000000000000048 TEE_BigIntCmpS32
0000000000002b78 g     F .text	000000000000014c mbedtls_mpi_shrink
00000000000018f8 g     F .text	000000000000000c TEE_BigIntAdd
000000000000037c g     F .text	000000000000000c utee_get_property_name_to_index
0000000000009ae8 g     O .rodata	0000000000000008 ta_heap_size
0000000000000400 g     F .text	000000000000000c utee_cryp_state_alloc
0000000000000508 g     F .text	000000000000000c utee_authenc_enc_final
0000000000003b14 g     F .text	00000000000001e4 mbedtls_mpi_read_string
0000000000001910 g     F .text	0000000000000094 TEE_BigIntNeg
0000000000000020 g       .text	0000000000000000 __text_start
000000000000339c g     F .text	00000000000000c8 mbedtls_mpi_shift_r
0000000000006ee4 g     F .text	000000000000006c malloc_buffer_overlaps_heap
0000000000001c3c g     F .text	000000000000000c TEE_BigIntSubMod
00000000000058bc g     F .text	00000000000001f8 mbedtls_mpi_gen_prime
0000000000002fdc g     F .text	000000000000002c mbedtls_mpi_get_bit
0000000000003168 g     F .text	00000000000000ac mbedtls_mpi_read_binary
0000000000007e2c g     F .text	0000000000000238 trace_printf
00000000000046dc g     F .text	0000000000000130 mbedtls_mpi_montmul
0000000000007050 g     F .text	0000000000000020 memcpy
0000000000000418 g     F .text	000000000000000c utee_cryp_state_free
0000000000002084 g     F .text	000000000000007c TEE_BigIntConvertFromFMM
0000000000000ac0 g     F .text	0000000000000008 TEE_Panic
00000000000022f0 g     F .text	0000000000000040 puts
0000000000002100 g     F .text	00000000000000f8 TEE_BigIntComputeFMM
0000000000006710 g     F .text	0000000000000030 malloc_get_stats
0000000000000460 g     F .text	000000000000000c utee_cipher_final
0000000000000a18 g     F .text	0000000000000028 TEE_GetREETime
000000000000c000 g     O .data	00000000000000d8 ta_props
0000000000006740 g     F .text	0000000000000058 malloc
000000000000049c g     F .text	000000000000000c utee_cryp_obj_close
0000000000006fc8 g     F .text	0000000000000054 vsnprintf
000000000000c128 g     O .data	0000000000000004 trace_level
0000000000001504 g     F .text	0000000000000068 TEE_BigIntCmp
0000000000009ad0 g     O .rodata	0000000000000008 ta_num_props
00000000000064c4 g     F .text	00000000000000c8 bgetr
00000000000004fc g     F .text	000000000000000c utee_authenc_update_payload
00000000000081cc g     F .text	0000000000000044 mempool_free
000000000000138c g     F .text	0000000000000094 TEE_BigIntConvertToOctetString
00000000000005e0 g     F .text	000000000000000c utee_cache_operation
00000000000030e8 g     F .text	0000000000000064 mbedtls_mpi_bitlen
00000000000004e4 g     F .text	000000000000000c utee_authenc_init
000000000000186c g     F .text	000000000000004c TEE_BigIntGetBit
0000000000009af0 g     O .rodata	0000000000000003 trace_ext_prefix
00000000000061a0 g     F .text	000000000000008c bgetz
00000000000008d8 g     F .text	000000000000000c TEE_GetInstanceData
0000000000000924 g     F .text	000000000000003c TEE_Wait
00000000000005b0 g     F .text	000000000000000c utee_storage_obj_write
0000000000003990 g     F .text	0000000000000150 mbedtls_mpi_mul_mpi
0000000000000ab0 g     F .text	0000000000000008 TEE_CacheFlush
0000000000000028 g     F .text	0000000000000004 TA_DestroyEntryPoint
000000000000295c g     F .text	0000000000000018 mbedtls_mpi_init
0000000000003094 g     F .text	0000000000000054 mbedtls_mpi_lsb
000000000000823c g     F .text	0000000000000044 _assert_log
0000000000002078 g     F .text	0000000000000008 TEE_BigIntFMMContextSizeInU32
000000000000125c g     F .text	0000000000000050 _TEE_MathAPI_Init
0000000000003814 g     F .text	0000000000000080 mbedtls_mpi_add_mpi
0000000000000598 g     F .text	000000000000000c utee_storage_next_enum
000000000000e1d0 g     O .bss	0000000000008000 ta_heap
0000000000001c60 g     F .text	0000000000000100 TEE_BigIntInvMod
000000000000003c g     F .text	0000000000000004 TA_CloseSessionEntryPoint
0000000000003894 g     F .text	0000000000000084 mbedtls_mpi_sub_mpi
0000000000000364 g     F .text	000000000000000c __utee_panic
000000000000040c g     F .text	000000000000000c utee_cryp_state_copy
0000000000000040 g     F .text	0000000000000044 TA_InvokeCommandEntryPoint
00000000000080d0 g     F .text	00000000000000ac mempool_alloc
0000000000000490 g     F .text	000000000000000c utee_cryp_obj_alloc
00000000000003f4 g     F .text	000000000000000c utee_set_ta_time
0000000000000484 g     F .text	000000000000000c utee_cryp_obj_get_attr
000000000000817c g     F .text	0000000000000050 mempool_calloc
00000000000067ac g     F .text	000000000000006c calloc
0000000000000a40 g     F .text	000000000000005c TEE_Malloc
00000000000003d0 g     F .text	000000000000000c utee_mask_cancellation
00000000000004a8 g     F .text	000000000000000c utee_cryp_obj_reset
00000000000008b8 g     F .text	0000000000000014 TEE_CheckMemoryAccessRights
00000000000161d8 g       .bss	0000000000000000 __gprof_buf_end
0000000000002f70 g     F .text	000000000000006c mbedtls_mpi_lset
000000000000002c g     F .text	0000000000000010 TA_OpenSessionEntryPoint
000000000000058c g     F .text	000000000000000c utee_storage_start_enum
000000000000055c g     F .text	000000000000000c utee_storage_obj_rename
000000000000c130 g     O .bss	0000000000000004 ta_param_types
000000000000422c g     F .text	000000000000003c mbedtls_mpi_div_int
0000000000002010 g     F .text	0000000000000050 TEE_BigIntIsProbablePrime
0000000000003ae0 g     F .text	0000000000000034 mbedtls_mpi_mul_int
0000000000004848 g     F .text	0000000000000638 mbedtls_mpi_exp_mod
0000000000002dd0 g     F .text	00000000000000c0 mbedtls_mpi_safe_cond_assign
0000000000000370 g     F .text	000000000000000c utee_get_property
00000000000012ac g     F .text	0000000000000070 TEE_BigIntInit
00000000000008e4 g     F .text	0000000000000008 TEE_MemMove
000000000000131c g     F .text	0000000000000070 TEE_BigIntConvertFromOctetString
000000000000c0d8 g     O .data	0000000000000008 _ref__utee_mcount
0000000000003464 g     F .text	000000000000009c mbedtls_mpi_cmp_abs
0000000000008210 g     F .text	000000000000002c memchr
0000000000000860 g     F .text	000000000000002c TEE_UnmaskCancellation
0000000000005ab4 g     F .text	00000000000003dc mbedtls_mpi_self_test
0000000000000550 g     F .text	000000000000000c utee_storage_obj_del
00000000000005c8 g     F .text	000000000000000c utee_storage_obj_seek
00000000000035d4 g     F .text	000000000000003c mbedtls_mpi_cmp_int
0000000000000430 g     F .text	000000000000000c utee_hash_update
00000000000005ec  w    F .text	0000000000000004 __utee_mcount
0000000000001bcc g     F .text	0000000000000064 TEE_BigIntMod
000000000000431c g     F .text	0000000000000054 mbedtls_mpi_mod_int
0000000000000394 g     F .text	000000000000000c utee_close_ta_session
0000000000001a94 g     F .text	0000000000000138 TEE_BigIntDiv
0000000000002cc4 g     F .text	00000000000000ac mbedtls_mpi_copy
00000000000066f8 g     F .text	0000000000000018 malloc_reset_stats
0000000000000454 g     F .text	000000000000000c utee_cipher_update
0000000000006818 g     F .text	0000000000000058 realloc
0000000000002d70 g     F .text	0000000000000060 mbedtls_mpi_swap
0000000000008068 g     F .text	0000000000000068 mempool_alloc_pool
000000000000052c g     F .text	000000000000000c utee_asymm_verify
00000000000019a4 g     F .text	00000000000000e8 TEE_BigIntMul
00000000000032a0 g     F .text	00000000000000fc mbedtls_mpi_shift_l
0000000000003500 g     F .text	00000000000000d4 mbedtls_mpi_cmp_mpi
00000000000008f4 g     F .text	0000000000000008 TEE_MemFill
000000000000701c g     F .text	0000000000000034 memcmp
0000000000006c30 g     F .text	0000000000000134 malloc_add_pool
0000000000007e1c g     F .text	0000000000000010 trace_get_level
0000000000003610 g     F .text	000000000000012c mbedtls_mpi_add_abs
00000000000004d8 g     F .text	000000000000000c utee_cryp_random_number_generate
0000000000002068 g     F .text	0000000000000010 TEE_BigIntFMMSizeInU32
0000000000002060 g     F .text	0000000000000004 TEE_BigIntInitFMM
0000000000000520 g     F .text	000000000000000c utee_asymm_operate
0000000000000148 g     F .text	00000000000001f8 __utee_entry
0000000000008294 g       .text	0000000000000000 __text_end
0000000000001d60 g     F .text	00000000000000d4 TEE_BigIntRelativePrime
0000000000004268 g     F .text	00000000000000b4 mbedtls_mpi_mod_mpi
000000000000658c g     F .text	00000000000000d4 bpool
0000000000000834 g     F .text	000000000000002c TEE_GetCancellationFlag
0000000000004e80 g     F .text	00000000000001bc mbedtls_mpi_gcd
00000000000009d4 g     F .text	0000000000000044 TEE_SetTAPersistentTime
00000000000070cc g     F .text	000000000000001c memset
0000000000000960 g     F .text	0000000000000074 TEE_GetTAPersistentTime
0000000000008064 g     F .text	0000000000000004 dhex_dump
000000000000088c g     F .text	000000000000002c TEE_MaskCancellation
00000000000005a4 g     F .text	000000000000000c utee_storage_obj_read
00000000000004b4 g     F .text	000000000000000c utee_cryp_obj_populate
0000000000007e00 g     F .text	000000000000001c trace_set_level
000000000000046c g     F .text	000000000000000c utee_cryp_obj_get_info
0000000000000568 g     F .text	000000000000000c utee_storage_alloc_enum
0000000000000580 g     F .text	000000000000000c utee_storage_reset_enum
00000000000005bc g     F .text	000000000000000c utee_storage_obj_trunc
000000000000147c g     F .text	0000000000000088 TEE_BigIntConvertToS32
0000000000001904 g     F .text	000000000000000c TEE_BigIntSub
00000000000003ac g     F .text	000000000000000c utee_get_cancellation_flag
0000000000000424 g     F .text	000000000000000c utee_hash_init
0000000000000084 g     F .text	0000000000000008 tahead_get_trace_level
00000000000005f0 g     F .text	0000000000000078 __utee_from_param
0000000000000668 g     F .text	000000000000006c __utee_to_param
000000000000480c g     F .text	000000000000003c mbedtls_mpi_montred
0000000000006870 g     F .text	00000000000003c0 memalign
0000000000001420 g     F .text	000000000000005c TEE_BigIntConvertFromS32
0000000000003918 g     F .text	000000000000003c mbedtls_mpi_add_int
0000000000000478 g     F .text	000000000000000c utee_cryp_obj_restrict_usage
0000000000006d64 g     F .text	0000000000000180 malloc_buffer_is_within_alloced
00000000000004c0 g     F .text	000000000000000c utee_cryp_obj_copy
0000000000002064 g     F .text	0000000000000004 TEE_BigIntInitFMMContext
00000000000004cc g     F .text	000000000000000c utee_cryp_derive_key
0000000000000514 g     F .text	000000000000000c utee_authenc_dec_final
0000000000001a8c g     F .text	0000000000000008 TEE_BigIntSquare
0000000000000020 g     F .text	0000000000000008 TA_CreateEntryPoint
0000000000007d8c g     F .text	0000000000000074 snprintk
00000000000046a0 g     F .text	000000000000003c mbedtls_mpi_montg_init
00000000000018b8 g     F .text	0000000000000040 TEE_BigIntGetBitCount
0000000000001c48 g     F .text	000000000000000c TEE_BigIntMulMod
00000000000053ec g     F .text	0000000000000438 mbedtls_mpi_inv_mod
000000000000c138 g     O .bss	0000000000000040 ta_params
0000000000003cf8 g     F .text	0000000000000534 mbedtls_mpi_div_mpi
000000000000314c g     F .text	000000000000001c mbedtls_mpi_size
0000000000005fe0 g     F .text	00000000000001c0 bget
0000000000003008 g     F .text	000000000000008c mbedtls_mpi_set_bit
00000000000029a4 g     F .text	0000000000000020 mbedtls_mpi_init_static
0000000000000aa4 g     F .text	0000000000000004 TEE_Free
0000000000005824 g     F .text	0000000000000098 mbedtls_mpi_is_prime
0000000000000ab8 g     F .text	0000000000000008 TEE_CacheInvalidate
0000000000000448 g     F .text	000000000000000c utee_cipher_init
0000000000008280 g     F .text	0000000000000014 _assert_break
0000000000001c30 g     F .text	000000000000000c TEE_BigIntAddMod
0000000000000574 g     F .text	000000000000000c utee_storage_free_enum
00000000000004f0 g     F .text	000000000000000c utee_authenc_update_aad
00000000000008ec g     F .text	0000000000000008 TEE_MemCompare
0000000000007104 g     F .text	0000000000000c34 __vsnprintf
00000000000006d4 g     F .text	0000000000000088 TEE_OpenTASession
0000000000000340 g     F .text	000000000000000c utee_panic
00000000000021f8 g     F .text	0000000000000028 trace_ext_puts
0000000000002220 g     F .text	0000000000000008 trace_ext_get_thread_id
00000000000029c4 g     F .text	0000000000000088 mbedtls_mpi_free
0000000000000aa8 g     F .text	0000000000000008 TEE_CacheClean
0000000000000388 g     F .text	000000000000000c utee_open_ta_session
0000000000002e90 g     F .text	00000000000000e0 mbedtls_mpi_safe_cond_swap
000000000000043c g     F .text	000000000000000c utee_hash_final
00000000000070e8 g     F .text	000000000000001c strlen
0000000000001e34 g     F .text	00000000000001dc TEE_BigIntComputeExtendedGcd
0000000000000538 g     F .text	000000000000000c utee_storage_obj_open
00000000000003a0 g     F .text	000000000000000c utee_invoke_ta_command
00000000000003dc g     F .text	000000000000000c utee_wait
00000000000008fc g     F .text	0000000000000028 TEE_GetSystemTime
0000000000000000 g     O .ta_head	0000000000000020 ta_head
000000000000622c g     F .text	0000000000000298 brel
000000000000373c g     F .text	00000000000000d8 mbedtls_mpi_sub_abs
00000000000003e8 g     F .text	000000000000000c utee_get_time
000000000000503c g     F .text	000000000000006c mbedtls_mpi_fill_random
00000000000008cc g     F .text	000000000000000c TEE_SetInstanceData
00000000000003c4 g     F .text	000000000000000c utee_unmask_cancellation
00000000000003b8 g     F .text	000000000000000c utee_check_access_rights
0000000000004444 g     F .text	00000000000001d4 mbedtls_mpi_write_string
00000000000005d4 g     F .text	000000000000000c utee_cryp_obj_generate_key
000000000000075c g     F .text	0000000000000028 TEE_CloseTASession
00000000000161d8 g       .bss	0000000000000000 __gprof_buf_start
0000000000006798 g     F .text	0000000000000014 free
0000000000006660 g     F .text	0000000000000098 bstats
000000000000c180 g     O .bss	0000000000000008 mbedtls_mpi_mempool



Disassembly of section .text:

0000000000000020 <TA_CreateEntryPoint>:
TA_CreateEntryPoint():
/home/zrz0517/study/TEE/RT-TEE/optee_examples/hello_world/ta/hello_world_ta.c:42
      20:	52800000 	mov	w0, #0x0                   	// #0
      24:	d65f03c0 	ret

0000000000000028 <TA_DestroyEntryPoint>:
TA_DestroyEntryPoint():
/home/zrz0517/study/TEE/RT-TEE/optee_examples/hello_world/ta/hello_world_ta.c:51
      28:	d65f03c0 	ret

000000000000002c <TA_OpenSessionEntryPoint>:
TA_OpenSessionEntryPoint():
/home/zrz0517/study/TEE/RT-TEE/optee_examples/hello_world/ta/hello_world_ta.c:71
      2c:	7100001f 	cmp	w0, #0x0
/home/zrz0517/study/TEE/RT-TEE/optee_examples/hello_world/ta/hello_world_ta.c:85
      30:	129fff20 	mov	w0, #0xffff0006            	// #-65530
      34:	1a9f1000 	csel	w0, w0, wzr, ne  // ne = any
      38:	d65f03c0 	ret

000000000000003c <TA_CloseSessionEntryPoint>:
TA_CloseSessionEntryPoint():
/home/zrz0517/study/TEE/RT-TEE/optee_examples/hello_world/ta/hello_world_ta.c:95
      3c:	d65f03c0 	ret

0000000000000040 <TA_InvokeCommandEntryPoint>:
TA_InvokeCommandEntryPoint():
/home/zrz0517/study/TEE/RT-TEE/optee_examples/hello_world/ta/hello_world_ta.c:147
      40:	340000a1 	cbz	w1, 54 <TA_InvokeCommandEntryPoint+0x14>
      44:	7100043f 	cmp	w1, #0x1
      48:	54000140 	b.eq	70 <TA_InvokeCommandEntryPoint+0x30>  // b.none
inc_value():
/home/zrz0517/study/TEE/RT-TEE/optee_examples/hello_world/ta/hello_world_ta.c:108
      4c:	129fff20 	mov	w0, #0xffff0006            	// #-65530
      50:	14000007 	b	6c <TA_InvokeCommandEntryPoint+0x2c>
/home/zrz0517/study/TEE/RT-TEE/optee_examples/hello_world/ta/hello_world_ta.c:107
      54:	71000c5f 	cmp	w2, #0x3
      58:	54ffffa1 	b.ne	4c <TA_InvokeCommandEntryPoint+0xc>  // b.any
/home/zrz0517/study/TEE/RT-TEE/optee_examples/hello_world/ta/hello_world_ta.c:111
      5c:	b9400060 	ldr	w0, [x3]
      60:	11000400 	add	w0, w0, #0x1
dec_value():
/home/zrz0517/study/TEE/RT-TEE/optee_examples/hello_world/ta/hello_world_ta.c:131
      64:	b9000060 	str	w0, [x3]
/home/zrz0517/study/TEE/RT-TEE/optee_examples/hello_world/ta/hello_world_ta.c:134
      68:	52800000 	mov	w0, #0x0                   	// #0
TA_InvokeCommandEntryPoint():
/home/zrz0517/study/TEE/RT-TEE/optee_examples/hello_world/ta/hello_world_ta.c:155
      6c:	d65f03c0 	ret
dec_value():
/home/zrz0517/study/TEE/RT-TEE/optee_examples/hello_world/ta/hello_world_ta.c:127
      70:	71000c5f 	cmp	w2, #0x3
      74:	54fffec1 	b.ne	4c <TA_InvokeCommandEntryPoint+0xc>  // b.any
/home/zrz0517/study/TEE/RT-TEE/optee_examples/hello_world/ta/hello_world_ta.c:131
      78:	b9400060 	ldr	w0, [x3]
      7c:	51000400 	sub	w0, w0, #0x1
      80:	17fffff9 	b	64 <TA_InvokeCommandEntryPoint+0x24>

0000000000000084 <tahead_get_trace_level>:
tahead_get_trace_level():
/home/zrz0517/study/TEE/RT-TEE/optee_os/out/arm/export-ta_arm64/src/user_ta_header.c:107
      84:	52800020 	mov	w0, #0x1                   	// #1
      88:	d65f03c0 	ret

000000000000008c <ta_header_get_session>:
ta_header_get_session():
/home/zrz0517/study/TEE/RT-TEE/optee_os/lib/libutee/arch/arm/user_ta_entry.c:78
      8c:	2a0003e1 	mov	w1, w0
/home/zrz0517/study/TEE/RT-TEE/optee_os/lib/libutee/arch/arm/user_ta_entry.c:81
      90:	90000060 	adrp	x0, c000 <ta_props>
      94:	f9407000 	ldr	x0, [x0, #224]
/home/zrz0517/study/TEE/RT-TEE/optee_os/lib/libutee/arch/arm/user_ta_entry.c:81 (discriminator 1)
      98:	b5000040 	cbnz	x0, a0 <ta_header_get_session+0x14>
/home/zrz0517/study/TEE/RT-TEE/optee_os/lib/libutee/arch/arm/user_ta_entry.c:86
      9c:	d65f03c0 	ret
/home/zrz0517/study/TEE/RT-TEE/optee_os/lib/libutee/arch/arm/user_ta_entry.c:82
      a0:	b9400002 	ldr	w2, [x0]
      a4:	6b01005f 	cmp	w2, w1
      a8:	54ffffa0 	b.eq	9c <ta_header_get_session+0x10>  // b.none
/home/zrz0517/study/TEE/RT-TEE/optee_os/lib/libutee/arch/arm/user_ta_entry.c:81 (discriminator 2)
      ac:	f9400800 	ldr	x0, [x0, #16]
      b0:	17fffffa 	b	98 <ta_header_get_session+0xc>

00000000000000b4 <ta_header_remove_session>:
ta_header_remove_session():
/home/zrz0517/study/TEE/RT-TEE/optee_os/lib/libutee/arch/arm/user_ta_entry.c:115
      b4:	a9be7bfd 	stp	x29, x30, [sp, #-32]!
      b8:	2a0003e2 	mov	w2, w0
      bc:	910003fd 	mov	x29, sp
      c0:	f9000bf3 	str	x19, [sp, #16]
/home/zrz0517/study/TEE/RT-TEE/optee_os/lib/libutee/arch/arm/user_ta_entry.c:119
      c4:	90000073 	adrp	x19, c000 <ta_props>
      c8:	f9407260 	ldr	x0, [x19, #224]
/home/zrz0517/study/TEE/RT-TEE/optee_os/lib/libutee/arch/arm/user_ta_entry.c:119 (discriminator 1)
      cc:	b5000080 	cbnz	x0, dc <ta_header_remove_session+0x28>
/home/zrz0517/study/TEE/RT-TEE/optee_os/lib/libutee/arch/arm/user_ta_entry.c:133
      d0:	f9400bf3 	ldr	x19, [sp, #16]
      d4:	a8c27bfd 	ldp	x29, x30, [sp], #32
      d8:	d65f03c0 	ret
/home/zrz0517/study/TEE/RT-TEE/optee_os/lib/libutee/arch/arm/user_ta_entry.c:120
      dc:	b9400003 	ldr	w3, [x0]
      e0:	f9400801 	ldr	x1, [x0, #16]
      e4:	6b02007f 	cmp	w3, w2
      e8:	540002c1 	b.ne	140 <ta_header_remove_session+0x8c>  // b.any
/home/zrz0517/study/TEE/RT-TEE/optee_os/lib/libutee/arch/arm/user_ta_entry.c:121
      ec:	f9400c02 	ldr	x2, [x0, #24]
      f0:	b4000221 	cbz	x1, 134 <ta_header_remove_session+0x80>
/home/zrz0517/study/TEE/RT-TEE/optee_os/lib/libutee/arch/arm/user_ta_entry.c:121 (discriminator 1)
      f4:	f9000c22 	str	x2, [x1, #24]
/home/zrz0517/study/TEE/RT-TEE/optee_os/lib/libutee/arch/arm/user_ta_entry.c:121 (discriminator 4)
      f8:	f9400c02 	ldr	x2, [x0, #24]
      fc:	f9000041 	str	x1, [x2]
/home/zrz0517/study/TEE/RT-TEE/optee_os/lib/libutee/arch/arm/user_ta_entry.c:122 (discriminator 4)
     100:	94000269 	bl	aa4 <TEE_Free>
/home/zrz0517/study/TEE/RT-TEE/optee_os/lib/libutee/arch/arm/user_ta_entry.c:127 (discriminator 4)
     104:	f9407260 	ldr	x0, [x19, #224]
     108:	b5fffe40 	cbnz	x0, d0 <ta_header_remove_session+0x1c>
/home/zrz0517/study/TEE/RT-TEE/optee_os/lib/libutee/arch/arm/user_ta_entry.c:125 (discriminator 1)
     10c:	d0000040 	adrp	x0, a000 <__func__.4888+0x13>
     110:	52800281 	mov	w1, #0x14                  	// #20
     114:	f946e800 	ldr	x0, [x0, #3536]
     118:	b9401400 	ldr	w0, [x0, #20]
     11c:	0a010000 	and	w0, w0, w1
/home/zrz0517/study/TEE/RT-TEE/optee_os/lib/libutee/arch/arm/user_ta_entry.c:127 (discriminator 1)
     120:	6b01001f 	cmp	w0, w1
     124:	54fffd60 	b.eq	d0 <ta_header_remove_session+0x1c>  // b.none
/home/zrz0517/study/TEE/RT-TEE/optee_os/lib/libutee/arch/arm/user_ta_entry.c:133
     128:	f9400bf3 	ldr	x19, [sp, #16]
     12c:	a8c27bfd 	ldp	x29, x30, [sp], #32
uninit_instance():
/home/zrz0517/study/TEE/RT-TEE/optee_os/lib/libutee/arch/arm/user_ta_entry.c:63
     130:	17ffffbe 	b	28 <TA_DestroyEntryPoint>
ta_header_remove_session():
/home/zrz0517/study/TEE/RT-TEE/optee_os/lib/libutee/arch/arm/user_ta_entry.c:121 (discriminator 2)
     134:	91038263 	add	x3, x19, #0xe0
     138:	f9000462 	str	x2, [x3, #8]
     13c:	17ffffef 	b	f8 <ta_header_remove_session+0x44>
     140:	aa0103e0 	mov	x0, x1
     144:	17ffffe2 	b	cc <ta_header_remove_session+0x18>

0000000000000148 <__utee_entry>:
__utee_entry():
/home/zrz0517/study/TEE/RT-TEE/optee_os/lib/libutee/arch/arm/user_ta_entry.c:200
     148:	a9b77bfd 	stp	x29, x30, [sp, #-144]!
     14c:	f100041f 	cmp	x0, #0x1
     150:	910003fd 	mov	x29, sp
     154:	a90153f3 	stp	x19, x20, [sp, #16]
     158:	d0000054 	adrp	x20, a000 <__func__.4888+0x13>
     15c:	a9025bf5 	stp	x21, x22, [sp, #32]
     160:	aa0103f5 	mov	x21, x1
     164:	a90363f7 	stp	x23, x24, [sp, #48]
     168:	540009e0 	b.eq	2a4 <__utee_entry+0x15c>  // b.none
     16c:	aa0203f7 	mov	x23, x2
     170:	b40000e0 	cbz	x0, 18c <__utee_entry+0x44>
     174:	f100081f 	cmp	x0, #0x2
     178:	54000a80 	b.eq	2c8 <__utee_entry+0x180>  // b.none
/home/zrz0517/study/TEE/RT-TEE/optee_os/lib/libutee/arch/arm/user_ta_entry.c:223
     17c:	52800000 	mov	w0, #0x0                   	// #0
/home/zrz0517/study/TEE/RT-TEE/optee_os/lib/libutee/arch/arm/user_ta_entry.c:222
     180:	12800013 	mov	w19, #0xffffffff            	// #-1
/home/zrz0517/study/TEE/RT-TEE/optee_os/lib/libutee/arch/arm/user_ta_entry.c:223
     184:	9400024f 	bl	ac0 <TEE_Panic>
/home/zrz0517/study/TEE/RT-TEE/optee_os/lib/libutee/arch/arm/user_ta_entry.c:224
     188:	14000019 	b	1ec <__utee_entry+0xa4>
ta_header_add_session():
/home/zrz0517/study/TEE/RT-TEE/optee_os/lib/libutee/arch/arm/user_ta_entry.c:90
     18c:	2a0103e0 	mov	w0, w1
     190:	97ffffbf 	bl	8c <ta_header_get_session>
/home/zrz0517/study/TEE/RT-TEE/optee_os/lib/libutee/arch/arm/user_ta_entry.c:93
     194:	b50004e0 	cbnz	x0, 230 <__utee_entry+0xe8>
/home/zrz0517/study/TEE/RT-TEE/optee_os/lib/libutee/arch/arm/user_ta_entry.c:96
     198:	d00000a0 	adrp	x0, 16000 <ta_heap+0x7e30>
     19c:	39474001 	ldrb	w1, [x0, #464]
     1a0:	340000e1 	cbz	w1, 1bc <__utee_entry+0x74>
/home/zrz0517/study/TEE/RT-TEE/optee_os/lib/libutee/arch/arm/user_ta_entry.c:103
     1a4:	52b00001 	mov	w1, #0x80000000            	// #-2147483648
     1a8:	52800400 	mov	w0, #0x20                  	// #32
     1ac:	94000225 	bl	a40 <TEE_Malloc>
/home/zrz0517/study/TEE/RT-TEE/optee_os/lib/libutee/arch/arm/user_ta_entry.c:105
     1b0:	b50002e0 	cbnz	x0, 20c <__utee_entry+0xc4>
/home/zrz0517/study/TEE/RT-TEE/optee_os/lib/libutee/arch/arm/user_ta_entry.c:106
     1b4:	129ffe73 	mov	w19, #0xffff000c            	// #-65524
     1b8:	1400000d 	b	1ec <__utee_entry+0xa4>
/home/zrz0517/study/TEE/RT-TEE/optee_os/lib/libutee/arch/arm/user_ta_entry.c:97
     1bc:	52800021 	mov	w1, #0x1                   	// #1
     1c0:	39074001 	strb	w1, [x0, #464]
init_instance():
/home/zrz0517/study/TEE/RT-TEE/optee_os/lib/libutee/arch/arm/user_ta_entry.c:53
     1c4:	97ffffb0 	bl	84 <tahead_get_trace_level>
     1c8:	94001f0e 	bl	7e00 <trace_set_level>
/home/zrz0517/study/TEE/RT-TEE/optee_os/lib/libutee/arch/arm/user_ta_entry.c:55
     1cc:	f946c280 	ldr	x0, [x20, #3456]
     1d0:	f9400001 	ldr	x1, [x0]
     1d4:	f946d680 	ldr	x0, [x20, #3496]
     1d8:	94001a96 	bl	6c30 <malloc_add_pool>
/home/zrz0517/study/TEE/RT-TEE/optee_os/lib/libutee/arch/arm/user_ta_entry.c:56
     1dc:	94000420 	bl	125c <_TEE_MathAPI_Init>
/home/zrz0517/study/TEE/RT-TEE/optee_os/lib/libutee/arch/arm/user_ta_entry.c:57
     1e0:	97ffff90 	bl	20 <TA_CreateEntryPoint>
     1e4:	2a0003f3 	mov	w19, w0
ta_header_add_session():
/home/zrz0517/study/TEE/RT-TEE/optee_os/lib/libutee/arch/arm/user_ta_entry.c:99
     1e8:	34fffde0 	cbz	w0, 1a4 <__utee_entry+0x5c>
ta_header_save_params():
/home/zrz0517/study/TEE/RT-TEE/optee_os/lib/libutee/arch/arm/user_ta_entry.c:69
     1ec:	f946de80 	ldr	x0, [x20, #3512]
/home/zrz0517/study/TEE/RT-TEE/optee_os/lib/libutee/arch/arm/user_ta_entry.c:74
     1f0:	d2800802 	mov	x2, #0x40                  	// #64
     1f4:	52800001 	mov	w1, #0x0                   	// #0
/home/zrz0517/study/TEE/RT-TEE/optee_os/lib/libutee/arch/arm/user_ta_entry.c:69
     1f8:	b900001f 	str	wzr, [x0]
/home/zrz0517/study/TEE/RT-TEE/optee_os/lib/libutee/arch/arm/user_ta_entry.c:74
     1fc:	f946e680 	ldr	x0, [x20, #3528]
     200:	94001bb3 	bl	70cc <memset>
__utee_entry():
/home/zrz0517/study/TEE/RT-TEE/optee_os/lib/libutee/arch/arm/user_ta_entry.c:227
     204:	2a1303e0 	mov	w0, w19
     208:	94000051 	bl	34c <utee_return>
ta_header_add_session():
/home/zrz0517/study/TEE/RT-TEE/optee_os/lib/libutee/arch/arm/user_ta_entry.c:109
     20c:	90000061 	adrp	x1, c000 <ta_props>
     210:	91038021 	add	x1, x1, #0xe0
     214:	f9400422 	ldr	x2, [x1, #8]
/home/zrz0517/study/TEE/RT-TEE/optee_os/lib/libutee/arch/arm/user_ta_entry.c:107
     218:	b9000015 	str	w21, [x0]
/home/zrz0517/study/TEE/RT-TEE/optee_os/lib/libutee/arch/arm/user_ta_entry.c:109
     21c:	a900fc1f 	stp	xzr, xzr, [x0, #8]
     220:	f9000c02 	str	x2, [x0, #24]
     224:	f9000040 	str	x0, [x2]
     228:	91004000 	add	x0, x0, #0x10
     22c:	f9000420 	str	x0, [x1, #8]
entry_open_session():
/home/zrz0517/study/TEE/RT-TEE/optee_os/lib/libutee/arch/arm/user_ta_entry.c:147
     230:	2a1503e0 	mov	w0, w21
     234:	97ffff96 	bl	8c <ta_header_get_session>
     238:	aa0003f8 	mov	x24, x0
/home/zrz0517/study/TEE/RT-TEE/optee_os/lib/libutee/arch/arm/user_ta_entry.c:148
     23c:	b40007e0 	cbz	x0, 338 <__utee_entry+0x1f0>
/home/zrz0517/study/TEE/RT-TEE/optee_os/lib/libutee/arch/arm/user_ta_entry.c:151
     240:	910143f6 	add	x22, sp, #0x50
     244:	aa1703e2 	mov	x2, x23
     248:	910133e1 	add	x1, sp, #0x4c
     24c:	aa1603e0 	mov	x0, x22
     250:	94000106 	bl	668 <__utee_to_param>
/home/zrz0517/study/TEE/RT-TEE/optee_os/lib/libutee/arch/arm/user_ta_entry.c:152
     254:	b9404ff3 	ldr	w19, [sp, #76]
ta_header_save_params():
/home/zrz0517/study/TEE/RT-TEE/optee_os/lib/libutee/arch/arm/user_ta_entry.c:69
     258:	f946de80 	ldr	x0, [x20, #3512]
/home/zrz0517/study/TEE/RT-TEE/optee_os/lib/libutee/arch/arm/user_ta_entry.c:72
     25c:	d2800802 	mov	x2, #0x40                  	// #64
     260:	aa1603e1 	mov	x1, x22
/home/zrz0517/study/TEE/RT-TEE/optee_os/lib/libutee/arch/arm/user_ta_entry.c:69
     264:	b9000013 	str	w19, [x0]
/home/zrz0517/study/TEE/RT-TEE/optee_os/lib/libutee/arch/arm/user_ta_entry.c:72
     268:	f946e680 	ldr	x0, [x20, #3528]
     26c:	94001b79 	bl	7050 <memcpy>
entry_open_session():
/home/zrz0517/study/TEE/RT-TEE/optee_os/lib/libutee/arch/arm/user_ta_entry.c:154
     270:	91002302 	add	x2, x24, #0x8
     274:	aa1603e1 	mov	x1, x22
     278:	2a1303e0 	mov	w0, w19
     27c:	97ffff6c 	bl	2c <TA_OpenSessionEntryPoint>
/home/zrz0517/study/TEE/RT-TEE/optee_os/lib/libutee/arch/arm/user_ta_entry.c:157
     280:	b9404fe1 	ldr	w1, [sp, #76]
/home/zrz0517/study/TEE/RT-TEE/optee_os/lib/libutee/arch/arm/user_ta_entry.c:154
     284:	2a0003f3 	mov	w19, w0
/home/zrz0517/study/TEE/RT-TEE/optee_os/lib/libutee/arch/arm/user_ta_entry.c:157
     288:	aa1603e2 	mov	x2, x22
     28c:	aa1703e0 	mov	x0, x23
     290:	940000d8 	bl	5f0 <__utee_from_param>
/home/zrz0517/study/TEE/RT-TEE/optee_os/lib/libutee/arch/arm/user_ta_entry.c:159
     294:	34fffad3 	cbz	w19, 1ec <__utee_entry+0xa4>
/home/zrz0517/study/TEE/RT-TEE/optee_os/lib/libutee/arch/arm/user_ta_entry.c:160
     298:	2a1503e0 	mov	w0, w21
     29c:	97ffff86 	bl	b4 <ta_header_remove_session>
     2a0:	17ffffd3 	b	1ec <__utee_entry+0xa4>
entry_close_session():
/home/zrz0517/study/TEE/RT-TEE/optee_os/lib/libutee/arch/arm/user_ta_entry.c:166
     2a4:	2a0103e0 	mov	w0, w1
     2a8:	97ffff79 	bl	8c <ta_header_get_session>
/home/zrz0517/study/TEE/RT-TEE/optee_os/lib/libutee/arch/arm/user_ta_entry.c:168
     2ac:	b4000460 	cbz	x0, 338 <__utee_entry+0x1f0>
/home/zrz0517/study/TEE/RT-TEE/optee_os/lib/libutee/arch/arm/user_ta_entry.c:171
     2b0:	f9400400 	ldr	x0, [x0, #8]
/home/zrz0517/study/TEE/RT-TEE/optee_os/lib/libutee/arch/arm/user_ta_entry.c:174
     2b4:	52800013 	mov	w19, #0x0                   	// #0
/home/zrz0517/study/TEE/RT-TEE/optee_os/lib/libutee/arch/arm/user_ta_entry.c:171
     2b8:	97ffff61 	bl	3c <TA_CloseSessionEntryPoint>
/home/zrz0517/study/TEE/RT-TEE/optee_os/lib/libutee/arch/arm/user_ta_entry.c:173
     2bc:	2a1503e0 	mov	w0, w21
     2c0:	97ffff7d 	bl	b4 <ta_header_remove_session>
/home/zrz0517/study/TEE/RT-TEE/optee_os/lib/libutee/arch/arm/user_ta_entry.c:174
     2c4:	17ffffca 	b	1ec <__utee_entry+0xa4>
entry_invoke_command():
/home/zrz0517/study/TEE/RT-TEE/optee_os/lib/libutee/arch/arm/user_ta_entry.c:183
     2c8:	2a0103e0 	mov	w0, w1
     2cc:	97ffff70 	bl	8c <ta_header_get_session>
     2d0:	aa0003f3 	mov	x19, x0
/home/zrz0517/study/TEE/RT-TEE/optee_os/lib/libutee/arch/arm/user_ta_entry.c:185
     2d4:	b4000320 	cbz	x0, 338 <__utee_entry+0x1f0>
/home/zrz0517/study/TEE/RT-TEE/optee_os/lib/libutee/arch/arm/user_ta_entry.c:188
     2d8:	910143f5 	add	x21, sp, #0x50
     2dc:	aa0303f8 	mov	x24, x3
     2e0:	aa1703e2 	mov	x2, x23
     2e4:	910133e1 	add	x1, sp, #0x4c
     2e8:	aa1503e0 	mov	x0, x21
     2ec:	940000df 	bl	668 <__utee_to_param>
ta_header_save_params():
/home/zrz0517/study/TEE/RT-TEE/optee_os/lib/libutee/arch/arm/user_ta_entry.c:69
     2f0:	f946de80 	ldr	x0, [x20, #3512]
/home/zrz0517/study/TEE/RT-TEE/optee_os/lib/libutee/arch/arm/user_ta_entry.c:72
     2f4:	aa1503e1 	mov	x1, x21
entry_invoke_command():
/home/zrz0517/study/TEE/RT-TEE/optee_os/lib/libutee/arch/arm/user_ta_entry.c:189
     2f8:	b9404ff6 	ldr	w22, [sp, #76]
ta_header_save_params():
/home/zrz0517/study/TEE/RT-TEE/optee_os/lib/libutee/arch/arm/user_ta_entry.c:72
     2fc:	d2800802 	mov	x2, #0x40                  	// #64
/home/zrz0517/study/TEE/RT-TEE/optee_os/lib/libutee/arch/arm/user_ta_entry.c:69
     300:	b9000016 	str	w22, [x0]
/home/zrz0517/study/TEE/RT-TEE/optee_os/lib/libutee/arch/arm/user_ta_entry.c:72
     304:	f946e680 	ldr	x0, [x20, #3528]
     308:	94001b52 	bl	7050 <memcpy>
entry_invoke_command():
/home/zrz0517/study/TEE/RT-TEE/optee_os/lib/libutee/arch/arm/user_ta_entry.c:191
     30c:	f9400660 	ldr	x0, [x19, #8]
     310:	2a1603e2 	mov	w2, w22
     314:	2a1803e1 	mov	w1, w24
     318:	aa1503e3 	mov	x3, x21
     31c:	97ffff49 	bl	40 <TA_InvokeCommandEntryPoint>
     320:	2a0003f3 	mov	w19, w0
/home/zrz0517/study/TEE/RT-TEE/optee_os/lib/libutee/arch/arm/user_ta_entry.c:194
     324:	b9404fe1 	ldr	w1, [sp, #76]
     328:	aa1503e2 	mov	x2, x21
     32c:	aa1703e0 	mov	x0, x23
     330:	940000b0 	bl	5f0 <__utee_from_param>
/home/zrz0517/study/TEE/RT-TEE/optee_os/lib/libutee/arch/arm/user_ta_entry.c:195
     334:	17ffffae 	b	1ec <__utee_entry+0xa4>
entry_close_session():
/home/zrz0517/study/TEE/RT-TEE/optee_os/lib/libutee/arch/arm/user_ta_entry.c:169
     338:	129fff13 	mov	w19, #0xffff0007            	// #-65529
     33c:	17ffffac 	b	1ec <__utee_entry+0xa4>

0000000000000340 <utee_panic>:
utee_panic():
/home/zrz0517/study/TEE/RT-TEE/optee_os/lib/libutee/arch/arm/utee_syscalls_a64.S:24
     340:	a9bf7bfd 	stp	x29, x30, [sp, #-16]!
/home/zrz0517/study/TEE/RT-TEE/optee_os/lib/libutee/arch/arm/utee_syscalls_a64.S:25
     344:	910003e1 	mov	x1, sp
/home/zrz0517/study/TEE/RT-TEE/optee_os/lib/libutee/arch/arm/utee_syscalls_a64.S:26
     348:	94000007 	bl	364 <__utee_panic>

000000000000034c <utee_return>:
utee_return():
/home/zrz0517/study/TEE/RT-TEE/optee_os/lib/libutee/arch/arm/utee_syscalls_asm.S:8
     34c:	d2800008 	mov	x8, #0x0                   	// #0
     350:	d4000001 	svc	#0x0
     354:	d65f03c0 	ret

0000000000000358 <utee_log>:
utee_log():
/home/zrz0517/study/TEE/RT-TEE/optee_os/lib/libutee/arch/arm/utee_syscalls_asm.S:10
     358:	d2800028 	mov	x8, #0x1                   	// #1
     35c:	d4000001 	svc	#0x0
     360:	d65f03c0 	ret

0000000000000364 <__utee_panic>:
__utee_panic():
/home/zrz0517/study/TEE/RT-TEE/optee_os/lib/libutee/arch/arm/utee_syscalls_asm.S:12
     364:	d2800048 	mov	x8, #0x2                   	// #2
     368:	d4000001 	svc	#0x0
     36c:	d65f03c0 	ret

0000000000000370 <utee_get_property>:
utee_get_property():
/home/zrz0517/study/TEE/RT-TEE/optee_os/lib/libutee/arch/arm/utee_syscalls_asm.S:14
     370:	d2800068 	mov	x8, #0x3                   	// #3
     374:	d4000001 	svc	#0x0
     378:	d65f03c0 	ret

000000000000037c <utee_get_property_name_to_index>:
utee_get_property_name_to_index():
/home/zrz0517/study/TEE/RT-TEE/optee_os/lib/libutee/arch/arm/utee_syscalls_asm.S:16
     37c:	d2800088 	mov	x8, #0x4                   	// #4
     380:	d4000001 	svc	#0x0
     384:	d65f03c0 	ret

0000000000000388 <utee_open_ta_session>:
utee_open_ta_session():
/home/zrz0517/study/TEE/RT-TEE/optee_os/lib/libutee/arch/arm/utee_syscalls_asm.S:19
     388:	d28000a8 	mov	x8, #0x5                   	// #5
     38c:	d4000001 	svc	#0x0
     390:	d65f03c0 	ret

0000000000000394 <utee_close_ta_session>:
utee_close_ta_session():
/home/zrz0517/study/TEE/RT-TEE/optee_os/lib/libutee/arch/arm/utee_syscalls_asm.S:21
     394:	d28000c8 	mov	x8, #0x6                   	// #6
     398:	d4000001 	svc	#0x0
     39c:	d65f03c0 	ret

00000000000003a0 <utee_invoke_ta_command>:
utee_invoke_ta_command():
/home/zrz0517/study/TEE/RT-TEE/optee_os/lib/libutee/arch/arm/utee_syscalls_asm.S:23
     3a0:	d28000e8 	mov	x8, #0x7                   	// #7
     3a4:	d4000001 	svc	#0x0
     3a8:	d65f03c0 	ret

00000000000003ac <utee_get_cancellation_flag>:
utee_get_cancellation_flag():
/home/zrz0517/study/TEE/RT-TEE/optee_os/lib/libutee/arch/arm/utee_syscalls_asm.S:25
     3ac:	d2800128 	mov	x8, #0x9                   	// #9
     3b0:	d4000001 	svc	#0x0
     3b4:	d65f03c0 	ret

00000000000003b8 <utee_check_access_rights>:
utee_check_access_rights():
/home/zrz0517/study/TEE/RT-TEE/optee_os/lib/libutee/arch/arm/utee_syscalls_asm.S:28
     3b8:	d2800108 	mov	x8, #0x8                   	// #8
     3bc:	d4000001 	svc	#0x0
     3c0:	d65f03c0 	ret

00000000000003c4 <utee_unmask_cancellation>:
utee_unmask_cancellation():
/home/zrz0517/study/TEE/RT-TEE/optee_os/lib/libutee/arch/arm/utee_syscalls_asm.S:30
     3c4:	d2800148 	mov	x8, #0xa                   	// #10
     3c8:	d4000001 	svc	#0x0
     3cc:	d65f03c0 	ret

00000000000003d0 <utee_mask_cancellation>:
utee_mask_cancellation():
/home/zrz0517/study/TEE/RT-TEE/optee_os/lib/libutee/arch/arm/utee_syscalls_asm.S:32
     3d0:	d2800168 	mov	x8, #0xb                   	// #11
     3d4:	d4000001 	svc	#0x0
     3d8:	d65f03c0 	ret

00000000000003dc <utee_wait>:
utee_wait():
/home/zrz0517/study/TEE/RT-TEE/optee_os/lib/libutee/arch/arm/utee_syscalls_asm.S:34
     3dc:	d2800188 	mov	x8, #0xc                   	// #12
     3e0:	d4000001 	svc	#0x0
     3e4:	d65f03c0 	ret

00000000000003e8 <utee_get_time>:
utee_get_time():
/home/zrz0517/study/TEE/RT-TEE/optee_os/lib/libutee/arch/arm/utee_syscalls_asm.S:36
     3e8:	d28001a8 	mov	x8, #0xd                   	// #13
     3ec:	d4000001 	svc	#0x0
     3f0:	d65f03c0 	ret

00000000000003f4 <utee_set_ta_time>:
utee_set_ta_time():
/home/zrz0517/study/TEE/RT-TEE/optee_os/lib/libutee/arch/arm/utee_syscalls_asm.S:38
     3f4:	d28001c8 	mov	x8, #0xe                   	// #14
     3f8:	d4000001 	svc	#0x0
     3fc:	d65f03c0 	ret

0000000000000400 <utee_cryp_state_alloc>:
utee_cryp_state_alloc():
/home/zrz0517/study/TEE/RT-TEE/optee_os/lib/libutee/arch/arm/utee_syscalls_asm.S:40
     400:	d28001e8 	mov	x8, #0xf                   	// #15
     404:	d4000001 	svc	#0x0
     408:	d65f03c0 	ret

000000000000040c <utee_cryp_state_copy>:
utee_cryp_state_copy():
/home/zrz0517/study/TEE/RT-TEE/optee_os/lib/libutee/arch/arm/utee_syscalls_asm.S:42
     40c:	d2800208 	mov	x8, #0x10                  	// #16
     410:	d4000001 	svc	#0x0
     414:	d65f03c0 	ret

0000000000000418 <utee_cryp_state_free>:
utee_cryp_state_free():
/home/zrz0517/study/TEE/RT-TEE/optee_os/lib/libutee/arch/arm/utee_syscalls_asm.S:44
     418:	d2800228 	mov	x8, #0x11                  	// #17
     41c:	d4000001 	svc	#0x0
     420:	d65f03c0 	ret

0000000000000424 <utee_hash_init>:
utee_hash_init():
/home/zrz0517/study/TEE/RT-TEE/optee_os/lib/libutee/arch/arm/utee_syscalls_asm.S:46
     424:	d2800248 	mov	x8, #0x12                  	// #18
     428:	d4000001 	svc	#0x0
     42c:	d65f03c0 	ret

0000000000000430 <utee_hash_update>:
utee_hash_update():
/home/zrz0517/study/TEE/RT-TEE/optee_os/lib/libutee/arch/arm/utee_syscalls_asm.S:48
     430:	d2800268 	mov	x8, #0x13                  	// #19
     434:	d4000001 	svc	#0x0
     438:	d65f03c0 	ret

000000000000043c <utee_hash_final>:
utee_hash_final():
/home/zrz0517/study/TEE/RT-TEE/optee_os/lib/libutee/arch/arm/utee_syscalls_asm.S:50
     43c:	d2800288 	mov	x8, #0x14                  	// #20
     440:	d4000001 	svc	#0x0
     444:	d65f03c0 	ret

0000000000000448 <utee_cipher_init>:
utee_cipher_init():
/home/zrz0517/study/TEE/RT-TEE/optee_os/lib/libutee/arch/arm/utee_syscalls_asm.S:52
     448:	d28002a8 	mov	x8, #0x15                  	// #21
     44c:	d4000001 	svc	#0x0
     450:	d65f03c0 	ret

0000000000000454 <utee_cipher_update>:
utee_cipher_update():
/home/zrz0517/study/TEE/RT-TEE/optee_os/lib/libutee/arch/arm/utee_syscalls_asm.S:54
     454:	d28002c8 	mov	x8, #0x16                  	// #22
     458:	d4000001 	svc	#0x0
     45c:	d65f03c0 	ret

0000000000000460 <utee_cipher_final>:
utee_cipher_final():
/home/zrz0517/study/TEE/RT-TEE/optee_os/lib/libutee/arch/arm/utee_syscalls_asm.S:56
     460:	d28002e8 	mov	x8, #0x17                  	// #23
     464:	d4000001 	svc	#0x0
     468:	d65f03c0 	ret

000000000000046c <utee_cryp_obj_get_info>:
utee_cryp_obj_get_info():
/home/zrz0517/study/TEE/RT-TEE/optee_os/lib/libutee/arch/arm/utee_syscalls_asm.S:58
     46c:	d2800308 	mov	x8, #0x18                  	// #24
     470:	d4000001 	svc	#0x0
     474:	d65f03c0 	ret

0000000000000478 <utee_cryp_obj_restrict_usage>:
utee_cryp_obj_restrict_usage():
/home/zrz0517/study/TEE/RT-TEE/optee_os/lib/libutee/arch/arm/utee_syscalls_asm.S:60
     478:	d2800328 	mov	x8, #0x19                  	// #25
     47c:	d4000001 	svc	#0x0
     480:	d65f03c0 	ret

0000000000000484 <utee_cryp_obj_get_attr>:
utee_cryp_obj_get_attr():
/home/zrz0517/study/TEE/RT-TEE/optee_os/lib/libutee/arch/arm/utee_syscalls_asm.S:63
     484:	d2800348 	mov	x8, #0x1a                  	// #26
     488:	d4000001 	svc	#0x0
     48c:	d65f03c0 	ret

0000000000000490 <utee_cryp_obj_alloc>:
utee_cryp_obj_alloc():
/home/zrz0517/study/TEE/RT-TEE/optee_os/lib/libutee/arch/arm/utee_syscalls_asm.S:65
     490:	d2800368 	mov	x8, #0x1b                  	// #27
     494:	d4000001 	svc	#0x0
     498:	d65f03c0 	ret

000000000000049c <utee_cryp_obj_close>:
utee_cryp_obj_close():
/home/zrz0517/study/TEE/RT-TEE/optee_os/lib/libutee/arch/arm/utee_syscalls_asm.S:67
     49c:	d2800388 	mov	x8, #0x1c                  	// #28
     4a0:	d4000001 	svc	#0x0
     4a4:	d65f03c0 	ret

00000000000004a8 <utee_cryp_obj_reset>:
utee_cryp_obj_reset():
/home/zrz0517/study/TEE/RT-TEE/optee_os/lib/libutee/arch/arm/utee_syscalls_asm.S:69
     4a8:	d28003a8 	mov	x8, #0x1d                  	// #29
     4ac:	d4000001 	svc	#0x0
     4b0:	d65f03c0 	ret

00000000000004b4 <utee_cryp_obj_populate>:
utee_cryp_obj_populate():
/home/zrz0517/study/TEE/RT-TEE/optee_os/lib/libutee/arch/arm/utee_syscalls_asm.S:71
     4b4:	d28003c8 	mov	x8, #0x1e                  	// #30
     4b8:	d4000001 	svc	#0x0
     4bc:	d65f03c0 	ret

00000000000004c0 <utee_cryp_obj_copy>:
utee_cryp_obj_copy():
/home/zrz0517/study/TEE/RT-TEE/optee_os/lib/libutee/arch/arm/utee_syscalls_asm.S:73
     4c0:	d28003e8 	mov	x8, #0x1f                  	// #31
     4c4:	d4000001 	svc	#0x0
     4c8:	d65f03c0 	ret

00000000000004cc <utee_cryp_derive_key>:
utee_cryp_derive_key():
/home/zrz0517/study/TEE/RT-TEE/optee_os/lib/libutee/arch/arm/utee_syscalls_asm.S:75
     4cc:	d2800408 	mov	x8, #0x20                  	// #32
     4d0:	d4000001 	svc	#0x0
     4d4:	d65f03c0 	ret

00000000000004d8 <utee_cryp_random_number_generate>:
utee_cryp_random_number_generate():
/home/zrz0517/study/TEE/RT-TEE/optee_os/lib/libutee/arch/arm/utee_syscalls_asm.S:77
     4d8:	d2800428 	mov	x8, #0x21                  	// #33
     4dc:	d4000001 	svc	#0x0
     4e0:	d65f03c0 	ret

00000000000004e4 <utee_authenc_init>:
utee_authenc_init():
/home/zrz0517/study/TEE/RT-TEE/optee_os/lib/libutee/arch/arm/utee_syscalls_asm.S:80
     4e4:	d2800448 	mov	x8, #0x22                  	// #34
     4e8:	d4000001 	svc	#0x0
     4ec:	d65f03c0 	ret

00000000000004f0 <utee_authenc_update_aad>:
utee_authenc_update_aad():
/home/zrz0517/study/TEE/RT-TEE/optee_os/lib/libutee/arch/arm/utee_syscalls_asm.S:82
     4f0:	d2800468 	mov	x8, #0x23                  	// #35
     4f4:	d4000001 	svc	#0x0
     4f8:	d65f03c0 	ret

00000000000004fc <utee_authenc_update_payload>:
utee_authenc_update_payload():
/home/zrz0517/study/TEE/RT-TEE/optee_os/lib/libutee/arch/arm/utee_syscalls_asm.S:84
     4fc:	d2800488 	mov	x8, #0x24                  	// #36
     500:	d4000001 	svc	#0x0
     504:	d65f03c0 	ret

0000000000000508 <utee_authenc_enc_final>:
utee_authenc_enc_final():
/home/zrz0517/study/TEE/RT-TEE/optee_os/lib/libutee/arch/arm/utee_syscalls_asm.S:87
     508:	d28004a8 	mov	x8, #0x25                  	// #37
     50c:	d4000001 	svc	#0x0
     510:	d65f03c0 	ret

0000000000000514 <utee_authenc_dec_final>:
utee_authenc_dec_final():
/home/zrz0517/study/TEE/RT-TEE/optee_os/lib/libutee/arch/arm/utee_syscalls_asm.S:89
     514:	d28004c8 	mov	x8, #0x26                  	// #38
     518:	d4000001 	svc	#0x0
     51c:	d65f03c0 	ret

0000000000000520 <utee_asymm_operate>:
utee_asymm_operate():
/home/zrz0517/study/TEE/RT-TEE/optee_os/lib/libutee/arch/arm/utee_syscalls_asm.S:91
     520:	d28004e8 	mov	x8, #0x27                  	// #39
     524:	d4000001 	svc	#0x0
     528:	d65f03c0 	ret

000000000000052c <utee_asymm_verify>:
utee_asymm_verify():
/home/zrz0517/study/TEE/RT-TEE/optee_os/lib/libutee/arch/arm/utee_syscalls_asm.S:93
     52c:	d2800508 	mov	x8, #0x28                  	// #40
     530:	d4000001 	svc	#0x0
     534:	d65f03c0 	ret

0000000000000538 <utee_storage_obj_open>:
utee_storage_obj_open():
/home/zrz0517/study/TEE/RT-TEE/optee_os/lib/libutee/arch/arm/utee_syscalls_asm.S:95
     538:	d2800528 	mov	x8, #0x29                  	// #41
     53c:	d4000001 	svc	#0x0
     540:	d65f03c0 	ret

0000000000000544 <utee_storage_obj_create>:
utee_storage_obj_create():
/home/zrz0517/study/TEE/RT-TEE/optee_os/lib/libutee/arch/arm/utee_syscalls_asm.S:97
     544:	d2800548 	mov	x8, #0x2a                  	// #42
     548:	d4000001 	svc	#0x0
     54c:	d65f03c0 	ret

0000000000000550 <utee_storage_obj_del>:
utee_storage_obj_del():
/home/zrz0517/study/TEE/RT-TEE/optee_os/lib/libutee/arch/arm/utee_syscalls_asm.S:99
     550:	d2800568 	mov	x8, #0x2b                  	// #43
     554:	d4000001 	svc	#0x0
     558:	d65f03c0 	ret

000000000000055c <utee_storage_obj_rename>:
utee_storage_obj_rename():
/home/zrz0517/study/TEE/RT-TEE/optee_os/lib/libutee/arch/arm/utee_syscalls_asm.S:101
     55c:	d2800588 	mov	x8, #0x2c                  	// #44
     560:	d4000001 	svc	#0x0
     564:	d65f03c0 	ret

0000000000000568 <utee_storage_alloc_enum>:
utee_storage_alloc_enum():
/home/zrz0517/study/TEE/RT-TEE/optee_os/lib/libutee/arch/arm/utee_syscalls_asm.S:103
     568:	d28005a8 	mov	x8, #0x2d                  	// #45
     56c:	d4000001 	svc	#0x0
     570:	d65f03c0 	ret

0000000000000574 <utee_storage_free_enum>:
utee_storage_free_enum():
/home/zrz0517/study/TEE/RT-TEE/optee_os/lib/libutee/arch/arm/utee_syscalls_asm.S:105
     574:	d28005c8 	mov	x8, #0x2e                  	// #46
     578:	d4000001 	svc	#0x0
     57c:	d65f03c0 	ret

0000000000000580 <utee_storage_reset_enum>:
utee_storage_reset_enum():
/home/zrz0517/study/TEE/RT-TEE/optee_os/lib/libutee/arch/arm/utee_syscalls_asm.S:107
     580:	d28005e8 	mov	x8, #0x2f                  	// #47
     584:	d4000001 	svc	#0x0
     588:	d65f03c0 	ret

000000000000058c <utee_storage_start_enum>:
utee_storage_start_enum():
/home/zrz0517/study/TEE/RT-TEE/optee_os/lib/libutee/arch/arm/utee_syscalls_asm.S:109
     58c:	d2800608 	mov	x8, #0x30                  	// #48
     590:	d4000001 	svc	#0x0
     594:	d65f03c0 	ret

0000000000000598 <utee_storage_next_enum>:
utee_storage_next_enum():
/home/zrz0517/study/TEE/RT-TEE/optee_os/lib/libutee/arch/arm/utee_syscalls_asm.S:111
     598:	d2800628 	mov	x8, #0x31                  	// #49
     59c:	d4000001 	svc	#0x0
     5a0:	d65f03c0 	ret

00000000000005a4 <utee_storage_obj_read>:
utee_storage_obj_read():
/home/zrz0517/study/TEE/RT-TEE/optee_os/lib/libutee/arch/arm/utee_syscalls_asm.S:113
     5a4:	d2800648 	mov	x8, #0x32                  	// #50
     5a8:	d4000001 	svc	#0x0
     5ac:	d65f03c0 	ret

00000000000005b0 <utee_storage_obj_write>:
utee_storage_obj_write():
/home/zrz0517/study/TEE/RT-TEE/optee_os/lib/libutee/arch/arm/utee_syscalls_asm.S:115
     5b0:	d2800668 	mov	x8, #0x33                  	// #51
     5b4:	d4000001 	svc	#0x0
     5b8:	d65f03c0 	ret

00000000000005bc <utee_storage_obj_trunc>:
utee_storage_obj_trunc():
/home/zrz0517/study/TEE/RT-TEE/optee_os/lib/libutee/arch/arm/utee_syscalls_asm.S:117
     5bc:	d2800688 	mov	x8, #0x34                  	// #52
     5c0:	d4000001 	svc	#0x0
     5c4:	d65f03c0 	ret

00000000000005c8 <utee_storage_obj_seek>:
utee_storage_obj_seek():
/home/zrz0517/study/TEE/RT-TEE/optee_os/lib/libutee/arch/arm/utee_syscalls_asm.S:119
     5c8:	d28006a8 	mov	x8, #0x35                  	// #53
     5cc:	d4000001 	svc	#0x0
     5d0:	d65f03c0 	ret

00000000000005d4 <utee_cryp_obj_generate_key>:
utee_cryp_obj_generate_key():
/home/zrz0517/study/TEE/RT-TEE/optee_os/lib/libutee/arch/arm/utee_syscalls_asm.S:121
     5d4:	d28006c8 	mov	x8, #0x36                  	// #54
     5d8:	d4000001 	svc	#0x0
     5dc:	d65f03c0 	ret

00000000000005e0 <utee_cache_operation>:
utee_cache_operation():
/home/zrz0517/study/TEE/RT-TEE/optee_os/lib/libutee/arch/arm/utee_syscalls_asm.S:124
     5e0:	d28008c8 	mov	x8, #0x46                  	// #70
     5e4:	d4000001 	svc	#0x0
     5e8:	d65f03c0 	ret

00000000000005ec <__utee_mcount>:
__utee_mcount():
/home/zrz0517/study/TEE/RT-TEE/optee_os/lib/libutee/arch/arm/gprof/gprof_a64.S:52
     5ec:	d65f03c0 	ret

00000000000005f0 <__utee_from_param>:
__utee_from_param():
/home/zrz0517/study/TEE/RT-TEE/optee_os/lib/libutee/tee_api.c:25
     5f0:	b0000045 	adrp	x5, 9000 <__text_end+0xd6c>
     5f4:	912bd0a5 	add	x5, x5, #0xaf4
/home/zrz0517/study/TEE/RT-TEE/optee_os/lib/libutee/tee_api.c:23
     5f8:	2a0103e3 	mov	w3, w1
     5fc:	52800004 	mov	w4, #0x0                   	// #0
     600:	f8008403 	str	x3, [x0], #8
/home/zrz0517/study/TEE/RT-TEE/optee_os/lib/libutee/tee_api.c:25
     604:	1ac42423 	lsr	w3, w1, w4
     608:	12000c63 	and	w3, w3, #0xf
     60c:	51000463 	sub	w3, w3, #0x1
     610:	7100187f 	cmp	w3, #0x6
     614:	54000268 	b.hi	660 <__utee_from_param+0x70>  // b.pmore
     618:	386348a3 	ldrb	w3, [x5, w3, uxtw]
     61c:	10000066 	adr	x6, 628 <__utee_from_param+0x38>
     620:	8b2388c3 	add	x3, x6, w3, sxtb #2
     624:	d61f0060 	br	x3
/home/zrz0517/study/TEE/RT-TEE/optee_os/lib/libutee/tee_api.c:29
     628:	b9400043 	ldr	w3, [x2]
     62c:	f9000003 	str	x3, [x0]
/home/zrz0517/study/TEE/RT-TEE/optee_os/lib/libutee/tee_api.c:30
     630:	b9400443 	ldr	w3, [x2, #4]
/home/zrz0517/study/TEE/RT-TEE/optee_os/lib/libutee/tee_api.c:36
     634:	f9000403 	str	x3, [x0, #8]
/home/zrz0517/study/TEE/RT-TEE/optee_os/lib/libutee/tee_api.c:37
     638:	11001084 	add	w4, w4, #0x4
     63c:	91004042 	add	x2, x2, #0x10
     640:	91004000 	add	x0, x0, #0x10
/home/zrz0517/study/TEE/RT-TEE/optee_os/lib/libutee/tee_api.c:24 (discriminator 2)
     644:	7100409f 	cmp	w4, #0x10
     648:	54fffde1 	b.ne	604 <__utee_from_param+0x14>  // b.any
/home/zrz0517/study/TEE/RT-TEE/optee_os/lib/libutee/tee_api.c:44
     64c:	d65f03c0 	ret
/home/zrz0517/study/TEE/RT-TEE/optee_os/lib/libutee/tee_api.c:35
     650:	f9400043 	ldr	x3, [x2]
     654:	f9000003 	str	x3, [x0]
/home/zrz0517/study/TEE/RT-TEE/optee_os/lib/libutee/tee_api.c:36
     658:	b9400843 	ldr	w3, [x2, #8]
     65c:	17fffff6 	b	634 <__utee_from_param+0x44>
/home/zrz0517/study/TEE/RT-TEE/optee_os/lib/libutee/tee_api.c:40
     660:	a9007c1f 	stp	xzr, xzr, [x0]
/home/zrz0517/study/TEE/RT-TEE/optee_os/lib/libutee/tee_api.c:41
     664:	17fffff5 	b	638 <__utee_from_param+0x48>

0000000000000668 <__utee_to_param>:
__utee_to_param():
/home/zrz0517/study/TEE/RT-TEE/optee_os/lib/libutee/tee_api.c:50
     668:	f8408446 	ldr	x6, [x2], #8
/home/zrz0517/study/TEE/RT-TEE/optee_os/lib/libutee/tee_api.c:56
     66c:	b0000045 	adrp	x5, 9000 <__text_end+0xd6c>
     670:	912bf0a5 	add	x5, x5, #0xafc
/home/zrz0517/study/TEE/RT-TEE/optee_os/lib/libutee/tee_api.c:50
     674:	52800004 	mov	w4, #0x0                   	// #0
     678:	2a0603e9 	mov	w9, w6
/home/zrz0517/study/TEE/RT-TEE/optee_os/lib/libutee/tee_api.c:56
     67c:	1ac42523 	lsr	w3, w9, w4
     680:	12000c63 	and	w3, w3, #0xf
     684:	51000463 	sub	w3, w3, #0x1
     688:	7100187f 	cmp	w3, #0x6
/home/zrz0517/study/TEE/RT-TEE/optee_os/lib/libutee/tee_api.c:54
     68c:	a9401c48 	ldp	x8, x7, [x2]
/home/zrz0517/study/TEE/RT-TEE/optee_os/lib/libutee/tee_api.c:56
     690:	540000c8 	b.hi	6a8 <__utee_to_param+0x40>  // b.pmore
     694:	386348a3 	ldrb	w3, [x5, w3, uxtw]
     698:	1000006a 	adr	x10, 6a4 <__utee_to_param+0x3c>
     69c:	8b238943 	add	x3, x10, w3, sxtb #2
     6a0:	d61f0060 	br	x3
/home/zrz0517/study/TEE/RT-TEE/optee_os/lib/libutee/tee_api.c:61
     6a4:	29001c08 	stp	w8, w7, [x0]
/home/zrz0517/study/TEE/RT-TEE/optee_os/lib/libutee/tee_api.c:62
     6a8:	11001084 	add	w4, w4, #0x4
     6ac:	91004042 	add	x2, x2, #0x10
     6b0:	91004000 	add	x0, x0, #0x10
/home/zrz0517/study/TEE/RT-TEE/optee_os/lib/libutee/tee_api.c:52 (discriminator 2)
     6b4:	7100409f 	cmp	w4, #0x10
     6b8:	54fffe21 	b.ne	67c <__utee_to_param+0x14>  // b.any
/home/zrz0517/study/TEE/RT-TEE/optee_os/lib/libutee/tee_api.c:74
     6bc:	b4000041 	cbz	x1, 6c4 <__utee_to_param+0x5c>
/home/zrz0517/study/TEE/RT-TEE/optee_os/lib/libutee/tee_api.c:75
     6c0:	b9000026 	str	w6, [x1]
/home/zrz0517/study/TEE/RT-TEE/optee_os/lib/libutee/tee_api.c:76
     6c4:	d65f03c0 	ret
/home/zrz0517/study/TEE/RT-TEE/optee_os/lib/libutee/tee_api.c:66
     6c8:	f9000008 	str	x8, [x0]
/home/zrz0517/study/TEE/RT-TEE/optee_os/lib/libutee/tee_api.c:67
     6cc:	b9000807 	str	w7, [x0, #8]
/home/zrz0517/study/TEE/RT-TEE/optee_os/lib/libutee/tee_api.c:68
     6d0:	17fffff6 	b	6a8 <__utee_to_param+0x40>

00000000000006d4 <TEE_OpenTASession>:
TEE_OpenTASession():
/home/zrz0517/study/TEE/RT-TEE/optee_os/lib/libutee/tee_api.c:84
     6d4:	a9b77bfd 	stp	x29, x30, [sp, #-144]!
     6d8:	aa0003e7 	mov	x7, x0
     6dc:	2a0103e8 	mov	w8, w1
     6e0:	910003fd 	mov	x29, sp
     6e4:	a90153f3 	stp	x19, x20, [sp, #16]
/home/zrz0517/study/TEE/RT-TEE/optee_os/lib/libutee/tee_api.c:89
     6e8:	910123f3 	add	x19, sp, #0x48
/home/zrz0517/study/TEE/RT-TEE/optee_os/lib/libutee/tee_api.c:84
     6ec:	2a0203e1 	mov	w1, w2
     6f0:	aa0303f4 	mov	x20, x3
/home/zrz0517/study/TEE/RT-TEE/optee_os/lib/libutee/tee_api.c:89
     6f4:	aa0303e2 	mov	x2, x3
     6f8:	aa1303e0 	mov	x0, x19
/home/zrz0517/study/TEE/RT-TEE/optee_os/lib/libutee/tee_api.c:84
     6fc:	f90013f5 	str	x21, [sp, #32]
     700:	aa0403f5 	mov	x21, x4
     704:	f9001fe5 	str	x5, [sp, #56]
/home/zrz0517/study/TEE/RT-TEE/optee_os/lib/libutee/tee_api.c:89
     708:	97ffffba 	bl	5f0 <__utee_from_param>
/home/zrz0517/study/TEE/RT-TEE/optee_os/lib/libutee/tee_api.c:90
     70c:	2a0803e1 	mov	w1, w8
     710:	f9401fe4 	ldr	x4, [sp, #56]
     714:	aa1303e2 	mov	x2, x19
     718:	910113e3 	add	x3, sp, #0x44
     71c:	aa0703e0 	mov	x0, x7
     720:	97ffff1a 	bl	388 <utee_open_ta_session>
     724:	2a0003eb 	mov	w11, w0
/home/zrz0517/study/TEE/RT-TEE/optee_os/lib/libutee/tee_api.c:92
     728:	aa1303e2 	mov	x2, x19
     72c:	d2800001 	mov	x1, #0x0                   	// #0
     730:	aa1403e0 	mov	x0, x20
     734:	97ffffcd 	bl	668 <__utee_to_param>
/home/zrz0517/study/TEE/RT-TEE/optee_os/lib/libutee/tee_api.c:98
     738:	3400004b 	cbz	w11, 740 <TEE_OpenTASession+0x6c>
/home/zrz0517/study/TEE/RT-TEE/optee_os/lib/libutee/tee_api.c:99
     73c:	b90047ff 	str	wzr, [sp, #68]
/home/zrz0517/study/TEE/RT-TEE/optee_os/lib/libutee/tee_api.c:101
     740:	b94047e0 	ldr	w0, [sp, #68]
/home/zrz0517/study/TEE/RT-TEE/optee_os/lib/libutee/tee_api.c:103
     744:	a94153f3 	ldp	x19, x20, [sp, #16]
/home/zrz0517/study/TEE/RT-TEE/optee_os/lib/libutee/tee_api.c:101
     748:	f90002a0 	str	x0, [x21]
/home/zrz0517/study/TEE/RT-TEE/optee_os/lib/libutee/tee_api.c:103
     74c:	2a0b03e0 	mov	w0, w11
     750:	f94013f5 	ldr	x21, [sp, #32]
     754:	a8c97bfd 	ldp	x29, x30, [sp], #144
     758:	d65f03c0 	ret

000000000000075c <TEE_CloseTASession>:
TEE_CloseTASession():
/home/zrz0517/study/TEE/RT-TEE/optee_os/lib/libutee/tee_api.c:107
     75c:	b4000120 	cbz	x0, 780 <TEE_CloseTASession+0x24>
/home/zrz0517/study/TEE/RT-TEE/optee_os/lib/libutee/tee_api.c:106
     760:	a9bf7bfd 	stp	x29, x30, [sp, #-16]!
     764:	910003fd 	mov	x29, sp
/home/zrz0517/study/TEE/RT-TEE/optee_os/lib/libutee/tee_api.c:108
     768:	97ffff0b 	bl	394 <utee_close_ta_session>
/home/zrz0517/study/TEE/RT-TEE/optee_os/lib/libutee/tee_api.c:110
     76c:	34000060 	cbz	w0, 778 <TEE_CloseTASession+0x1c>
/home/zrz0517/study/TEE/RT-TEE/optee_os/lib/libutee/tee_api.c:113
     770:	a8c17bfd 	ldp	x29, x30, [sp], #16
/home/zrz0517/study/TEE/RT-TEE/optee_os/lib/libutee/tee_api.c:111
     774:	140000d3 	b	ac0 <TEE_Panic>
/home/zrz0517/study/TEE/RT-TEE/optee_os/lib/libutee/tee_api.c:113
     778:	a8c17bfd 	ldp	x29, x30, [sp], #16
     77c:	d65f03c0 	ret
     780:	d65f03c0 	ret

0000000000000784 <TEE_InvokeTACommand>:
TEE_InvokeTACommand():
/home/zrz0517/study/TEE/RT-TEE/optee_os/lib/libutee/tee_api.c:120
     784:	a9b87bfd 	stp	x29, x30, [sp, #-128]!
     788:	aa0003e7 	mov	x7, x0
     78c:	2a0103e8 	mov	w8, w1
     790:	2a0203e9 	mov	w9, w2
     794:	910003fd 	mov	x29, sp
/home/zrz0517/study/TEE/RT-TEE/optee_os/lib/libutee/tee_api.c:125
     798:	aa0403e2 	mov	x2, x4
/home/zrz0517/study/TEE/RT-TEE/optee_os/lib/libutee/tee_api.c:120
     79c:	a90153f3 	stp	x19, x20, [sp, #16]
/home/zrz0517/study/TEE/RT-TEE/optee_os/lib/libutee/tee_api.c:125
     7a0:	9100e3f4 	add	x20, sp, #0x38
     7a4:	2a0303e1 	mov	w1, w3
     7a8:	aa1403e0 	mov	x0, x20
/home/zrz0517/study/TEE/RT-TEE/optee_os/lib/libutee/tee_api.c:120
     7ac:	a9025bf5 	stp	x21, x22, [sp, #32]
     7b0:	aa0403f6 	mov	x22, x4
     7b4:	aa0503f5 	mov	x21, x5
/home/zrz0517/study/TEE/RT-TEE/optee_os/lib/libutee/tee_api.c:125
     7b8:	97ffff8e 	bl	5f0 <__utee_from_param>
/home/zrz0517/study/TEE/RT-TEE/optee_os/lib/libutee/tee_api.c:126
     7bc:	9100d3e4 	add	x4, sp, #0x34
     7c0:	aa1403e3 	mov	x3, x20
     7c4:	2a0903e2 	mov	w2, w9
     7c8:	2a0803e1 	mov	w1, w8
     7cc:	aa0703e0 	mov	x0, x7
     7d0:	97fffef4 	bl	3a0 <utee_invoke_ta_command>
/home/zrz0517/study/TEE/RT-TEE/optee_os/lib/libutee/tee_api.c:129
     7d4:	aa1403e2 	mov	x2, x20
/home/zrz0517/study/TEE/RT-TEE/optee_os/lib/libutee/tee_api.c:126
     7d8:	2a0003f3 	mov	w19, w0
/home/zrz0517/study/TEE/RT-TEE/optee_os/lib/libutee/tee_api.c:129
     7dc:	d2800001 	mov	x1, #0x0                   	// #0
     7e0:	aa1603e0 	mov	x0, x22
     7e4:	97ffffa1 	bl	668 <__utee_to_param>
/home/zrz0517/study/TEE/RT-TEE/optee_os/lib/libutee/tee_api.c:131
     7e8:	b94037e0 	ldr	w0, [sp, #52]
     7ec:	b4000055 	cbz	x21, 7f4 <TEE_InvokeTACommand+0x70>
/home/zrz0517/study/TEE/RT-TEE/optee_os/lib/libutee/tee_api.c:132
     7f0:	b90002a0 	str	w0, [x21]
/home/zrz0517/study/TEE/RT-TEE/optee_os/lib/libutee/tee_api.c:134
     7f4:	7100101f 	cmp	w0, #0x4
     7f8:	54000140 	b.eq	820 <TEE_InvokeTACommand+0x9c>  // b.none
/home/zrz0517/study/TEE/RT-TEE/optee_os/lib/libutee/tee_api.c:137
     7fc:	7100027f 	cmp	w19, #0x0
     800:	129ffe60 	mov	w0, #0xffff000c            	// #-65524
     804:	7a401264 	ccmp	w19, w0, #0x4, ne  // ne = any
     808:	540000c0 	b.eq	820 <TEE_InvokeTACommand+0x9c>  // b.none
/home/zrz0517/study/TEE/RT-TEE/optee_os/lib/libutee/tee_api.c:138
     80c:	1299fb60 	mov	w0, #0xffff3024            	// #-53212
     810:	6b00027f 	cmp	w19, w0
     814:	54000060 	b.eq	820 <TEE_InvokeTACommand+0x9c>  // b.none
/home/zrz0517/study/TEE/RT-TEE/optee_os/lib/libutee/tee_api.c:140
     818:	2a1303e0 	mov	w0, w19
     81c:	940000a9 	bl	ac0 <TEE_Panic>
/home/zrz0517/study/TEE/RT-TEE/optee_os/lib/libutee/tee_api.c:143
     820:	2a1303e0 	mov	w0, w19
     824:	a94153f3 	ldp	x19, x20, [sp, #16]
     828:	a9425bf5 	ldp	x21, x22, [sp, #32]
     82c:	a8c87bfd 	ldp	x29, x30, [sp], #128
     830:	d65f03c0 	ret

0000000000000834 <TEE_GetCancellationFlag>:
TEE_GetCancellationFlag():
/home/zrz0517/study/TEE/RT-TEE/optee_os/lib/libutee/tee_api.c:148
     834:	a9be7bfd 	stp	x29, x30, [sp, #-32]!
     838:	910003fd 	mov	x29, sp
/home/zrz0517/study/TEE/RT-TEE/optee_os/lib/libutee/tee_api.c:150
     83c:	910073e0 	add	x0, sp, #0x1c
     840:	97fffedb 	bl	3ac <utee_get_cancellation_flag>
/home/zrz0517/study/TEE/RT-TEE/optee_os/lib/libutee/tee_api.c:152
     844:	34000040 	cbz	w0, 84c <TEE_GetCancellationFlag+0x18>
/home/zrz0517/study/TEE/RT-TEE/optee_os/lib/libutee/tee_api.c:153
     848:	b9001fff 	str	wzr, [sp, #28]
/home/zrz0517/study/TEE/RT-TEE/optee_os/lib/libutee/tee_api.c:154
     84c:	b9401fe0 	ldr	w0, [sp, #28]
/home/zrz0517/study/TEE/RT-TEE/optee_os/lib/libutee/tee_api.c:155
     850:	a8c27bfd 	ldp	x29, x30, [sp], #32
/home/zrz0517/study/TEE/RT-TEE/optee_os/lib/libutee/tee_api.c:154
     854:	7100001f 	cmp	w0, #0x0
/home/zrz0517/study/TEE/RT-TEE/optee_os/lib/libutee/tee_api.c:155
     858:	1a9f07e0 	cset	w0, ne  // ne = any
     85c:	d65f03c0 	ret

0000000000000860 <TEE_UnmaskCancellation>:
TEE_UnmaskCancellation():
/home/zrz0517/study/TEE/RT-TEE/optee_os/lib/libutee/tee_api.c:158
     860:	a9be7bfd 	stp	x29, x30, [sp, #-32]!
     864:	910003fd 	mov	x29, sp
/home/zrz0517/study/TEE/RT-TEE/optee_os/lib/libutee/tee_api.c:160
     868:	910073e0 	add	x0, sp, #0x1c
     86c:	97fffed6 	bl	3c4 <utee_unmask_cancellation>
/home/zrz0517/study/TEE/RT-TEE/optee_os/lib/libutee/tee_api.c:162
     870:	34000040 	cbz	w0, 878 <TEE_UnmaskCancellation+0x18>
/home/zrz0517/study/TEE/RT-TEE/optee_os/lib/libutee/tee_api.c:163
     874:	94000093 	bl	ac0 <TEE_Panic>
/home/zrz0517/study/TEE/RT-TEE/optee_os/lib/libutee/tee_api.c:164
     878:	b9401fe0 	ldr	w0, [sp, #28]
/home/zrz0517/study/TEE/RT-TEE/optee_os/lib/libutee/tee_api.c:165
     87c:	a8c27bfd 	ldp	x29, x30, [sp], #32
/home/zrz0517/study/TEE/RT-TEE/optee_os/lib/libutee/tee_api.c:164
     880:	7100001f 	cmp	w0, #0x0
/home/zrz0517/study/TEE/RT-TEE/optee_os/lib/libutee/tee_api.c:165
     884:	1a9f07e0 	cset	w0, ne  // ne = any
     888:	d65f03c0 	ret

000000000000088c <TEE_MaskCancellation>:
TEE_MaskCancellation():
/home/zrz0517/study/TEE/RT-TEE/optee_os/lib/libutee/tee_api.c:168
     88c:	a9be7bfd 	stp	x29, x30, [sp, #-32]!
     890:	910003fd 	mov	x29, sp
/home/zrz0517/study/TEE/RT-TEE/optee_os/lib/libutee/tee_api.c:170
     894:	910073e0 	add	x0, sp, #0x1c
     898:	97fffece 	bl	3d0 <utee_mask_cancellation>
/home/zrz0517/study/TEE/RT-TEE/optee_os/lib/libutee/tee_api.c:172
     89c:	34000040 	cbz	w0, 8a4 <TEE_MaskCancellation+0x18>
/home/zrz0517/study/TEE/RT-TEE/optee_os/lib/libutee/tee_api.c:173
     8a0:	94000088 	bl	ac0 <TEE_Panic>
/home/zrz0517/study/TEE/RT-TEE/optee_os/lib/libutee/tee_api.c:174
     8a4:	b9401fe0 	ldr	w0, [sp, #28]
/home/zrz0517/study/TEE/RT-TEE/optee_os/lib/libutee/tee_api.c:175
     8a8:	a8c27bfd 	ldp	x29, x30, [sp], #32
/home/zrz0517/study/TEE/RT-TEE/optee_os/lib/libutee/tee_api.c:174
     8ac:	7100001f 	cmp	w0, #0x0
/home/zrz0517/study/TEE/RT-TEE/optee_os/lib/libutee/tee_api.c:175
     8b0:	1a9f07e0 	cset	w0, ne  // ne = any
     8b4:	d65f03c0 	ret

00000000000008b8 <TEE_CheckMemoryAccessRights>:
TEE_CheckMemoryAccessRights():
/home/zrz0517/study/TEE/RT-TEE/optee_os/lib/libutee/tee_api.c:184
     8b8:	34000062 	cbz	w2, 8c4 <TEE_CheckMemoryAccessRights+0xc>
/home/zrz0517/study/TEE/RT-TEE/optee_os/lib/libutee/tee_api.c:188
     8bc:	2a0203e2 	mov	w2, w2
     8c0:	17fffebe 	b	3b8 <utee_check_access_rights>
/home/zrz0517/study/TEE/RT-TEE/optee_os/lib/libutee/tee_api.c:200
     8c4:	52800000 	mov	w0, #0x0                   	// #0
     8c8:	d65f03c0 	ret

00000000000008cc <TEE_SetInstanceData>:
TEE_SetInstanceData():
/home/zrz0517/study/TEE/RT-TEE/optee_os/lib/libutee/tee_api.c:204
     8cc:	90000061 	adrp	x1, c000 <ta_props>
     8d0:	f900bc20 	str	x0, [x1, #376]
/home/zrz0517/study/TEE/RT-TEE/optee_os/lib/libutee/tee_api.c:205
     8d4:	d65f03c0 	ret

00000000000008d8 <TEE_GetInstanceData>:
TEE_GetInstanceData():
/home/zrz0517/study/TEE/RT-TEE/optee_os/lib/libutee/tee_api.c:210
     8d8:	90000060 	adrp	x0, c000 <ta_props>
     8dc:	f940bc00 	ldr	x0, [x0, #376]
     8e0:	d65f03c0 	ret

00000000000008e4 <TEE_MemMove>:
TEE_MemMove():
/home/zrz0517/study/TEE/RT-TEE/optee_os/lib/libutee/tee_api.c:214
     8e4:	2a0203e2 	mov	w2, w2
     8e8:	140019e2 	b	7070 <memmove>

00000000000008ec <TEE_MemCompare>:
TEE_MemCompare():
/home/zrz0517/study/TEE/RT-TEE/optee_os/lib/libutee/tee_api.c:219
     8ec:	2a0203e2 	mov	w2, w2
     8f0:	140019cb 	b	701c <memcmp>

00000000000008f4 <TEE_MemFill>:
TEE_MemFill():
/home/zrz0517/study/TEE/RT-TEE/optee_os/lib/libutee/tee_api.c:224
     8f4:	2a0203e2 	mov	w2, w2
     8f8:	140019f5 	b	70cc <memset>

00000000000008fc <TEE_GetSystemTime>:
TEE_GetSystemTime():
/home/zrz0517/study/TEE/RT-TEE/optee_os/lib/libutee/tee_api.c:230
     8fc:	a9bf7bfd 	stp	x29, x30, [sp, #-16]!
/home/zrz0517/study/TEE/RT-TEE/optee_os/lib/libutee/tee_api.c:231
     900:	aa0003e1 	mov	x1, x0
     904:	d2800000 	mov	x0, #0x0                   	// #0
/home/zrz0517/study/TEE/RT-TEE/optee_os/lib/libutee/tee_api.c:230
     908:	910003fd 	mov	x29, sp
/home/zrz0517/study/TEE/RT-TEE/optee_os/lib/libutee/tee_api.c:231
     90c:	97fffeb7 	bl	3e8 <utee_get_time>
/home/zrz0517/study/TEE/RT-TEE/optee_os/lib/libutee/tee_api.c:233
     910:	34000060 	cbz	w0, 91c <TEE_GetSystemTime+0x20>
/home/zrz0517/study/TEE/RT-TEE/optee_os/lib/libutee/tee_api.c:235
     914:	a8c17bfd 	ldp	x29, x30, [sp], #16
/home/zrz0517/study/TEE/RT-TEE/optee_os/lib/libutee/tee_api.c:234
     918:	1400006a 	b	ac0 <TEE_Panic>
/home/zrz0517/study/TEE/RT-TEE/optee_os/lib/libutee/tee_api.c:235
     91c:	a8c17bfd 	ldp	x29, x30, [sp], #16
     920:	d65f03c0 	ret

0000000000000924 <TEE_Wait>:
TEE_Wait():
/home/zrz0517/study/TEE/RT-TEE/optee_os/lib/libutee/tee_api.c:238
     924:	a9be7bfd 	stp	x29, x30, [sp, #-32]!
/home/zrz0517/study/TEE/RT-TEE/optee_os/lib/libutee/tee_api.c:239
     928:	2a0003e0 	mov	w0, w0
/home/zrz0517/study/TEE/RT-TEE/optee_os/lib/libutee/tee_api.c:238
     92c:	910003fd 	mov	x29, sp
     930:	f9000bf3 	str	x19, [sp, #16]
/home/zrz0517/study/TEE/RT-TEE/optee_os/lib/libutee/tee_api.c:239
     934:	97fffeaa 	bl	3dc <utee_wait>
/home/zrz0517/study/TEE/RT-TEE/optee_os/lib/libutee/tee_api.c:241
     938:	7100001f 	cmp	w0, #0x0
     93c:	129fffa1 	mov	w1, #0xffff0002            	// #-65534
/home/zrz0517/study/TEE/RT-TEE/optee_os/lib/libutee/tee_api.c:239
     940:	2a0003f3 	mov	w19, w0
/home/zrz0517/study/TEE/RT-TEE/optee_os/lib/libutee/tee_api.c:241
     944:	7a411004 	ccmp	w0, w1, #0x4, ne  // ne = any
     948:	54000040 	b.eq	950 <TEE_Wait+0x2c>  // b.none
/home/zrz0517/study/TEE/RT-TEE/optee_os/lib/libutee/tee_api.c:242
     94c:	9400005d 	bl	ac0 <TEE_Panic>
/home/zrz0517/study/TEE/RT-TEE/optee_os/lib/libutee/tee_api.c:245
     950:	2a1303e0 	mov	w0, w19
     954:	f9400bf3 	ldr	x19, [sp, #16]
     958:	a8c27bfd 	ldp	x29, x30, [sp], #32
     95c:	d65f03c0 	ret

0000000000000960 <TEE_GetTAPersistentTime>:
TEE_GetTAPersistentTime():
/home/zrz0517/study/TEE/RT-TEE/optee_os/lib/libutee/tee_api.c:248
     960:	a9be7bfd 	stp	x29, x30, [sp, #-32]!
/home/zrz0517/study/TEE/RT-TEE/optee_os/lib/libutee/tee_api.c:251
     964:	aa0003e1 	mov	x1, x0
/home/zrz0517/study/TEE/RT-TEE/optee_os/lib/libutee/tee_api.c:248
     968:	910003fd 	mov	x29, sp
     96c:	a90153f3 	stp	x19, x20, [sp, #16]
     970:	aa0003f4 	mov	x20, x0
/home/zrz0517/study/TEE/RT-TEE/optee_os/lib/libutee/tee_api.c:251
     974:	d2800020 	mov	x0, #0x1                   	// #1
     978:	97fffe9c 	bl	3e8 <utee_get_time>
/home/zrz0517/study/TEE/RT-TEE/optee_os/lib/libutee/tee_api.c:253
     97c:	7100001f 	cmp	w0, #0x0
/home/zrz0517/study/TEE/RT-TEE/optee_os/lib/libutee/tee_api.c:251
     980:	2a0003f3 	mov	w19, w0
/home/zrz0517/study/TEE/RT-TEE/optee_os/lib/libutee/tee_api.c:253
     984:	1a9f07e2 	cset	w2, ne  // ne = any
     988:	1299fe00 	mov	w0, #0xffff300f            	// #-53233
     98c:	6b00027f 	cmp	w19, w0
     990:	1a9f1041 	csel	w1, w2, wzr, ne  // ne = any
     994:	34000041 	cbz	w1, 99c <TEE_GetTAPersistentTime+0x3c>
/home/zrz0517/study/TEE/RT-TEE/optee_os/lib/libutee/tee_api.c:255
     998:	29007e9f 	stp	wzr, wzr, [x20]
/home/zrz0517/study/TEE/RT-TEE/optee_os/lib/libutee/tee_api.c:259
     99c:	11402e60 	add	w0, w19, #0xb, lsl #12
/home/zrz0517/study/TEE/RT-TEE/optee_os/lib/libutee/tee_api.c:258
     9a0:	7100005f 	cmp	w2, #0x0
     9a4:	7a411800 	ccmp	w0, #0x1, #0x0, ne  // ne = any
     9a8:	540000e9 	b.ls	9c4 <TEE_GetTAPersistentTime+0x64>  // b.plast
/home/zrz0517/study/TEE/RT-TEE/optee_os/lib/libutee/tee_api.c:260
     9ac:	340000c1 	cbz	w1, 9c4 <TEE_GetTAPersistentTime+0x64>
/home/zrz0517/study/TEE/RT-TEE/optee_os/lib/libutee/tee_api.c:261
     9b0:	129ffe60 	mov	w0, #0xffff000c            	// #-65524
     9b4:	6b00027f 	cmp	w19, w0
     9b8:	54000060 	b.eq	9c4 <TEE_GetTAPersistentTime+0x64>  // b.none
/home/zrz0517/study/TEE/RT-TEE/optee_os/lib/libutee/tee_api.c:263
     9bc:	2a1303e0 	mov	w0, w19
     9c0:	94000040 	bl	ac0 <TEE_Panic>
/home/zrz0517/study/TEE/RT-TEE/optee_os/lib/libutee/tee_api.c:266
     9c4:	2a1303e0 	mov	w0, w19
     9c8:	a94153f3 	ldp	x19, x20, [sp, #16]
     9cc:	a8c27bfd 	ldp	x29, x30, [sp], #32
     9d0:	d65f03c0 	ret

00000000000009d4 <TEE_SetTAPersistentTime>:
TEE_SetTAPersistentTime():
/home/zrz0517/study/TEE/RT-TEE/optee_os/lib/libutee/tee_api.c:269
     9d4:	a9be7bfd 	stp	x29, x30, [sp, #-32]!
     9d8:	910003fd 	mov	x29, sp
     9dc:	f9000bf3 	str	x19, [sp, #16]
/home/zrz0517/study/TEE/RT-TEE/optee_os/lib/libutee/tee_api.c:272
     9e0:	97fffe85 	bl	3f4 <utee_set_ta_time>
/home/zrz0517/study/TEE/RT-TEE/optee_os/lib/libutee/tee_api.c:274
     9e4:	7100001f 	cmp	w0, #0x0
     9e8:	129ffe61 	mov	w1, #0xffff000c            	// #-65524
/home/zrz0517/study/TEE/RT-TEE/optee_os/lib/libutee/tee_api.c:272
     9ec:	2a0003f3 	mov	w19, w0
/home/zrz0517/study/TEE/RT-TEE/optee_os/lib/libutee/tee_api.c:274
     9f0:	7a411004 	ccmp	w0, w1, #0x4, ne  // ne = any
     9f4:	540000a0 	b.eq	a08 <TEE_SetTAPersistentTime+0x34>  // b.none
/home/zrz0517/study/TEE/RT-TEE/optee_os/lib/libutee/tee_api.c:275
     9f8:	1299f7c1 	mov	w1, #0xffff3041            	// #-53183
     9fc:	6b01001f 	cmp	w0, w1
     a00:	54000040 	b.eq	a08 <TEE_SetTAPersistentTime+0x34>  // b.none
/home/zrz0517/study/TEE/RT-TEE/optee_os/lib/libutee/tee_api.c:277
     a04:	9400002f 	bl	ac0 <TEE_Panic>
/home/zrz0517/study/TEE/RT-TEE/optee_os/lib/libutee/tee_api.c:280
     a08:	2a1303e0 	mov	w0, w19
     a0c:	f9400bf3 	ldr	x19, [sp, #16]
     a10:	a8c27bfd 	ldp	x29, x30, [sp], #32
     a14:	d65f03c0 	ret

0000000000000a18 <TEE_GetREETime>:
TEE_GetREETime():
/home/zrz0517/study/TEE/RT-TEE/optee_os/lib/libutee/tee_api.c:283
     a18:	a9bf7bfd 	stp	x29, x30, [sp, #-16]!
/home/zrz0517/study/TEE/RT-TEE/optee_os/lib/libutee/tee_api.c:284
     a1c:	aa0003e1 	mov	x1, x0
     a20:	d2800040 	mov	x0, #0x2                   	// #2
/home/zrz0517/study/TEE/RT-TEE/optee_os/lib/libutee/tee_api.c:283
     a24:	910003fd 	mov	x29, sp
/home/zrz0517/study/TEE/RT-TEE/optee_os/lib/libutee/tee_api.c:284
     a28:	97fffe70 	bl	3e8 <utee_get_time>
/home/zrz0517/study/TEE/RT-TEE/optee_os/lib/libutee/tee_api.c:286
     a2c:	34000060 	cbz	w0, a38 <TEE_GetREETime+0x20>
/home/zrz0517/study/TEE/RT-TEE/optee_os/lib/libutee/tee_api.c:288
     a30:	a8c17bfd 	ldp	x29, x30, [sp], #16
/home/zrz0517/study/TEE/RT-TEE/optee_os/lib/libutee/tee_api.c:287
     a34:	14000023 	b	ac0 <TEE_Panic>
/home/zrz0517/study/TEE/RT-TEE/optee_os/lib/libutee/tee_api.c:288
     a38:	a8c17bfd 	ldp	x29, x30, [sp], #16
     a3c:	d65f03c0 	ret

0000000000000a40 <TEE_Malloc>:
TEE_Malloc():
/home/zrz0517/study/TEE/RT-TEE/optee_os/lib/libutee/tee_api.c:292
     a40:	35000081 	cbnz	w1, a50 <TEE_Malloc+0x10>
/home/zrz0517/study/TEE/RT-TEE/optee_os/lib/libutee/tee_api.c:293
     a44:	2a0003e1 	mov	w1, w0
     a48:	d2800020 	mov	x0, #0x1                   	// #1
     a4c:	14001758 	b	67ac <calloc>
/home/zrz0517/study/TEE/RT-TEE/optee_os/lib/libutee/tee_api.c:294
     a50:	52b00002 	mov	w2, #0x80000000            	// #-2147483648
     a54:	6b02003f 	cmp	w1, w2
     a58:	54000061 	b.ne	a64 <TEE_Malloc+0x24>  // b.any
/home/zrz0517/study/TEE/RT-TEE/optee_os/lib/libutee/tee_api.c:295
     a5c:	2a0003e0 	mov	w0, w0
     a60:	14001738 	b	6740 <malloc>
/home/zrz0517/study/TEE/RT-TEE/optee_os/lib/libutee/tee_api.c:291
     a64:	a9bf7bfd 	stp	x29, x30, [sp, #-16]!
     a68:	2a0103e5 	mov	w5, w1
/home/zrz0517/study/TEE/RT-TEE/optee_os/lib/libutee/tee_api.c:297
     a6c:	52800023 	mov	w3, #0x1                   	// #1
/home/zrz0517/study/TEE/RT-TEE/optee_os/lib/libutee/tee_api.c:291
     a70:	910003fd 	mov	x29, sp
/home/zrz0517/study/TEE/RT-TEE/optee_os/lib/libutee/tee_api.c:297
     a74:	52800022 	mov	w2, #0x1                   	// #1
     a78:	52802521 	mov	w1, #0x129                 	// #297
     a7c:	b0000044 	adrp	x4, 9000 <__text_end+0xd6c>
     a80:	b0000040 	adrp	x0, 9000 <__text_end+0xd6c>
     a84:	913bf084 	add	x4, x4, #0xefc
     a88:	912c0c00 	add	x0, x0, #0xb03
     a8c:	94001ce8 	bl	7e2c <trace_printf>
/home/zrz0517/study/TEE/RT-TEE/optee_os/lib/libutee/tee_api.c:300
     a90:	d2800000 	mov	x0, #0x0                   	// #0
     a94:	a8c17bfd 	ldp	x29, x30, [sp], #16
     a98:	d65f03c0 	ret

0000000000000a9c <TEE_Realloc>:
TEE_Realloc():
/home/zrz0517/study/TEE/RT-TEE/optee_os/lib/libutee/tee_api.c:304
     a9c:	2a0103e1 	mov	w1, w1
     aa0:	1400175e 	b	6818 <realloc>

0000000000000aa4 <TEE_Free>:
TEE_Free():
/home/zrz0517/study/TEE/RT-TEE/optee_os/lib/libutee/tee_api.c:309
     aa4:	1400173d 	b	6798 <free>

0000000000000aa8 <TEE_CacheClean>:
TEE_CacheClean():
/home/zrz0517/study/TEE/RT-TEE/optee_os/lib/libutee/tee_api.c:315
     aa8:	d2800002 	mov	x2, #0x0                   	// #0
     aac:	17fffecd 	b	5e0 <utee_cache_operation>

0000000000000ab0 <TEE_CacheFlush>:
TEE_CacheFlush():
/home/zrz0517/study/TEE/RT-TEE/optee_os/lib/libutee/tee_api.c:319
     ab0:	d2800022 	mov	x2, #0x1                   	// #1
     ab4:	17fffecb 	b	5e0 <utee_cache_operation>

0000000000000ab8 <TEE_CacheInvalidate>:
TEE_CacheInvalidate():
/home/zrz0517/study/TEE/RT-TEE/optee_os/lib/libutee/tee_api.c:324
     ab8:	d2800042 	mov	x2, #0x2                   	// #2
     abc:	17fffec9 	b	5e0 <utee_cache_operation>

0000000000000ac0 <TEE_Panic>:
TEE_Panic():
/home/zrz0517/study/TEE/RT-TEE/optee_os/lib/libutee/tee_api_panic.c:12
     ac0:	2a0003e0 	mov	w0, w0
     ac4:	17fffe1f 	b	340 <utee_panic>

0000000000000ac8 <api_panic>:
api_panic():
/home/zrz0517/study/TEE/RT-TEE/optee_os/lib/libutee/tee_api_arith_mpi.c:19
     ac8:	a9bf7bfd 	stp	x29, x30, [sp, #-16]!
/home/zrz0517/study/TEE/RT-TEE/optee_os/lib/libutee/tee_api_arith_mpi.c:20
     acc:	aa0203e3 	mov	x3, x2
     ad0:	2a0103e2 	mov	w2, w1
     ad4:	aa0003e1 	mov	x1, x0
/home/zrz0517/study/TEE/RT-TEE/optee_os/lib/libutee/tee_api_arith_mpi.c:19
     ad8:	910003fd 	mov	x29, sp
/home/zrz0517/study/TEE/RT-TEE/optee_os/lib/libutee/tee_api_arith_mpi.c:20
     adc:	d0000040 	adrp	x0, a000 <__func__.4888+0x13>
     ae0:	91014000 	add	x0, x0, #0x50
     ae4:	940005d1 	bl	2228 <printf>
/home/zrz0517/study/TEE/RT-TEE/optee_os/lib/libutee/tee_api_arith_mpi.c:21
     ae8:	528c24e0 	mov	w0, #0x6127                	// #24871
     aec:	72a01620 	movk	w0, #0xb1, lsl #16
     af0:	97fffff4 	bl	ac0 <TEE_Panic>
/home/zrz0517/study/TEE/RT-TEE/optee_os/lib/libutee/tee_api_arith_mpi.c:23 (discriminator 1)
     af4:	14000000 	b	af4 <api_panic+0x2c>

0000000000000af8 <mpi_panic>:
mpi_panic():
/home/zrz0517/study/TEE/RT-TEE/optee_os/lib/libutee/tee_api_arith_mpi.c:29
     af8:	a9bf7bfd 	stp	x29, x30, [sp, #-16]!
/home/zrz0517/study/TEE/RT-TEE/optee_os/lib/libutee/tee_api_arith_mpi.c:30
     afc:	2a0203e3 	mov	w3, w2
     b00:	2a0103e2 	mov	w2, w1
     b04:	aa0003e1 	mov	x1, x0
/home/zrz0517/study/TEE/RT-TEE/optee_os/lib/libutee/tee_api_arith_mpi.c:29
     b08:	910003fd 	mov	x29, sp
/home/zrz0517/study/TEE/RT-TEE/optee_os/lib/libutee/tee_api_arith_mpi.c:30
     b0c:	d0000040 	adrp	x0, a000 <__func__.4888+0x13>
     b10:	9101c000 	add	x0, x0, #0x70
     b14:	940005c5 	bl	2228 <printf>
/home/zrz0517/study/TEE/RT-TEE/optee_os/lib/libutee/tee_api_arith_mpi.c:31
     b18:	528c24e0 	mov	w0, #0x6127                	// #24871
     b1c:	72a01620 	movk	w0, #0xb1, lsl #16
     b20:	97ffffe8 	bl	ac0 <TEE_Panic>
/home/zrz0517/study/TEE/RT-TEE/optee_os/lib/libutee/tee_api_arith_mpi.c:33 (discriminator 1)
     b24:	14000000 	b	b24 <mpi_panic+0x2c>

0000000000000b28 <get_const_mpi>:
get_const_mpi():
/home/zrz0517/study/TEE/RT-TEE/optee_os/lib/libutee/tee_api_arith_mpi.c:110
     b28:	a9bd7bfd 	stp	x29, x30, [sp, #-48]!
     b2c:	910003fd 	mov	x29, sp
init_static_mpi():
/home/zrz0517/study/TEE/RT-TEE/optee_os/lib/libutee/tee_api_arith_mpi.c:65
     b30:	79400c24 	ldrh	w4, [x1, #6]
     b34:	79400823 	ldrh	w3, [x1, #4]
     b38:	b8408422 	ldr	w2, [x1], #8
get_const_mpi():
/home/zrz0517/study/TEE/RT-TEE/optee_os/lib/libutee/tee_api_arith_mpi.c:110
     b3c:	a90153f3 	stp	x19, x20, [sp, #16]
init_static_mpi():
/home/zrz0517/study/TEE/RT-TEE/optee_os/lib/libutee/tee_api_arith_mpi.c:65
     b40:	910083f3 	add	x19, sp, #0x20
get_const_mpi():
/home/zrz0517/study/TEE/RT-TEE/optee_os/lib/libutee/tee_api_arith_mpi.c:110
     b44:	aa0003f4 	mov	x20, x0
init_static_mpi():
/home/zrz0517/study/TEE/RT-TEE/optee_os/lib/libutee/tee_api_arith_mpi.c:65
     b48:	aa1303e0 	mov	x0, x19
     b4c:	94000796 	bl	29a4 <mbedtls_mpi_init_static>
get_mpi():
/home/zrz0517/study/TEE/RT-TEE/optee_os/lib/libutee/tee_api_arith_mpi.c:99
     b50:	aa1403e0 	mov	x0, x20
     b54:	94000788 	bl	2974 <mbedtls_mpi_init_mempool>
get_const_mpi():
/home/zrz0517/study/TEE/RT-TEE/optee_os/lib/libutee/tee_api_arith_mpi.c:115
     b58:	aa1303e1 	mov	x1, x19
     b5c:	aa1403e0 	mov	x0, x20
     b60:	94000859 	bl	2cc4 <mbedtls_mpi_copy>
     b64:	340000c0 	cbz	w0, b7c <get_const_mpi+0x54>
/home/zrz0517/study/TEE/RT-TEE/optee_os/lib/libutee/tee_api_arith_mpi.c:115 (discriminator 1)
     b68:	2a0003e2 	mov	w2, w0
     b6c:	52800e61 	mov	w1, #0x73                  	// #115
     b70:	b0000040 	adrp	x0, 9000 <__text_end+0xd6c>
     b74:	913c3400 	add	x0, x0, #0xf0d
     b78:	97ffffe0 	bl	af8 <mpi_panic>
/home/zrz0517/study/TEE/RT-TEE/optee_os/lib/libutee/tee_api_arith_mpi.c:116
     b7c:	a94153f3 	ldp	x19, x20, [sp, #16]
     b80:	a8c37bfd 	ldp	x29, x30, [sp], #48
     b84:	d65f03c0 	ret

0000000000000b88 <mpi_is_odd>:
mpi_is_odd():
/home/zrz0517/study/TEE/RT-TEE/optee_os/lib/libutee/tee_api_arith_mpi.c:599
     b88:	a9bf7bfd 	stp	x29, x30, [sp, #-16]!
/home/zrz0517/study/TEE/RT-TEE/optee_os/lib/libutee/tee_api_arith_mpi.c:600
     b8c:	d2800001 	mov	x1, #0x0                   	// #0
/home/zrz0517/study/TEE/RT-TEE/optee_os/lib/libutee/tee_api_arith_mpi.c:599
     b90:	910003fd 	mov	x29, sp
/home/zrz0517/study/TEE/RT-TEE/optee_os/lib/libutee/tee_api_arith_mpi.c:600
     b94:	94000912 	bl	2fdc <mbedtls_mpi_get_bit>
     b98:	7100001f 	cmp	w0, #0x0
/home/zrz0517/study/TEE/RT-TEE/optee_os/lib/libutee/tee_api_arith_mpi.c:601
     b9c:	1a9f07e0 	cset	w0, ne  // ne = any
     ba0:	a8c17bfd 	ldp	x29, x30, [sp], #16
     ba4:	d65f03c0 	ret

0000000000000ba8 <rng_read>:
rng_read():
/home/zrz0517/study/TEE/RT-TEE/optee_os/lib/libutee/tee_api_arith_mpi.c:763
     ba8:	a9bf7bfd 	stp	x29, x30, [sp, #-16]!
     bac:	aa0103e0 	mov	x0, x1
/home/zrz0517/study/TEE/RT-TEE/optee_os/lib/libutee/tee_api_arith_mpi.c:764
     bb0:	aa0203e1 	mov	x1, x2
/home/zrz0517/study/TEE/RT-TEE/optee_os/lib/libutee/tee_api_arith_mpi.c:763
     bb4:	910003fd 	mov	x29, sp
/home/zrz0517/study/TEE/RT-TEE/optee_os/lib/libutee/tee_api_arith_mpi.c:764
     bb8:	97fffe48 	bl	4d8 <utee_cryp_random_number_generate>
/home/zrz0517/study/TEE/RT-TEE/optee_os/lib/libutee/tee_api_arith_mpi.c:765
     bbc:	7100001f 	cmp	w0, #0x0
/home/zrz0517/study/TEE/RT-TEE/optee_os/lib/libutee/tee_api_arith_mpi.c:767
     bc0:	a8c17bfd 	ldp	x29, x30, [sp], #16
     bc4:	12800020 	mov	w0, #0xfffffffe            	// #-2
     bc8:	1a9f1000 	csel	w0, w0, wzr, ne  // ne = any
     bcc:	d65f03c0 	ret

0000000000000bd0 <put_mpi>:
put_mpi():
/home/zrz0517/study/TEE/RT-TEE/optee_os/lib/libutee/tee_api_arith_mpi.c:128
     bd0:	39400402 	ldrb	w2, [x0, #1]
/home/zrz0517/study/TEE/RT-TEE/optee_os/lib/libutee/tee_api_arith_mpi.c:127
     bd4:	aa0003e1 	mov	x1, x0
/home/zrz0517/study/TEE/RT-TEE/optee_os/lib/libutee/tee_api_arith_mpi.c:128
     bd8:	7100085f 	cmp	w2, #0x2
     bdc:	540000e1 	b.ne	bf8 <put_mpi+0x28>  // b.any
/home/zrz0517/study/TEE/RT-TEE/optee_os/lib/libutee/tee_api_arith_mpi.c:131
     be0:	39c00002 	ldrsb	w2, [x0]
/home/zrz0517/study/TEE/RT-TEE/optee_os/lib/libutee/tee_api_arith_mpi.c:129
     be4:	f9400400 	ldr	x0, [x0, #8]
/home/zrz0517/study/TEE/RT-TEE/optee_os/lib/libutee/tee_api_arith_mpi.c:132
     be8:	79400821 	ldrh	w1, [x1, #4]
/home/zrz0517/study/TEE/RT-TEE/optee_os/lib/libutee/tee_api_arith_mpi.c:131
     bec:	b81f8002 	stur	w2, [x0, #-8]
/home/zrz0517/study/TEE/RT-TEE/optee_os/lib/libutee/tee_api_arith_mpi.c:132
     bf0:	781fe001 	sturh	w1, [x0, #-2]
/home/zrz0517/study/TEE/RT-TEE/optee_os/lib/libutee/tee_api_arith_mpi.c:136
     bf4:	d65f03c0 	ret
/home/zrz0517/study/TEE/RT-TEE/optee_os/lib/libutee/tee_api_arith_mpi.c:134
     bf8:	14000773 	b	29c4 <mbedtls_mpi_free>

0000000000000bfc <get_mpi>:
get_mpi():
/home/zrz0517/study/TEE/RT-TEE/optee_os/lib/libutee/tee_api_arith_mpi.c:96
     bfc:	b40000a1 	cbz	x1, c10 <get_mpi+0x14>
init_static_mpi():
/home/zrz0517/study/TEE/RT-TEE/optee_os/lib/libutee/tee_api_arith_mpi.c:65
     c00:	79400c24 	ldrh	w4, [x1, #6]
     c04:	79400823 	ldrh	w3, [x1, #4]
     c08:	b8408422 	ldr	w2, [x1], #8
     c0c:	14000766 	b	29a4 <mbedtls_mpi_init_static>
get_mpi():
/home/zrz0517/study/TEE/RT-TEE/optee_os/lib/libutee/tee_api_arith_mpi.c:99
     c10:	14000759 	b	2974 <mbedtls_mpi_init_mempool>

0000000000000c14 <bigint_binary>:
bigint_binary():
/home/zrz0517/study/TEE/RT-TEE/optee_os/lib/libutee/tee_api_arith_mpi.c:336
     c14:	a9b87bfd 	stp	x29, x30, [sp, #-128]!
     c18:	910003fd 	mov	x29, sp
     c1c:	a9025bf5 	stp	x21, x22, [sp, #32]
/home/zrz0517/study/TEE/RT-TEE/optee_os/lib/libutee/tee_api_arith_mpi.c:343
     c20:	910143f5 	add	x21, sp, #0x50
/home/zrz0517/study/TEE/RT-TEE/optee_os/lib/libutee/tee_api_arith_mpi.c:336
     c24:	aa0003f6 	mov	x22, x0
     c28:	a90153f3 	stp	x19, x20, [sp, #16]
     c2c:	aa0203f3 	mov	x19, x2
     c30:	a90363f7 	stp	x23, x24, [sp, #48]
     c34:	aa0103f8 	mov	x24, x1
/home/zrz0517/study/TEE/RT-TEE/optee_os/lib/libutee/tee_api_arith_mpi.c:343
     c38:	aa0003e1 	mov	x1, x0
     c3c:	aa1503e0 	mov	x0, x21
/home/zrz0517/study/TEE/RT-TEE/optee_os/lib/libutee/tee_api_arith_mpi.c:336
     c40:	f90023f9 	str	x25, [sp, #64]
     c44:	aa0303f9 	mov	x25, x3
/home/zrz0517/study/TEE/RT-TEE/optee_os/lib/libutee/tee_api_arith_mpi.c:343
     c48:	97ffffed 	bl	bfc <get_mpi>
/home/zrz0517/study/TEE/RT-TEE/optee_os/lib/libutee/tee_api_arith_mpi.c:345
     c4c:	910183f7 	add	x23, sp, #0x60
     c50:	eb1802df 	cmp	x22, x24
     c54:	54000320 	b.eq	cb8 <bigint_binary+0xa4>  // b.none
/home/zrz0517/study/TEE/RT-TEE/optee_os/lib/libutee/tee_api_arith_mpi.c:340
     c58:	aa1703f4 	mov	x20, x23
/home/zrz0517/study/TEE/RT-TEE/optee_os/lib/libutee/tee_api_arith_mpi.c:348
     c5c:	aa1803e1 	mov	x1, x24
     c60:	aa1703e0 	mov	x0, x23
     c64:	97ffffb1 	bl	b28 <get_const_mpi>
/home/zrz0517/study/TEE/RT-TEE/optee_os/lib/libutee/tee_api_arith_mpi.c:350
     c68:	eb1302df 	cmp	x22, x19
     c6c:	9101c3f6 	add	x22, sp, #0x70
     c70:	54000280 	b.eq	cc0 <bigint_binary+0xac>  // b.none
/home/zrz0517/study/TEE/RT-TEE/optee_os/lib/libutee/tee_api_arith_mpi.c:352
     c74:	eb13031f 	cmp	x24, x19
     c78:	54000280 	b.eq	cc8 <bigint_binary+0xb4>  // b.none
/home/zrz0517/study/TEE/RT-TEE/optee_os/lib/libutee/tee_api_arith_mpi.c:355
     c7c:	aa1303e1 	mov	x1, x19
/home/zrz0517/study/TEE/RT-TEE/optee_os/lib/libutee/tee_api_arith_mpi.c:341
     c80:	aa1603f3 	mov	x19, x22
/home/zrz0517/study/TEE/RT-TEE/optee_os/lib/libutee/tee_api_arith_mpi.c:355
     c84:	aa1603e0 	mov	x0, x22
     c88:	97ffffa8 	bl	b28 <get_const_mpi>
/home/zrz0517/study/TEE/RT-TEE/optee_os/lib/libutee/tee_api_arith_mpi.c:357
     c8c:	aa1303e2 	mov	x2, x19
     c90:	aa1403e1 	mov	x1, x20
     c94:	aa1503e0 	mov	x0, x21
     c98:	d63f0320 	blr	x25
     c9c:	340001a0 	cbz	w0, cd0 <bigint_binary+0xbc>
/home/zrz0517/study/TEE/RT-TEE/optee_os/lib/libutee/tee_api_arith_mpi.c:357 (discriminator 1)
     ca0:	2a0003e2 	mov	w2, w0
     ca4:	b0000040 	adrp	x0, 9000 <__text_end+0xd6c>
     ca8:	913c3400 	add	x0, x0, #0xf0d
     cac:	52802ca1 	mov	w1, #0x165                 	// #357
     cb0:	91003800 	add	x0, x0, #0xe
     cb4:	97ffff91 	bl	af8 <mpi_panic>
/home/zrz0517/study/TEE/RT-TEE/optee_os/lib/libutee/tee_api_arith_mpi.c:346
     cb8:	aa1503f4 	mov	x20, x21
     cbc:	17ffffeb 	b	c68 <bigint_binary+0x54>
/home/zrz0517/study/TEE/RT-TEE/optee_os/lib/libutee/tee_api_arith_mpi.c:351
     cc0:	aa1503f3 	mov	x19, x21
     cc4:	17fffff2 	b	c8c <bigint_binary+0x78>
/home/zrz0517/study/TEE/RT-TEE/optee_os/lib/libutee/tee_api_arith_mpi.c:353
     cc8:	aa1403f3 	mov	x19, x20
     ccc:	17fffff0 	b	c8c <bigint_binary+0x78>
/home/zrz0517/study/TEE/RT-TEE/optee_os/lib/libutee/tee_api_arith_mpi.c:359
     cd0:	aa1503e0 	mov	x0, x21
     cd4:	97ffffbf 	bl	bd0 <put_mpi>
/home/zrz0517/study/TEE/RT-TEE/optee_os/lib/libutee/tee_api_arith_mpi.c:360
     cd8:	eb17029f 	cmp	x20, x23
     cdc:	54000061 	b.ne	ce8 <bigint_binary+0xd4>  // b.any
/home/zrz0517/study/TEE/RT-TEE/optee_os/lib/libutee/tee_api_arith_mpi.c:361
     ce0:	aa1403e0 	mov	x0, x20
     ce4:	97ffffbb 	bl	bd0 <put_mpi>
/home/zrz0517/study/TEE/RT-TEE/optee_os/lib/libutee/tee_api_arith_mpi.c:362
     ce8:	eb16027f 	cmp	x19, x22
     cec:	54000061 	b.ne	cf8 <bigint_binary+0xe4>  // b.any
/home/zrz0517/study/TEE/RT-TEE/optee_os/lib/libutee/tee_api_arith_mpi.c:363
     cf0:	aa1303e0 	mov	x0, x19
     cf4:	97ffffb7 	bl	bd0 <put_mpi>
/home/zrz0517/study/TEE/RT-TEE/optee_os/lib/libutee/tee_api_arith_mpi.c:364
     cf8:	a94153f3 	ldp	x19, x20, [sp, #16]
     cfc:	a9425bf5 	ldp	x21, x22, [sp, #32]
     d00:	a94363f7 	ldp	x23, x24, [sp, #48]
     d04:	f94023f9 	ldr	x25, [sp, #64]
     d08:	a8c87bfd 	ldp	x29, x30, [sp], #128
     d0c:	d65f03c0 	ret

0000000000000d10 <mpi_egcd>:
mpi_egcd():
/home/zrz0517/study/TEE/RT-TEE/optee_os/lib/libutee/tee_api_arith_mpi.c:614
     d10:	a9b27bfd 	stp	x29, x30, [sp, #-224]!
     d14:	910003fd 	mov	x29, sp
     d18:	6d0627e8 	stp	d8, d9, [sp, #96]
     d1c:	9e670028 	fmov	d8, x1
     d20:	9e670069 	fmov	d9, x3
     d24:	a90363f7 	stp	x23, x24, [sp, #48]
get_mpi():
/home/zrz0517/study/TEE/RT-TEE/optee_os/lib/libutee/tee_api_arith_mpi.c:99
     d28:	9101c3f7 	add	x23, sp, #0x70
mpi_egcd():
/home/zrz0517/study/TEE/RT-TEE/optee_os/lib/libutee/tee_api_arith_mpi.c:614
     d2c:	aa0003f8 	mov	x24, x0
get_mpi():
/home/zrz0517/study/TEE/RT-TEE/optee_os/lib/libutee/tee_api_arith_mpi.c:99
     d30:	aa1703e0 	mov	x0, x23
mpi_egcd():
/home/zrz0517/study/TEE/RT-TEE/optee_os/lib/libutee/tee_api_arith_mpi.c:614
     d34:	a90153f3 	stp	x19, x20, [sp, #16]
get_mpi():
/home/zrz0517/study/TEE/RT-TEE/optee_os/lib/libutee/tee_api_arith_mpi.c:99
     d38:	910243f4 	add	x20, sp, #0x90
mpi_egcd():
/home/zrz0517/study/TEE/RT-TEE/optee_os/lib/libutee/tee_api_arith_mpi.c:614
     d3c:	a9025bf5 	stp	x21, x22, [sp, #32]
get_mpi():
/home/zrz0517/study/TEE/RT-TEE/optee_os/lib/libutee/tee_api_arith_mpi.c:99
     d40:	910203f6 	add	x22, sp, #0x80
     d44:	910283f3 	add	x19, sp, #0xa0
mpi_egcd():
/home/zrz0517/study/TEE/RT-TEE/optee_os/lib/libutee/tee_api_arith_mpi.c:614
     d48:	a9046bf9 	stp	x25, x26, [sp, #64]
get_mpi():
/home/zrz0517/study/TEE/RT-TEE/optee_os/lib/libutee/tee_api_arith_mpi.c:99
     d4c:	9102c3fa 	add	x26, sp, #0xb0
     d50:	910303f9 	add	x25, sp, #0xc0
mpi_egcd():
/home/zrz0517/study/TEE/RT-TEE/optee_os/lib/libutee/tee_api_arith_mpi.c:614
     d54:	a90573fb 	stp	x27, x28, [sp, #80]
     d58:	aa0403fb 	mov	x27, x4
     d5c:	aa0203fc 	mov	x28, x2
get_mpi():
/home/zrz0517/study/TEE/RT-TEE/optee_os/lib/libutee/tee_api_arith_mpi.c:99
     d60:	94000705 	bl	2974 <mbedtls_mpi_init_mempool>
     d64:	910343f5 	add	x21, sp, #0xd0
     d68:	aa1603e0 	mov	x0, x22
     d6c:	94000702 	bl	2974 <mbedtls_mpi_init_mempool>
     d70:	aa1403e0 	mov	x0, x20
     d74:	94000700 	bl	2974 <mbedtls_mpi_init_mempool>
     d78:	aa1303e0 	mov	x0, x19
     d7c:	940006fe 	bl	2974 <mbedtls_mpi_init_mempool>
     d80:	aa1a03e0 	mov	x0, x26
     d84:	940006fc 	bl	2974 <mbedtls_mpi_init_mempool>
     d88:	aa1903e0 	mov	x0, x25
     d8c:	940006fa 	bl	2974 <mbedtls_mpi_init_mempool>
     d90:	aa1503e0 	mov	x0, x21
     d94:	940006f8 	bl	2974 <mbedtls_mpi_init_mempool>
mpi_egcd():
/home/zrz0517/study/TEE/RT-TEE/optee_os/lib/libutee/tee_api_arith_mpi.c:633
     d98:	52800001 	mov	w1, #0x0                   	// #0
     d9c:	aa1b03e0 	mov	x0, x27
     da0:	94000a0d 	bl	35d4 <mbedtls_mpi_cmp_int>
     da4:	35000320 	cbnz	w0, e08 <mpi_egcd+0xf8>
/home/zrz0517/study/TEE/RT-TEE/optee_os/lib/libutee/tee_api_arith_mpi.c:634
     da8:	9e660100 	fmov	x0, d8
     dac:	52800021 	mov	w1, #0x1                   	// #1
     db0:	94000870 	bl	2f70 <mbedtls_mpi_lset>
     db4:	340000e0 	cbz	w0, dd0 <mpi_egcd+0xc0>
/home/zrz0517/study/TEE/RT-TEE/optee_os/lib/libutee/tee_api_arith_mpi.c:634 (discriminator 1)
     db8:	2a0003e2 	mov	w2, w0
     dbc:	52804f41 	mov	w1, #0x27a                 	// #634
/home/zrz0517/study/TEE/RT-TEE/optee_os/lib/libutee/tee_api_arith_mpi.c:635 (discriminator 1)
     dc0:	b0000040 	adrp	x0, 9000 <__text_end+0xd6c>
     dc4:	913c3400 	add	x0, x0, #0xf0d
     dc8:	91007000 	add	x0, x0, #0x1c
     dcc:	97ffff4b 	bl	af8 <mpi_panic>
/home/zrz0517/study/TEE/RT-TEE/optee_os/lib/libutee/tee_api_arith_mpi.c:635
     dd0:	52800001 	mov	w1, #0x0                   	// #0
     dd4:	aa1c03e0 	mov	x0, x28
     dd8:	94000866 	bl	2f70 <mbedtls_mpi_lset>
     ddc:	34000080 	cbz	w0, dec <mpi_egcd+0xdc>
/home/zrz0517/study/TEE/RT-TEE/optee_os/lib/libutee/tee_api_arith_mpi.c:635 (discriminator 1)
     de0:	2a0003e2 	mov	w2, w0
     de4:	52804f61 	mov	w1, #0x27b                 	// #635
     de8:	17fffff6 	b	dc0 <mpi_egcd+0xb0>
/home/zrz0517/study/TEE/RT-TEE/optee_os/lib/libutee/tee_api_arith_mpi.c:636
     dec:	9e660121 	fmov	x1, d9
     df0:	aa1803e0 	mov	x0, x24
     df4:	940007b4 	bl	2cc4 <mbedtls_mpi_copy>
     df8:	34002060 	cbz	w0, 1204 <mpi_egcd+0x4f4>
/home/zrz0517/study/TEE/RT-TEE/optee_os/lib/libutee/tee_api_arith_mpi.c:636 (discriminator 1)
     dfc:	2a0003e2 	mov	w2, w0
     e00:	52804f81 	mov	w1, #0x27c                 	// #636
     e04:	17ffffef 	b	dc0 <mpi_egcd+0xb0>
/home/zrz0517/study/TEE/RT-TEE/optee_os/lib/libutee/tee_api_arith_mpi.c:640
     e08:	9e660121 	fmov	x1, d9
     e0c:	aa1a03e0 	mov	x0, x26
     e10:	940007ad 	bl	2cc4 <mbedtls_mpi_copy>
     e14:	34000080 	cbz	w0, e24 <mpi_egcd+0x114>
/home/zrz0517/study/TEE/RT-TEE/optee_os/lib/libutee/tee_api_arith_mpi.c:640 (discriminator 1)
     e18:	2a0003e2 	mov	w2, w0
     e1c:	52805001 	mov	w1, #0x280                 	// #640
     e20:	17ffffe8 	b	dc0 <mpi_egcd+0xb0>
/home/zrz0517/study/TEE/RT-TEE/optee_os/lib/libutee/tee_api_arith_mpi.c:641
     e24:	aa1b03e1 	mov	x1, x27
     e28:	aa1903e0 	mov	x0, x25
/home/zrz0517/study/TEE/RT-TEE/optee_os/lib/libutee/tee_api_arith_mpi.c:643
     e2c:	5280001b 	mov	w27, #0x0                   	// #0
/home/zrz0517/study/TEE/RT-TEE/optee_os/lib/libutee/tee_api_arith_mpi.c:641
     e30:	940007a5 	bl	2cc4 <mbedtls_mpi_copy>
     e34:	34000160 	cbz	w0, e60 <mpi_egcd+0x150>
/home/zrz0517/study/TEE/RT-TEE/optee_os/lib/libutee/tee_api_arith_mpi.c:641 (discriminator 1)
     e38:	2a0003e2 	mov	w2, w0
     e3c:	52805021 	mov	w1, #0x281                 	// #641
     e40:	17ffffe0 	b	dc0 <mpi_egcd+0xb0>
/home/zrz0517/study/TEE/RT-TEE/optee_os/lib/libutee/tee_api_arith_mpi.c:647
     e44:	d2800021 	mov	x1, #0x1                   	// #1
     e48:	aa1903e0 	mov	x0, x25
     e4c:	94000954 	bl	339c <mbedtls_mpi_shift_r>
     e50:	34000080 	cbz	w0, e60 <mpi_egcd+0x150>
/home/zrz0517/study/TEE/RT-TEE/optee_os/lib/libutee/tee_api_arith_mpi.c:647 (discriminator 1)
     e54:	2a0003e2 	mov	w2, w0
     e58:	528050e1 	mov	w1, #0x287                 	// #647
     e5c:	17ffffd9 	b	dc0 <mpi_egcd+0xb0>
mpi_is_even():
/home/zrz0517/study/TEE/RT-TEE/optee_os/lib/libutee/tee_api_arith_mpi.c:605
     e60:	aa1a03e0 	mov	x0, x26
     e64:	97ffff49 	bl	b88 <mpi_is_odd>
mpi_egcd():
/home/zrz0517/study/TEE/RT-TEE/optee_os/lib/libutee/tee_api_arith_mpi.c:644
     e68:	72001c1f 	tst	w0, #0xff
     e6c:	54000100 	b.eq	e8c <mpi_egcd+0x17c>  // b.none
/home/zrz0517/study/TEE/RT-TEE/optee_os/lib/libutee/tee_api_arith_mpi.c:650
     e70:	aa1a03e1 	mov	x1, x26
     e74:	aa1503e0 	mov	x0, x21
     e78:	94000793 	bl	2cc4 <mbedtls_mpi_copy>
     e7c:	34000200 	cbz	w0, ebc <mpi_egcd+0x1ac>
/home/zrz0517/study/TEE/RT-TEE/optee_os/lib/libutee/tee_api_arith_mpi.c:650 (discriminator 1)
     e80:	2a0003e2 	mov	w2, w0
     e84:	52805141 	mov	w1, #0x28a                 	// #650
     e88:	17ffffce 	b	dc0 <mpi_egcd+0xb0>
mpi_is_even():
/home/zrz0517/study/TEE/RT-TEE/optee_os/lib/libutee/tee_api_arith_mpi.c:605
     e8c:	aa1903e0 	mov	x0, x25
     e90:	97ffff3e 	bl	b88 <mpi_is_odd>
mpi_egcd():
/home/zrz0517/study/TEE/RT-TEE/optee_os/lib/libutee/tee_api_arith_mpi.c:644
     e94:	72001c1f 	tst	w0, #0xff
     e98:	54fffec1 	b.ne	e70 <mpi_egcd+0x160>  // b.any
/home/zrz0517/study/TEE/RT-TEE/optee_os/lib/libutee/tee_api_arith_mpi.c:645
     e9c:	1100077b 	add	w27, w27, #0x1
/home/zrz0517/study/TEE/RT-TEE/optee_os/lib/libutee/tee_api_arith_mpi.c:646
     ea0:	d2800021 	mov	x1, #0x1                   	// #1
     ea4:	aa1a03e0 	mov	x0, x26
     ea8:	9400093d 	bl	339c <mbedtls_mpi_shift_r>
     eac:	34fffcc0 	cbz	w0, e44 <mpi_egcd+0x134>
/home/zrz0517/study/TEE/RT-TEE/optee_os/lib/libutee/tee_api_arith_mpi.c:646 (discriminator 1)
     eb0:	2a0003e2 	mov	w2, w0
     eb4:	528050c1 	mov	w1, #0x286                 	// #646
     eb8:	17ffffc2 	b	dc0 <mpi_egcd+0xb0>
/home/zrz0517/study/TEE/RT-TEE/optee_os/lib/libutee/tee_api_arith_mpi.c:651
     ebc:	aa1903e1 	mov	x1, x25
     ec0:	aa1803e0 	mov	x0, x24
     ec4:	94000780 	bl	2cc4 <mbedtls_mpi_copy>
     ec8:	34000080 	cbz	w0, ed8 <mpi_egcd+0x1c8>
/home/zrz0517/study/TEE/RT-TEE/optee_os/lib/libutee/tee_api_arith_mpi.c:651 (discriminator 1)
     ecc:	2a0003e2 	mov	w2, w0
     ed0:	52805161 	mov	w1, #0x28b                 	// #651
     ed4:	17ffffbb 	b	dc0 <mpi_egcd+0xb0>
/home/zrz0517/study/TEE/RT-TEE/optee_os/lib/libutee/tee_api_arith_mpi.c:652
     ed8:	52800021 	mov	w1, #0x1                   	// #1
     edc:	aa1703e0 	mov	x0, x23
     ee0:	94000824 	bl	2f70 <mbedtls_mpi_lset>
     ee4:	34000080 	cbz	w0, ef4 <mpi_egcd+0x1e4>
/home/zrz0517/study/TEE/RT-TEE/optee_os/lib/libutee/tee_api_arith_mpi.c:652 (discriminator 1)
     ee8:	2a0003e2 	mov	w2, w0
     eec:	52805181 	mov	w1, #0x28c                 	// #652
     ef0:	17ffffb4 	b	dc0 <mpi_egcd+0xb0>
/home/zrz0517/study/TEE/RT-TEE/optee_os/lib/libutee/tee_api_arith_mpi.c:653
     ef4:	52800001 	mov	w1, #0x0                   	// #0
     ef8:	aa1603e0 	mov	x0, x22
     efc:	9400081d 	bl	2f70 <mbedtls_mpi_lset>
     f00:	34000080 	cbz	w0, f10 <mpi_egcd+0x200>
/home/zrz0517/study/TEE/RT-TEE/optee_os/lib/libutee/tee_api_arith_mpi.c:653 (discriminator 1)
     f04:	2a0003e2 	mov	w2, w0
     f08:	528051a1 	mov	w1, #0x28d                 	// #653
     f0c:	17ffffad 	b	dc0 <mpi_egcd+0xb0>
/home/zrz0517/study/TEE/RT-TEE/optee_os/lib/libutee/tee_api_arith_mpi.c:654
     f10:	52800001 	mov	w1, #0x0                   	// #0
     f14:	aa1403e0 	mov	x0, x20
     f18:	94000816 	bl	2f70 <mbedtls_mpi_lset>
     f1c:	34000080 	cbz	w0, f2c <mpi_egcd+0x21c>
/home/zrz0517/study/TEE/RT-TEE/optee_os/lib/libutee/tee_api_arith_mpi.c:654 (discriminator 1)
     f20:	2a0003e2 	mov	w2, w0
     f24:	528051c1 	mov	w1, #0x28e                 	// #654
     f28:	17ffffa6 	b	dc0 <mpi_egcd+0xb0>
/home/zrz0517/study/TEE/RT-TEE/optee_os/lib/libutee/tee_api_arith_mpi.c:655
     f2c:	52800021 	mov	w1, #0x1                   	// #1
     f30:	aa1303e0 	mov	x0, x19
     f34:	9400080f 	bl	2f70 <mbedtls_mpi_lset>
     f38:	34001340 	cbz	w0, 11a0 <mpi_egcd+0x490>
/home/zrz0517/study/TEE/RT-TEE/optee_os/lib/libutee/tee_api_arith_mpi.c:655 (discriminator 1)
     f3c:	2a0003e2 	mov	w2, w0
     f40:	528051e1 	mov	w1, #0x28f                 	// #655
     f44:	17ffff9f 	b	dc0 <mpi_egcd+0xb0>
/home/zrz0517/study/TEE/RT-TEE/optee_os/lib/libutee/tee_api_arith_mpi.c:659
     f48:	d2800021 	mov	x1, #0x1                   	// #1
     f4c:	aa1503e0 	mov	x0, x21
     f50:	94000913 	bl	339c <mbedtls_mpi_shift_r>
     f54:	34000080 	cbz	w0, f64 <mpi_egcd+0x254>
/home/zrz0517/study/TEE/RT-TEE/optee_os/lib/libutee/tee_api_arith_mpi.c:659 (discriminator 1)
     f58:	2a0003e2 	mov	w2, w0
     f5c:	52805261 	mov	w1, #0x293                 	// #659
     f60:	17ffff98 	b	dc0 <mpi_egcd+0xb0>
/home/zrz0517/study/TEE/RT-TEE/optee_os/lib/libutee/tee_api_arith_mpi.c:660
     f64:	aa1703e0 	mov	x0, x23
     f68:	97ffff08 	bl	b88 <mpi_is_odd>
     f6c:	72001c1f 	tst	w0, #0xff
     f70:	54000120 	b.eq	f94 <mpi_egcd+0x284>  // b.none
/home/zrz0517/study/TEE/RT-TEE/optee_os/lib/libutee/tee_api_arith_mpi.c:661
     f74:	aa1903e2 	mov	x2, x25
     f78:	aa1703e1 	mov	x1, x23
     f7c:	aa1703e0 	mov	x0, x23
     f80:	94000a25 	bl	3814 <mbedtls_mpi_add_mpi>
     f84:	340001e0 	cbz	w0, fc0 <mpi_egcd+0x2b0>
/home/zrz0517/study/TEE/RT-TEE/optee_os/lib/libutee/tee_api_arith_mpi.c:661 (discriminator 1)
     f88:	2a0003e2 	mov	w2, w0
     f8c:	528052a1 	mov	w1, #0x295                 	// #661
     f90:	17ffff8c 	b	dc0 <mpi_egcd+0xb0>
/home/zrz0517/study/TEE/RT-TEE/optee_os/lib/libutee/tee_api_arith_mpi.c:660 (discriminator 1)
     f94:	aa1603e0 	mov	x0, x22
     f98:	97fffefc 	bl	b88 <mpi_is_odd>
     f9c:	72001c1f 	tst	w0, #0xff
     fa0:	54fffea1 	b.ne	f74 <mpi_egcd+0x264>  // b.any
/home/zrz0517/study/TEE/RT-TEE/optee_os/lib/libutee/tee_api_arith_mpi.c:664
     fa4:	d2800021 	mov	x1, #0x1                   	// #1
     fa8:	aa1703e0 	mov	x0, x23
     fac:	940008fc 	bl	339c <mbedtls_mpi_shift_r>
     fb0:	34000180 	cbz	w0, fe0 <mpi_egcd+0x2d0>
/home/zrz0517/study/TEE/RT-TEE/optee_os/lib/libutee/tee_api_arith_mpi.c:664 (discriminator 1)
     fb4:	2a0003e2 	mov	w2, w0
     fb8:	52805301 	mov	w1, #0x298                 	// #664
     fbc:	17ffff81 	b	dc0 <mpi_egcd+0xb0>
/home/zrz0517/study/TEE/RT-TEE/optee_os/lib/libutee/tee_api_arith_mpi.c:662
     fc0:	aa1a03e2 	mov	x2, x26
     fc4:	aa1603e1 	mov	x1, x22
     fc8:	aa1603e0 	mov	x0, x22
     fcc:	94000a32 	bl	3894 <mbedtls_mpi_sub_mpi>
     fd0:	34fffea0 	cbz	w0, fa4 <mpi_egcd+0x294>
/home/zrz0517/study/TEE/RT-TEE/optee_os/lib/libutee/tee_api_arith_mpi.c:662 (discriminator 1)
     fd4:	2a0003e2 	mov	w2, w0
     fd8:	528052c1 	mov	w1, #0x296                 	// #662
     fdc:	17ffff79 	b	dc0 <mpi_egcd+0xb0>
/home/zrz0517/study/TEE/RT-TEE/optee_os/lib/libutee/tee_api_arith_mpi.c:665
     fe0:	d2800021 	mov	x1, #0x1                   	// #1
     fe4:	aa1603e0 	mov	x0, x22
     fe8:	940008ed 	bl	339c <mbedtls_mpi_shift_r>
     fec:	34000080 	cbz	w0, ffc <mpi_egcd+0x2ec>
/home/zrz0517/study/TEE/RT-TEE/optee_os/lib/libutee/tee_api_arith_mpi.c:665 (discriminator 1)
     ff0:	2a0003e2 	mov	w2, w0
     ff4:	52805321 	mov	w1, #0x299                 	// #665
     ff8:	17ffff72 	b	dc0 <mpi_egcd+0xb0>
mpi_is_even():
/home/zrz0517/study/TEE/RT-TEE/optee_os/lib/libutee/tee_api_arith_mpi.c:605
     ffc:	aa1503e0 	mov	x0, x21
    1000:	97fffee2 	bl	b88 <mpi_is_odd>
mpi_egcd():
/home/zrz0517/study/TEE/RT-TEE/optee_os/lib/libutee/tee_api_arith_mpi.c:658
    1004:	72001c1f 	tst	w0, #0xff
    1008:	54fffa00 	b.eq	f48 <mpi_egcd+0x238>  // b.none
mpi_is_even():
/home/zrz0517/study/TEE/RT-TEE/optee_os/lib/libutee/tee_api_arith_mpi.c:605
    100c:	aa1803e0 	mov	x0, x24
    1010:	97fffede 	bl	b88 <mpi_is_odd>
mpi_egcd():
/home/zrz0517/study/TEE/RT-TEE/optee_os/lib/libutee/tee_api_arith_mpi.c:668
    1014:	72001c1f 	tst	w0, #0xff
    1018:	540001a0 	b.eq	104c <mpi_egcd+0x33c>  // b.none
/home/zrz0517/study/TEE/RT-TEE/optee_os/lib/libutee/tee_api_arith_mpi.c:679
    101c:	aa1803e1 	mov	x1, x24
    1020:	aa1503e0 	mov	x0, x21
    1024:	94000937 	bl	3500 <mbedtls_mpi_cmp_mpi>
    1028:	37f808c0 	tbnz	w0, #31, 1140 <mpi_egcd+0x430>
/home/zrz0517/study/TEE/RT-TEE/optee_os/lib/libutee/tee_api_arith_mpi.c:680
    102c:	aa1803e2 	mov	x2, x24
    1030:	aa1503e1 	mov	x1, x21
    1034:	aa1503e0 	mov	x0, x21
    1038:	94000a17 	bl	3894 <mbedtls_mpi_sub_mpi>
    103c:	34000620 	cbz	w0, 1100 <mpi_egcd+0x3f0>
/home/zrz0517/study/TEE/RT-TEE/optee_os/lib/libutee/tee_api_arith_mpi.c:680 (discriminator 1)
    1040:	2a0003e2 	mov	w2, w0
    1044:	52805501 	mov	w1, #0x2a8                 	// #680
    1048:	17ffff5e 	b	dc0 <mpi_egcd+0xb0>
/home/zrz0517/study/TEE/RT-TEE/optee_os/lib/libutee/tee_api_arith_mpi.c:669
    104c:	d2800021 	mov	x1, #0x1                   	// #1
    1050:	aa1803e0 	mov	x0, x24
    1054:	940008d2 	bl	339c <mbedtls_mpi_shift_r>
    1058:	34000080 	cbz	w0, 1068 <mpi_egcd+0x358>
/home/zrz0517/study/TEE/RT-TEE/optee_os/lib/libutee/tee_api_arith_mpi.c:669 (discriminator 1)
    105c:	2a0003e2 	mov	w2, w0
    1060:	528053a1 	mov	w1, #0x29d                 	// #669
    1064:	17ffff57 	b	dc0 <mpi_egcd+0xb0>
/home/zrz0517/study/TEE/RT-TEE/optee_os/lib/libutee/tee_api_arith_mpi.c:670
    1068:	aa1403e0 	mov	x0, x20
    106c:	97fffec7 	bl	b88 <mpi_is_odd>
    1070:	72001c1f 	tst	w0, #0xff
    1074:	54000120 	b.eq	1098 <mpi_egcd+0x388>  // b.none
/home/zrz0517/study/TEE/RT-TEE/optee_os/lib/libutee/tee_api_arith_mpi.c:671
    1078:	aa1903e2 	mov	x2, x25
    107c:	aa1403e1 	mov	x1, x20
    1080:	aa1403e0 	mov	x0, x20
    1084:	940009e4 	bl	3814 <mbedtls_mpi_add_mpi>
    1088:	340001e0 	cbz	w0, 10c4 <mpi_egcd+0x3b4>
/home/zrz0517/study/TEE/RT-TEE/optee_os/lib/libutee/tee_api_arith_mpi.c:671 (discriminator 1)
    108c:	2a0003e2 	mov	w2, w0
    1090:	528053e1 	mov	w1, #0x29f                 	// #671
    1094:	17ffff4b 	b	dc0 <mpi_egcd+0xb0>
/home/zrz0517/study/TEE/RT-TEE/optee_os/lib/libutee/tee_api_arith_mpi.c:670 (discriminator 1)
    1098:	aa1303e0 	mov	x0, x19
    109c:	97fffebb 	bl	b88 <mpi_is_odd>
    10a0:	72001c1f 	tst	w0, #0xff
    10a4:	54fffea1 	b.ne	1078 <mpi_egcd+0x368>  // b.any
/home/zrz0517/study/TEE/RT-TEE/optee_os/lib/libutee/tee_api_arith_mpi.c:674
    10a8:	d2800021 	mov	x1, #0x1                   	// #1
    10ac:	aa1403e0 	mov	x0, x20
    10b0:	940008bb 	bl	339c <mbedtls_mpi_shift_r>
    10b4:	34000180 	cbz	w0, 10e4 <mpi_egcd+0x3d4>
/home/zrz0517/study/TEE/RT-TEE/optee_os/lib/libutee/tee_api_arith_mpi.c:674 (discriminator 1)
    10b8:	2a0003e2 	mov	w2, w0
    10bc:	52805441 	mov	w1, #0x2a2                 	// #674
    10c0:	17ffff40 	b	dc0 <mpi_egcd+0xb0>
/home/zrz0517/study/TEE/RT-TEE/optee_os/lib/libutee/tee_api_arith_mpi.c:672
    10c4:	aa1a03e2 	mov	x2, x26
    10c8:	aa1303e1 	mov	x1, x19
    10cc:	aa1303e0 	mov	x0, x19
    10d0:	940009f1 	bl	3894 <mbedtls_mpi_sub_mpi>
    10d4:	34fffea0 	cbz	w0, 10a8 <mpi_egcd+0x398>
/home/zrz0517/study/TEE/RT-TEE/optee_os/lib/libutee/tee_api_arith_mpi.c:672 (discriminator 1)
    10d8:	2a0003e2 	mov	w2, w0
    10dc:	52805401 	mov	w1, #0x2a0                 	// #672
    10e0:	17ffff38 	b	dc0 <mpi_egcd+0xb0>
/home/zrz0517/study/TEE/RT-TEE/optee_os/lib/libutee/tee_api_arith_mpi.c:675
    10e4:	d2800021 	mov	x1, #0x1                   	// #1
    10e8:	aa1303e0 	mov	x0, x19
    10ec:	940008ac 	bl	339c <mbedtls_mpi_shift_r>
    10f0:	34fff8e0 	cbz	w0, 100c <mpi_egcd+0x2fc>
/home/zrz0517/study/TEE/RT-TEE/optee_os/lib/libutee/tee_api_arith_mpi.c:675 (discriminator 1)
    10f4:	2a0003e2 	mov	w2, w0
    10f8:	52805461 	mov	w1, #0x2a3                 	// #675
    10fc:	17ffff31 	b	dc0 <mpi_egcd+0xb0>
/home/zrz0517/study/TEE/RT-TEE/optee_os/lib/libutee/tee_api_arith_mpi.c:681
    1100:	aa1403e2 	mov	x2, x20
    1104:	aa1703e1 	mov	x1, x23
    1108:	aa1703e0 	mov	x0, x23
    110c:	940009e2 	bl	3894 <mbedtls_mpi_sub_mpi>
    1110:	34000080 	cbz	w0, 1120 <mpi_egcd+0x410>
/home/zrz0517/study/TEE/RT-TEE/optee_os/lib/libutee/tee_api_arith_mpi.c:681 (discriminator 1)
    1114:	2a0003e2 	mov	w2, w0
    1118:	52805521 	mov	w1, #0x2a9                 	// #681
    111c:	17ffff29 	b	dc0 <mpi_egcd+0xb0>
/home/zrz0517/study/TEE/RT-TEE/optee_os/lib/libutee/tee_api_arith_mpi.c:682
    1120:	aa1303e2 	mov	x2, x19
    1124:	aa1603e1 	mov	x1, x22
    1128:	aa1603e0 	mov	x0, x22
    112c:	940009da 	bl	3894 <mbedtls_mpi_sub_mpi>
    1130:	34000380 	cbz	w0, 11a0 <mpi_egcd+0x490>
/home/zrz0517/study/TEE/RT-TEE/optee_os/lib/libutee/tee_api_arith_mpi.c:682 (discriminator 1)
    1134:	2a0003e2 	mov	w2, w0
    1138:	52805541 	mov	w1, #0x2aa                 	// #682
    113c:	17ffff21 	b	dc0 <mpi_egcd+0xb0>
/home/zrz0517/study/TEE/RT-TEE/optee_os/lib/libutee/tee_api_arith_mpi.c:684
    1140:	aa1503e2 	mov	x2, x21
    1144:	aa1803e1 	mov	x1, x24
    1148:	aa1803e0 	mov	x0, x24
    114c:	940009d2 	bl	3894 <mbedtls_mpi_sub_mpi>
    1150:	34000080 	cbz	w0, 1160 <mpi_egcd+0x450>
/home/zrz0517/study/TEE/RT-TEE/optee_os/lib/libutee/tee_api_arith_mpi.c:684 (discriminator 1)
    1154:	2a0003e2 	mov	w2, w0
    1158:	52805581 	mov	w1, #0x2ac                 	// #684
    115c:	17ffff19 	b	dc0 <mpi_egcd+0xb0>
/home/zrz0517/study/TEE/RT-TEE/optee_os/lib/libutee/tee_api_arith_mpi.c:685
    1160:	aa1703e2 	mov	x2, x23
    1164:	aa1403e1 	mov	x1, x20
    1168:	aa1403e0 	mov	x0, x20
    116c:	940009ca 	bl	3894 <mbedtls_mpi_sub_mpi>
    1170:	34000080 	cbz	w0, 1180 <mpi_egcd+0x470>
/home/zrz0517/study/TEE/RT-TEE/optee_os/lib/libutee/tee_api_arith_mpi.c:685 (discriminator 1)
    1174:	2a0003e2 	mov	w2, w0
    1178:	528055a1 	mov	w1, #0x2ad                 	// #685
    117c:	17ffff11 	b	dc0 <mpi_egcd+0xb0>
/home/zrz0517/study/TEE/RT-TEE/optee_os/lib/libutee/tee_api_arith_mpi.c:686
    1180:	aa1603e2 	mov	x2, x22
    1184:	aa1303e1 	mov	x1, x19
    1188:	aa1303e0 	mov	x0, x19
    118c:	940009c2 	bl	3894 <mbedtls_mpi_sub_mpi>
    1190:	34000080 	cbz	w0, 11a0 <mpi_egcd+0x490>
/home/zrz0517/study/TEE/RT-TEE/optee_os/lib/libutee/tee_api_arith_mpi.c:686 (discriminator 1)
    1194:	2a0003e2 	mov	w2, w0
    1198:	528055c1 	mov	w1, #0x2ae                 	// #686
    119c:	17ffff09 	b	dc0 <mpi_egcd+0xb0>
/home/zrz0517/study/TEE/RT-TEE/optee_os/lib/libutee/tee_api_arith_mpi.c:657
    11a0:	52800001 	mov	w1, #0x0                   	// #0
    11a4:	aa1503e0 	mov	x0, x21
    11a8:	9400090b 	bl	35d4 <mbedtls_mpi_cmp_int>
    11ac:	35fff280 	cbnz	w0, ffc <mpi_egcd+0x2ec>
/home/zrz0517/study/TEE/RT-TEE/optee_os/lib/libutee/tee_api_arith_mpi.c:690
    11b0:	9e660100 	fmov	x0, d8
    11b4:	aa1403e1 	mov	x1, x20
    11b8:	940006c3 	bl	2cc4 <mbedtls_mpi_copy>
    11bc:	34000080 	cbz	w0, 11cc <mpi_egcd+0x4bc>
/home/zrz0517/study/TEE/RT-TEE/optee_os/lib/libutee/tee_api_arith_mpi.c:690 (discriminator 1)
    11c0:	2a0003e2 	mov	w2, w0
    11c4:	52805641 	mov	w1, #0x2b2                 	// #690
    11c8:	17fffefe 	b	dc0 <mpi_egcd+0xb0>
/home/zrz0517/study/TEE/RT-TEE/optee_os/lib/libutee/tee_api_arith_mpi.c:691
    11cc:	aa1303e1 	mov	x1, x19
    11d0:	aa1c03e0 	mov	x0, x28
    11d4:	940006bc 	bl	2cc4 <mbedtls_mpi_copy>
    11d8:	34000080 	cbz	w0, 11e8 <mpi_egcd+0x4d8>
/home/zrz0517/study/TEE/RT-TEE/optee_os/lib/libutee/tee_api_arith_mpi.c:691 (discriminator 1)
    11dc:	2a0003e2 	mov	w2, w0
    11e0:	52805661 	mov	w1, #0x2b3                 	// #691
    11e4:	17fffef7 	b	dc0 <mpi_egcd+0xb0>
/home/zrz0517/study/TEE/RT-TEE/optee_os/lib/libutee/tee_api_arith_mpi.c:692
    11e8:	2a1b03e1 	mov	w1, w27
    11ec:	aa1803e0 	mov	x0, x24
    11f0:	9400082c 	bl	32a0 <mbedtls_mpi_shift_l>
    11f4:	34000080 	cbz	w0, 1204 <mpi_egcd+0x4f4>
/home/zrz0517/study/TEE/RT-TEE/optee_os/lib/libutee/tee_api_arith_mpi.c:692 (discriminator 1)
    11f8:	2a0003e2 	mov	w2, w0
    11fc:	52805681 	mov	w1, #0x2b4                 	// #692
    1200:	17fffef0 	b	dc0 <mpi_egcd+0xb0>
/home/zrz0517/study/TEE/RT-TEE/optee_os/lib/libutee/tee_api_arith_mpi.c:695
    1204:	aa1703e0 	mov	x0, x23
    1208:	97fffe72 	bl	bd0 <put_mpi>
/home/zrz0517/study/TEE/RT-TEE/optee_os/lib/libutee/tee_api_arith_mpi.c:696
    120c:	aa1603e0 	mov	x0, x22
    1210:	97fffe70 	bl	bd0 <put_mpi>
/home/zrz0517/study/TEE/RT-TEE/optee_os/lib/libutee/tee_api_arith_mpi.c:697
    1214:	aa1403e0 	mov	x0, x20
    1218:	97fffe6e 	bl	bd0 <put_mpi>
/home/zrz0517/study/TEE/RT-TEE/optee_os/lib/libutee/tee_api_arith_mpi.c:698
    121c:	aa1303e0 	mov	x0, x19
    1220:	97fffe6c 	bl	bd0 <put_mpi>
/home/zrz0517/study/TEE/RT-TEE/optee_os/lib/libutee/tee_api_arith_mpi.c:699
    1224:	aa1a03e0 	mov	x0, x26
    1228:	97fffe6a 	bl	bd0 <put_mpi>
/home/zrz0517/study/TEE/RT-TEE/optee_os/lib/libutee/tee_api_arith_mpi.c:700
    122c:	aa1903e0 	mov	x0, x25
    1230:	97fffe68 	bl	bd0 <put_mpi>
/home/zrz0517/study/TEE/RT-TEE/optee_os/lib/libutee/tee_api_arith_mpi.c:701
    1234:	aa1503e0 	mov	x0, x21
    1238:	97fffe66 	bl	bd0 <put_mpi>
/home/zrz0517/study/TEE/RT-TEE/optee_os/lib/libutee/tee_api_arith_mpi.c:702
    123c:	a94153f3 	ldp	x19, x20, [sp, #16]
    1240:	a9425bf5 	ldp	x21, x22, [sp, #32]
    1244:	a94363f7 	ldp	x23, x24, [sp, #48]
    1248:	a9446bf9 	ldp	x25, x26, [sp, #64]
    124c:	a94573fb 	ldp	x27, x28, [sp, #80]
    1250:	6d4627e8 	ldp	d8, d9, [sp, #96]
    1254:	a8ce7bfd 	ldp	x29, x30, [sp], #224
    1258:	d65f03c0 	ret

000000000000125c <_TEE_MathAPI_Init>:
_TEE_MathAPI_Init():
/home/zrz0517/study/TEE/RT-TEE/optee_os/lib/libutee/tee_api_arith_mpi.c:44
    125c:	a9bf7bfd 	stp	x29, x30, [sp, #-16]!
/home/zrz0517/study/TEE/RT-TEE/optee_os/lib/libutee/tee_api_arith_mpi.c:48
    1260:	d2840001 	mov	x1, #0x2000                	// #8192
    1264:	d2800002 	mov	x2, #0x0                   	// #0
/home/zrz0517/study/TEE/RT-TEE/optee_os/lib/libutee/tee_api_arith_mpi.c:44
    1268:	910003fd 	mov	x29, sp
/home/zrz0517/study/TEE/RT-TEE/optee_os/lib/libutee/tee_api_arith_mpi.c:48
    126c:	f0000040 	adrp	x0, c000 <ta_props>
    1270:	91074000 	add	x0, x0, #0x1d0
    1274:	94001b7d 	bl	8068 <mempool_alloc_pool>
    1278:	b0000041 	adrp	x1, a000 <__func__.4888+0x13>
    127c:	f946ec21 	ldr	x1, [x1, #3544]
    1280:	f9000020 	str	x0, [x1]
/home/zrz0517/study/TEE/RT-TEE/optee_os/lib/libutee/tee_api_arith_mpi.c:49
    1284:	b5000100 	cbnz	x0, 12a4 <_TEE_MathAPI_Init+0x48>
/home/zrz0517/study/TEE/RT-TEE/optee_os/lib/libutee/tee_api_arith_mpi.c:50
    1288:	90000040 	adrp	x0, 9000 <__text_end+0xd6c>
    128c:	913c3400 	add	x0, x0, #0xf0d
    1290:	b0000042 	adrp	x2, a000 <__func__.4888+0x13>
    1294:	52800641 	mov	w1, #0x32                  	// #50
    1298:	91025442 	add	x2, x2, #0x95
    129c:	91009400 	add	x0, x0, #0x25
    12a0:	97fffe0a 	bl	ac8 <api_panic>
/home/zrz0517/study/TEE/RT-TEE/optee_os/lib/libutee/tee_api_arith_mpi.c:51
    12a4:	a8c17bfd 	ldp	x29, x30, [sp], #16
    12a8:	d65f03c0 	ret

00000000000012ac <TEE_BigIntInit>:
TEE_BigIntInit():
/home/zrz0517/study/TEE/RT-TEE/optee_os/lib/libutee/tee_api_arith_mpi.c:140
    12ac:	11007c22 	add	w2, w1, #0x1f
/home/zrz0517/study/TEE/RT-TEE/optee_os/lib/libutee/tee_api_arith_mpi.c:139
    12b0:	a9be7bfd 	stp	x29, x30, [sp, #-32]!
/home/zrz0517/study/TEE/RT-TEE/optee_os/lib/libutee/tee_api_arith_mpi.c:140
    12b4:	53057c42 	lsr	w2, w2, #5
/home/zrz0517/study/TEE/RT-TEE/optee_os/lib/libutee/tee_api_arith_mpi.c:139
    12b8:	910003fd 	mov	x29, sp
/home/zrz0517/study/TEE/RT-TEE/optee_os/lib/libutee/tee_api_arith_mpi.c:140
    12bc:	11000842 	add	w2, w2, #0x2
/home/zrz0517/study/TEE/RT-TEE/optee_os/lib/libutee/tee_api_arith_mpi.c:139
    12c0:	f9000bf3 	str	x19, [sp, #16]
    12c4:	2a0103f3 	mov	w19, w1
/home/zrz0517/study/TEE/RT-TEE/optee_os/lib/libutee/tee_api_arith_mpi.c:140
    12c8:	d37e6c42 	ubfiz	x2, x2, #2, #28
    12cc:	52800001 	mov	w1, #0x0                   	// #0
    12d0:	9400177f 	bl	70cc <memset>
    12d4:	aa0003e3 	mov	x3, x0
/home/zrz0517/study/TEE/RT-TEE/optee_os/lib/libutee/tee_api_arith_mpi.c:145
    12d8:	52800020 	mov	w0, #0x1                   	// #1
/home/zrz0517/study/TEE/RT-TEE/optee_os/lib/libutee/tee_api_arith_mpi.c:146
    12dc:	51000a73 	sub	w19, w19, #0x2
/home/zrz0517/study/TEE/RT-TEE/optee_os/lib/libutee/tee_api_arith_mpi.c:145
    12e0:	b9000060 	str	w0, [x3]
/home/zrz0517/study/TEE/RT-TEE/optee_os/lib/libutee/tee_api_arith_mpi.c:146
    12e4:	5284e200 	mov	w0, #0x2710                	// #10000
    12e8:	6b00027f 	cmp	w19, w0
    12ec:	54000109 	b.ls	130c <TEE_BigIntInit+0x60>  // b.plast
/home/zrz0517/study/TEE/RT-TEE/optee_os/lib/libutee/tee_api_arith_mpi.c:147
    12f0:	90000040 	adrp	x0, 9000 <__text_end+0xd6c>
    12f4:	913c3400 	add	x0, x0, #0xf0d
    12f8:	b0000042 	adrp	x2, a000 <__func__.4888+0x13>
    12fc:	52801261 	mov	w1, #0x93                  	// #147
    1300:	9102d842 	add	x2, x2, #0xb6
    1304:	9100dc00 	add	x0, x0, #0x37
    1308:	97fffdf0 	bl	ac8 <api_panic>
/home/zrz0517/study/TEE/RT-TEE/optee_os/lib/libutee/tee_api_arith_mpi.c:148
    130c:	79000873 	strh	w19, [x3, #4]
/home/zrz0517/study/TEE/RT-TEE/optee_os/lib/libutee/tee_api_arith_mpi.c:149
    1310:	f9400bf3 	ldr	x19, [sp, #16]
    1314:	a8c27bfd 	ldp	x29, x30, [sp], #32
    1318:	d65f03c0 	ret

000000000000131c <TEE_BigIntConvertFromOctetString>:
TEE_BigIntConvertFromOctetString():
/home/zrz0517/study/TEE/RT-TEE/optee_os/lib/libutee/tee_api_arith_mpi.c:154
    131c:	a9bc7bfd 	stp	x29, x30, [sp, #-64]!
    1320:	910003fd 	mov	x29, sp
    1324:	a90153f3 	stp	x19, x20, [sp, #16]
/home/zrz0517/study/TEE/RT-TEE/optee_os/lib/libutee/tee_api_arith_mpi.c:158
    1328:	9100c3f4 	add	x20, sp, #0x30
/home/zrz0517/study/TEE/RT-TEE/optee_os/lib/libutee/tee_api_arith_mpi.c:154
    132c:	aa0103f3 	mov	x19, x1
    1330:	a9025bf5 	stp	x21, x22, [sp, #32]
    1334:	2a0203f6 	mov	w22, w2
/home/zrz0517/study/TEE/RT-TEE/optee_os/lib/libutee/tee_api_arith_mpi.c:158
    1338:	aa0003e1 	mov	x1, x0
/home/zrz0517/study/TEE/RT-TEE/optee_os/lib/libutee/tee_api_arith_mpi.c:154
    133c:	2a0303f5 	mov	w21, w3
/home/zrz0517/study/TEE/RT-TEE/optee_os/lib/libutee/tee_api_arith_mpi.c:158
    1340:	aa1403e0 	mov	x0, x20
    1344:	97fffe2e 	bl	bfc <get_mpi>
/home/zrz0517/study/TEE/RT-TEE/optee_os/lib/libutee/tee_api_arith_mpi.c:160
    1348:	aa1303e1 	mov	x1, x19
    134c:	2a1603e2 	mov	w2, w22
    1350:	aa1403e0 	mov	x0, x20
    1354:	94000785 	bl	3168 <mbedtls_mpi_read_binary>
/home/zrz0517/study/TEE/RT-TEE/optee_os/lib/libutee/tee_api_arith_mpi.c:163
    1358:	7100001f 	cmp	w0, #0x0
    135c:	1299fe13 	mov	w19, #0xffff300f            	// #-53233
    1360:	1a9f1273 	csel	w19, w19, wzr, ne  // ne = any
/home/zrz0517/study/TEE/RT-TEE/optee_os/lib/libutee/tee_api_arith_mpi.c:165
    1364:	36f80075 	tbz	w21, #31, 1370 <TEE_BigIntConvertFromOctetString+0x54>
/home/zrz0517/study/TEE/RT-TEE/optee_os/lib/libutee/tee_api_arith_mpi.c:166
    1368:	12800000 	mov	w0, #0xffffffff            	// #-1
    136c:	3900c3e0 	strb	w0, [sp, #48]
/home/zrz0517/study/TEE/RT-TEE/optee_os/lib/libutee/tee_api_arith_mpi.c:168
    1370:	aa1403e0 	mov	x0, x20
    1374:	97fffe17 	bl	bd0 <put_mpi>
/home/zrz0517/study/TEE/RT-TEE/optee_os/lib/libutee/tee_api_arith_mpi.c:171
    1378:	2a1303e0 	mov	w0, w19
    137c:	a94153f3 	ldp	x19, x20, [sp, #16]
    1380:	a9425bf5 	ldp	x21, x22, [sp, #32]
    1384:	a8c47bfd 	ldp	x29, x30, [sp], #64
    1388:	d65f03c0 	ret

000000000000138c <TEE_BigIntConvertToOctetString>:
TEE_BigIntConvertToOctetString():
/home/zrz0517/study/TEE/RT-TEE/optee_os/lib/libutee/tee_api_arith_mpi.c:175
    138c:	a9bc7bfd 	stp	x29, x30, [sp, #-64]!
    1390:	910003fd 	mov	x29, sp
    1394:	a9025bf5 	stp	x21, x22, [sp, #32]
    1398:	aa0103f6 	mov	x22, x1
/home/zrz0517/study/TEE/RT-TEE/optee_os/lib/libutee/tee_api_arith_mpi.c:180
    139c:	aa0203e1 	mov	x1, x2
/home/zrz0517/study/TEE/RT-TEE/optee_os/lib/libutee/tee_api_arith_mpi.c:175
    13a0:	a90153f3 	stp	x19, x20, [sp, #16]
/home/zrz0517/study/TEE/RT-TEE/optee_os/lib/libutee/tee_api_arith_mpi.c:180
    13a4:	9100c3f3 	add	x19, sp, #0x30
/home/zrz0517/study/TEE/RT-TEE/optee_os/lib/libutee/tee_api_arith_mpi.c:175
    13a8:	aa0003f5 	mov	x21, x0
/home/zrz0517/study/TEE/RT-TEE/optee_os/lib/libutee/tee_api_arith_mpi.c:180
    13ac:	aa1303e0 	mov	x0, x19
    13b0:	97fffdde 	bl	b28 <get_const_mpi>
/home/zrz0517/study/TEE/RT-TEE/optee_os/lib/libutee/tee_api_arith_mpi.c:182
    13b4:	aa1303e0 	mov	x0, x19
    13b8:	94000765 	bl	314c <mbedtls_mpi_size>
    13bc:	aa0003f4 	mov	x20, x0
/home/zrz0517/study/TEE/RT-TEE/optee_os/lib/libutee/tee_api_arith_mpi.c:183
    13c0:	b94002c0 	ldr	w0, [x22]
    13c4:	eb14001f 	cmp	x0, x20
    13c8:	540001a3 	b.cc	13fc <TEE_BigIntConvertToOctetString+0x70>  // b.lo, b.ul, b.last
/home/zrz0517/study/TEE/RT-TEE/optee_os/lib/libutee/tee_api_arith_mpi.c:184
    13cc:	aa1503e1 	mov	x1, x21
    13d0:	aa1403e2 	mov	x2, x20
    13d4:	aa1303e0 	mov	x0, x19
/home/zrz0517/study/TEE/RT-TEE/optee_os/lib/libutee/tee_api_arith_mpi.c:176
    13d8:	52800015 	mov	w21, #0x0                   	// #0
/home/zrz0517/study/TEE/RT-TEE/optee_os/lib/libutee/tee_api_arith_mpi.c:184
    13dc:	9400078e 	bl	3214 <mbedtls_mpi_write_binary>
    13e0:	34000100 	cbz	w0, 1400 <TEE_BigIntConvertToOctetString+0x74>
/home/zrz0517/study/TEE/RT-TEE/optee_os/lib/libutee/tee_api_arith_mpi.c:184 (discriminator 1)
    13e4:	2a0003e2 	mov	w2, w0
    13e8:	90000040 	adrp	x0, 9000 <__text_end+0xd6c>
    13ec:	913c3400 	add	x0, x0, #0xf0d
    13f0:	52801701 	mov	w1, #0xb8                  	// #184
    13f4:	91011800 	add	x0, x0, #0x46
    13f8:	97fffdc0 	bl	af8 <mpi_panic>
/home/zrz0517/study/TEE/RT-TEE/optee_os/lib/libutee/tee_api_arith_mpi.c:186
    13fc:	129ffdf5 	mov	w21, #0xffff0010            	// #-65520
/home/zrz0517/study/TEE/RT-TEE/optee_os/lib/libutee/tee_api_arith_mpi.c:188
    1400:	b90002d4 	str	w20, [x22]
/home/zrz0517/study/TEE/RT-TEE/optee_os/lib/libutee/tee_api_arith_mpi.c:190
    1404:	aa1303e0 	mov	x0, x19
    1408:	97fffdf2 	bl	bd0 <put_mpi>
/home/zrz0517/study/TEE/RT-TEE/optee_os/lib/libutee/tee_api_arith_mpi.c:193
    140c:	2a1503e0 	mov	w0, w21
    1410:	a94153f3 	ldp	x19, x20, [sp, #16]
    1414:	a9425bf5 	ldp	x21, x22, [sp, #32]
    1418:	a8c47bfd 	ldp	x29, x30, [sp], #64
    141c:	d65f03c0 	ret

0000000000001420 <TEE_BigIntConvertFromS32>:
TEE_BigIntConvertFromS32():
/home/zrz0517/study/TEE/RT-TEE/optee_os/lib/libutee/tee_api_arith_mpi.c:196
    1420:	a9bd7bfd 	stp	x29, x30, [sp, #-48]!
    1424:	910003fd 	mov	x29, sp
    1428:	a90153f3 	stp	x19, x20, [sp, #16]
/home/zrz0517/study/TEE/RT-TEE/optee_os/lib/libutee/tee_api_arith_mpi.c:199
    142c:	910083f3 	add	x19, sp, #0x20
/home/zrz0517/study/TEE/RT-TEE/optee_os/lib/libutee/tee_api_arith_mpi.c:196
    1430:	2a0103f4 	mov	w20, w1
/home/zrz0517/study/TEE/RT-TEE/optee_os/lib/libutee/tee_api_arith_mpi.c:199
    1434:	aa0003e1 	mov	x1, x0
    1438:	aa1303e0 	mov	x0, x19
    143c:	97fffdf0 	bl	bfc <get_mpi>
/home/zrz0517/study/TEE/RT-TEE/optee_os/lib/libutee/tee_api_arith_mpi.c:201
    1440:	2a1403e1 	mov	w1, w20
    1444:	aa1303e0 	mov	x0, x19
    1448:	940006ca 	bl	2f70 <mbedtls_mpi_lset>
    144c:	340000e0 	cbz	w0, 1468 <TEE_BigIntConvertFromS32+0x48>
/home/zrz0517/study/TEE/RT-TEE/optee_os/lib/libutee/tee_api_arith_mpi.c:201 (discriminator 1)
    1450:	2a0003e2 	mov	w2, w0
    1454:	90000040 	adrp	x0, 9000 <__text_end+0xd6c>
    1458:	913c3400 	add	x0, x0, #0xf0d
    145c:	52801921 	mov	w1, #0xc9                  	// #201
    1460:	91019400 	add	x0, x0, #0x65
    1464:	97fffda5 	bl	af8 <mpi_panic>
/home/zrz0517/study/TEE/RT-TEE/optee_os/lib/libutee/tee_api_arith_mpi.c:203
    1468:	aa1303e0 	mov	x0, x19
    146c:	97fffdd9 	bl	bd0 <put_mpi>
/home/zrz0517/study/TEE/RT-TEE/optee_os/lib/libutee/tee_api_arith_mpi.c:204
    1470:	a94153f3 	ldp	x19, x20, [sp, #16]
    1474:	a8c37bfd 	ldp	x29, x30, [sp], #48
    1478:	d65f03c0 	ret

000000000000147c <TEE_BigIntConvertToS32>:
TEE_BigIntConvertToS32():
/home/zrz0517/study/TEE/RT-TEE/optee_os/lib/libutee/tee_api_arith_mpi.c:207
    147c:	a9bc7bfd 	stp	x29, x30, [sp, #-64]!
    1480:	910003fd 	mov	x29, sp
    1484:	a90153f3 	stp	x19, x20, [sp, #16]
/home/zrz0517/study/TEE/RT-TEE/optee_os/lib/libutee/tee_api_arith_mpi.c:212
    1488:	9100c3f3 	add	x19, sp, #0x30
/home/zrz0517/study/TEE/RT-TEE/optee_os/lib/libutee/tee_api_arith_mpi.c:207
    148c:	aa0003f4 	mov	x20, x0
/home/zrz0517/study/TEE/RT-TEE/optee_os/lib/libutee/tee_api_arith_mpi.c:212
    1490:	aa1303e0 	mov	x0, x19
    1494:	97fffda5 	bl	b28 <get_const_mpi>
/home/zrz0517/study/TEE/RT-TEE/optee_os/lib/libutee/tee_api_arith_mpi.c:214
    1498:	d2800082 	mov	x2, #0x4                   	// #4
    149c:	9100b3e1 	add	x1, sp, #0x2c
    14a0:	aa1303e0 	mov	x0, x19
    14a4:	9400075c 	bl	3214 <mbedtls_mpi_write_binary>
    14a8:	34000100 	cbz	w0, 14c8 <TEE_BigIntConvertToS32+0x4c>
/home/zrz0517/study/TEE/RT-TEE/optee_os/lib/libutee/tee_api_arith_mpi.c:215
    14ac:	1299fe14 	mov	w20, #0xffff300f            	// #-53233
/home/zrz0517/study/TEE/RT-TEE/optee_os/lib/libutee/tee_api_arith_mpi.c:228
    14b0:	aa1303e0 	mov	x0, x19
    14b4:	97fffdc7 	bl	bd0 <put_mpi>
/home/zrz0517/study/TEE/RT-TEE/optee_os/lib/libutee/tee_api_arith_mpi.c:231
    14b8:	2a1403e0 	mov	w0, w20
    14bc:	a94153f3 	ldp	x19, x20, [sp, #16]
    14c0:	a8c47bfd 	ldp	x29, x30, [sp], #64
    14c4:	d65f03c0 	ret
/home/zrz0517/study/TEE/RT-TEE/optee_os/lib/libutee/tee_api_arith_mpi.c:219
    14c8:	b9402fe1 	ldr	w1, [sp, #44]
    14cc:	39c0c3e0 	ldrsb	w0, [sp, #48]
    14d0:	5ac00821 	rev	w1, w1
    14d4:	7100001f 	cmp	w0, #0x0
    14d8:	2a0103e0 	mov	w0, w1
    14dc:	540000cd 	b.le	14f4 <TEE_BigIntConvertToS32+0x78>
/home/zrz0517/study/TEE/RT-TEE/optee_os/lib/libutee/tee_api_arith_mpi.c:220
    14e0:	eb21c01f 	cmp	x0, w1, sxtw
    14e4:	b9000281 	str	w1, [x20]
/home/zrz0517/study/TEE/RT-TEE/optee_os/lib/libutee/tee_api_arith_mpi.c:223
    14e8:	54fffe21 	b.ne	14ac <TEE_BigIntConvertToS32+0x30>  // b.any
/home/zrz0517/study/TEE/RT-TEE/optee_os/lib/libutee/tee_api_arith_mpi.c:208
    14ec:	52800014 	mov	w20, #0x0                   	// #0
    14f0:	17fffff0 	b	14b0 <TEE_BigIntConvertToS32+0x34>
/home/zrz0517/study/TEE/RT-TEE/optee_os/lib/libutee/tee_api_arith_mpi.c:223
    14f4:	cb0003e0 	neg	x0, x0
    14f8:	b9000280 	str	w0, [x20]
    14fc:	eb20c01f 	cmp	x0, w0, sxtw
    1500:	17fffffa 	b	14e8 <TEE_BigIntConvertToS32+0x6c>

0000000000001504 <TEE_BigIntCmp>:
TEE_BigIntCmp():
/home/zrz0517/study/TEE/RT-TEE/optee_os/lib/libutee/tee_api_arith_mpi.c:234
    1504:	a9bb7bfd 	stp	x29, x30, [sp, #-80]!
    1508:	910003fd 	mov	x29, sp
    150c:	a90153f3 	stp	x19, x20, [sp, #16]
/home/zrz0517/study/TEE/RT-TEE/optee_os/lib/libutee/tee_api_arith_mpi.c:239
    1510:	9100c3f4 	add	x20, sp, #0x30
/home/zrz0517/study/TEE/RT-TEE/optee_os/lib/libutee/tee_api_arith_mpi.c:240
    1514:	910103f3 	add	x19, sp, #0x40
/home/zrz0517/study/TEE/RT-TEE/optee_os/lib/libutee/tee_api_arith_mpi.c:234
    1518:	f90013f5 	str	x21, [sp, #32]
    151c:	aa0103f5 	mov	x21, x1
/home/zrz0517/study/TEE/RT-TEE/optee_os/lib/libutee/tee_api_arith_mpi.c:239
    1520:	aa0003e1 	mov	x1, x0
    1524:	aa1403e0 	mov	x0, x20
    1528:	97fffd80 	bl	b28 <get_const_mpi>
/home/zrz0517/study/TEE/RT-TEE/optee_os/lib/libutee/tee_api_arith_mpi.c:240
    152c:	aa1503e1 	mov	x1, x21
    1530:	aa1303e0 	mov	x0, x19
    1534:	97fffd7d 	bl	b28 <get_const_mpi>
/home/zrz0517/study/TEE/RT-TEE/optee_os/lib/libutee/tee_api_arith_mpi.c:242
    1538:	aa1303e1 	mov	x1, x19
    153c:	aa1403e0 	mov	x0, x20
    1540:	940007f0 	bl	3500 <mbedtls_mpi_cmp_mpi>
    1544:	2a0003f5 	mov	w21, w0
/home/zrz0517/study/TEE/RT-TEE/optee_os/lib/libutee/tee_api_arith_mpi.c:244
    1548:	aa1403e0 	mov	x0, x20
    154c:	97fffda1 	bl	bd0 <put_mpi>
/home/zrz0517/study/TEE/RT-TEE/optee_os/lib/libutee/tee_api_arith_mpi.c:245
    1550:	aa1303e0 	mov	x0, x19
    1554:	97fffd9f 	bl	bd0 <put_mpi>
/home/zrz0517/study/TEE/RT-TEE/optee_os/lib/libutee/tee_api_arith_mpi.c:248
    1558:	2a1503e0 	mov	w0, w21
    155c:	a94153f3 	ldp	x19, x20, [sp, #16]
    1560:	f94013f5 	ldr	x21, [sp, #32]
    1564:	a8c57bfd 	ldp	x29, x30, [sp], #80
    1568:	d65f03c0 	ret

000000000000156c <TEE_BigIntCmpS32>:
TEE_BigIntCmpS32():
/home/zrz0517/study/TEE/RT-TEE/optee_os/lib/libutee/tee_api_arith_mpi.c:251
    156c:	a9bd7bfd 	stp	x29, x30, [sp, #-48]!
    1570:	910003fd 	mov	x29, sp
    1574:	a90153f3 	stp	x19, x20, [sp, #16]
/home/zrz0517/study/TEE/RT-TEE/optee_os/lib/libutee/tee_api_arith_mpi.c:255
    1578:	910083f3 	add	x19, sp, #0x20
/home/zrz0517/study/TEE/RT-TEE/optee_os/lib/libutee/tee_api_arith_mpi.c:251
    157c:	2a0103f4 	mov	w20, w1
/home/zrz0517/study/TEE/RT-TEE/optee_os/lib/libutee/tee_api_arith_mpi.c:255
    1580:	aa0003e1 	mov	x1, x0
    1584:	aa1303e0 	mov	x0, x19
    1588:	97fffd68 	bl	b28 <get_const_mpi>
/home/zrz0517/study/TEE/RT-TEE/optee_os/lib/libutee/tee_api_arith_mpi.c:257
    158c:	2a1403e1 	mov	w1, w20
    1590:	aa1303e0 	mov	x0, x19
    1594:	94000810 	bl	35d4 <mbedtls_mpi_cmp_int>
    1598:	2a0003f4 	mov	w20, w0
/home/zrz0517/study/TEE/RT-TEE/optee_os/lib/libutee/tee_api_arith_mpi.c:259
    159c:	aa1303e0 	mov	x0, x19
    15a0:	97fffd8c 	bl	bd0 <put_mpi>
/home/zrz0517/study/TEE/RT-TEE/optee_os/lib/libutee/tee_api_arith_mpi.c:262
    15a4:	2a1403e0 	mov	w0, w20
    15a8:	a94153f3 	ldp	x19, x20, [sp, #16]
    15ac:	a8c37bfd 	ldp	x29, x30, [sp], #48
    15b0:	d65f03c0 	ret

00000000000015b4 <bigint_binary_mod>:
bigint_binary_mod():
/home/zrz0517/study/TEE/RT-TEE/optee_os/lib/libutee/tee_api_arith_mpi.c:370
    15b4:	a9b67bfd 	stp	x29, x30, [sp, #-160]!
    15b8:	910003fd 	mov	x29, sp
    15bc:	a90153f3 	stp	x19, x20, [sp, #16]
    15c0:	aa0203f3 	mov	x19, x2
    15c4:	aa0303f4 	mov	x20, x3
    15c8:	a9025bf5 	stp	x21, x22, [sp, #32]
    15cc:	aa0103f6 	mov	x22, x1
/home/zrz0517/study/TEE/RT-TEE/optee_os/lib/libutee/tee_api_arith_mpi.c:371
    15d0:	52800041 	mov	w1, #0x2                   	// #2
/home/zrz0517/study/TEE/RT-TEE/optee_os/lib/libutee/tee_api_arith_mpi.c:370
    15d4:	a90363f7 	stp	x23, x24, [sp, #48]
    15d8:	aa0003f7 	mov	x23, x0
/home/zrz0517/study/TEE/RT-TEE/optee_os/lib/libutee/tee_api_arith_mpi.c:371
    15dc:	aa0303e0 	mov	x0, x3
/home/zrz0517/study/TEE/RT-TEE/optee_os/lib/libutee/tee_api_arith_mpi.c:370
    15e0:	a9046bf9 	stp	x25, x26, [sp, #64]
    15e4:	aa0403fa 	mov	x26, x4
/home/zrz0517/study/TEE/RT-TEE/optee_os/lib/libutee/tee_api_arith_mpi.c:371
    15e8:	97ffffe1 	bl	156c <TEE_BigIntCmpS32>
    15ec:	36f80100 	tbz	w0, #31, 160c <bigint_binary_mod+0x58>
/home/zrz0517/study/TEE/RT-TEE/optee_os/lib/libutee/tee_api_arith_mpi.c:372
    15f0:	90000040 	adrp	x0, 9000 <__text_end+0xd6c>
    15f4:	913c3400 	add	x0, x0, #0xf0d
    15f8:	b0000042 	adrp	x2, a000 <__func__.4888+0x13>
    15fc:	52802e81 	mov	w1, #0x174                 	// #372
    1600:	91031c42 	add	x2, x2, #0xc7
    1604:	9101f800 	add	x0, x0, #0x7e
    1608:	97fffd30 	bl	ac8 <api_panic>
/home/zrz0517/study/TEE/RT-TEE/optee_os/lib/libutee/tee_api_arith_mpi.c:382
    160c:	910143f5 	add	x21, sp, #0x50
    1610:	aa1703e1 	mov	x1, x23
    1614:	aa1503e0 	mov	x0, x21
/home/zrz0517/study/TEE/RT-TEE/optee_os/lib/libutee/tee_api_arith_mpi.c:383
    1618:	910203f9 	add	x25, sp, #0x80
/home/zrz0517/study/TEE/RT-TEE/optee_os/lib/libutee/tee_api_arith_mpi.c:382
    161c:	97fffd78 	bl	bfc <get_mpi>
/home/zrz0517/study/TEE/RT-TEE/optee_os/lib/libutee/tee_api_arith_mpi.c:383
    1620:	910183f8 	add	x24, sp, #0x60
    1624:	aa1403e1 	mov	x1, x20
    1628:	aa1903e0 	mov	x0, x25
    162c:	97fffd3f 	bl	b28 <get_const_mpi>
/home/zrz0517/study/TEE/RT-TEE/optee_os/lib/libutee/tee_api_arith_mpi.c:385
    1630:	eb1602ff 	cmp	x23, x22
    1634:	54000380 	b.eq	16a4 <bigint_binary_mod+0xf0>  // b.none
/home/zrz0517/study/TEE/RT-TEE/optee_os/lib/libutee/tee_api_arith_mpi.c:378
    1638:	aa1803f4 	mov	x20, x24
/home/zrz0517/study/TEE/RT-TEE/optee_os/lib/libutee/tee_api_arith_mpi.c:388
    163c:	aa1603e1 	mov	x1, x22
    1640:	aa1803e0 	mov	x0, x24
    1644:	97fffd39 	bl	b28 <get_const_mpi>
/home/zrz0517/study/TEE/RT-TEE/optee_os/lib/libutee/tee_api_arith_mpi.c:390
    1648:	eb1302ff 	cmp	x23, x19
    164c:	9101c3f7 	add	x23, sp, #0x70
    1650:	540002e0 	b.eq	16ac <bigint_binary_mod+0xf8>  // b.none
/home/zrz0517/study/TEE/RT-TEE/optee_os/lib/libutee/tee_api_arith_mpi.c:392
    1654:	eb1302df 	cmp	x22, x19
    1658:	540002e0 	b.eq	16b4 <bigint_binary_mod+0x100>  // b.none
/home/zrz0517/study/TEE/RT-TEE/optee_os/lib/libutee/tee_api_arith_mpi.c:395
    165c:	aa1303e1 	mov	x1, x19
/home/zrz0517/study/TEE/RT-TEE/optee_os/lib/libutee/tee_api_arith_mpi.c:379
    1660:	aa1703f3 	mov	x19, x23
/home/zrz0517/study/TEE/RT-TEE/optee_os/lib/libutee/tee_api_arith_mpi.c:395
    1664:	aa1703e0 	mov	x0, x23
    1668:	97fffd30 	bl	b28 <get_const_mpi>
get_mpi():
/home/zrz0517/study/TEE/RT-TEE/optee_os/lib/libutee/tee_api_arith_mpi.c:99
    166c:	910243f6 	add	x22, sp, #0x90
    1670:	aa1603e0 	mov	x0, x22
    1674:	940004c0 	bl	2974 <mbedtls_mpi_init_mempool>
bigint_binary_mod():
/home/zrz0517/study/TEE/RT-TEE/optee_os/lib/libutee/tee_api_arith_mpi.c:399
    1678:	aa1303e2 	mov	x2, x19
    167c:	aa1403e1 	mov	x1, x20
    1680:	aa1603e0 	mov	x0, x22
    1684:	d63f0340 	blr	x26
    1688:	340001a0 	cbz	w0, 16bc <bigint_binary_mod+0x108>
/home/zrz0517/study/TEE/RT-TEE/optee_os/lib/libutee/tee_api_arith_mpi.c:399 (discriminator 1)
    168c:	2a0003e2 	mov	w2, w0
    1690:	528031e1 	mov	w1, #0x18f                 	// #399
/home/zrz0517/study/TEE/RT-TEE/optee_os/lib/libutee/tee_api_arith_mpi.c:400 (discriminator 1)
    1694:	90000040 	adrp	x0, 9000 <__text_end+0xd6c>
    1698:	913c3400 	add	x0, x0, #0xf0d
    169c:	9101f800 	add	x0, x0, #0x7e
    16a0:	97fffd16 	bl	af8 <mpi_panic>
/home/zrz0517/study/TEE/RT-TEE/optee_os/lib/libutee/tee_api_arith_mpi.c:386
    16a4:	aa1503f4 	mov	x20, x21
    16a8:	17ffffe8 	b	1648 <bigint_binary_mod+0x94>
/home/zrz0517/study/TEE/RT-TEE/optee_os/lib/libutee/tee_api_arith_mpi.c:391
    16ac:	aa1503f3 	mov	x19, x21
    16b0:	17ffffef 	b	166c <bigint_binary_mod+0xb8>
/home/zrz0517/study/TEE/RT-TEE/optee_os/lib/libutee/tee_api_arith_mpi.c:393
    16b4:	aa1403f3 	mov	x19, x20
    16b8:	17ffffed 	b	166c <bigint_binary_mod+0xb8>
/home/zrz0517/study/TEE/RT-TEE/optee_os/lib/libutee/tee_api_arith_mpi.c:400
    16bc:	aa1903e2 	mov	x2, x25
    16c0:	aa1603e1 	mov	x1, x22
    16c4:	aa1503e0 	mov	x0, x21
    16c8:	94000ae8 	bl	4268 <mbedtls_mpi_mod_mpi>
    16cc:	34000080 	cbz	w0, 16dc <bigint_binary_mod+0x128>
/home/zrz0517/study/TEE/RT-TEE/optee_os/lib/libutee/tee_api_arith_mpi.c:400 (discriminator 1)
    16d0:	2a0003e2 	mov	w2, w0
    16d4:	52803201 	mov	w1, #0x190                 	// #400
    16d8:	17ffffef 	b	1694 <bigint_binary_mod+0xe0>
/home/zrz0517/study/TEE/RT-TEE/optee_os/lib/libutee/tee_api_arith_mpi.c:402
    16dc:	aa1503e0 	mov	x0, x21
    16e0:	97fffd3c 	bl	bd0 <put_mpi>
/home/zrz0517/study/TEE/RT-TEE/optee_os/lib/libutee/tee_api_arith_mpi.c:403
    16e4:	eb18029f 	cmp	x20, x24
    16e8:	54000061 	b.ne	16f4 <bigint_binary_mod+0x140>  // b.any
/home/zrz0517/study/TEE/RT-TEE/optee_os/lib/libutee/tee_api_arith_mpi.c:404
    16ec:	aa1403e0 	mov	x0, x20
    16f0:	97fffd38 	bl	bd0 <put_mpi>
/home/zrz0517/study/TEE/RT-TEE/optee_os/lib/libutee/tee_api_arith_mpi.c:405
    16f4:	eb17027f 	cmp	x19, x23
    16f8:	54000061 	b.ne	1704 <bigint_binary_mod+0x150>  // b.any
/home/zrz0517/study/TEE/RT-TEE/optee_os/lib/libutee/tee_api_arith_mpi.c:406
    16fc:	aa1303e0 	mov	x0, x19
    1700:	97fffd34 	bl	bd0 <put_mpi>
/home/zrz0517/study/TEE/RT-TEE/optee_os/lib/libutee/tee_api_arith_mpi.c:407
    1704:	aa1603e0 	mov	x0, x22
    1708:	97fffd32 	bl	bd0 <put_mpi>
/home/zrz0517/study/TEE/RT-TEE/optee_os/lib/libutee/tee_api_arith_mpi.c:408
    170c:	a94153f3 	ldp	x19, x20, [sp, #16]
    1710:	a9425bf5 	ldp	x21, x22, [sp, #32]
    1714:	a94363f7 	ldp	x23, x24, [sp, #48]
    1718:	a9446bf9 	ldp	x25, x26, [sp, #64]
    171c:	a8ca7bfd 	ldp	x29, x30, [sp], #160
    1720:	d65f03c0 	ret

0000000000001724 <TEE_BigIntShiftRight>:
TEE_BigIntShiftRight():
/home/zrz0517/study/TEE/RT-TEE/optee_os/lib/libutee/tee_api_arith_mpi.c:265
    1724:	a9ba7bfd 	stp	x29, x30, [sp, #-96]!
    1728:	910003fd 	mov	x29, sp
    172c:	a90153f3 	stp	x19, x20, [sp, #16]
/home/zrz0517/study/TEE/RT-TEE/optee_os/lib/libutee/tee_api_arith_mpi.c:269
    1730:	9100c3f3 	add	x19, sp, #0x30
/home/zrz0517/study/TEE/RT-TEE/optee_os/lib/libutee/tee_api_arith_mpi.c:265
    1734:	aa0003f4 	mov	x20, x0
    1738:	a9025bf5 	stp	x21, x22, [sp, #32]
    173c:	aa0103f5 	mov	x21, x1
    1740:	aa0203f6 	mov	x22, x2
/home/zrz0517/study/TEE/RT-TEE/optee_os/lib/libutee/tee_api_arith_mpi.c:269
    1744:	aa0003e1 	mov	x1, x0
    1748:	aa1303e0 	mov	x0, x19
    174c:	97fffd2c 	bl	bfc <get_mpi>
/home/zrz0517/study/TEE/RT-TEE/optee_os/lib/libutee/tee_api_arith_mpi.c:271
    1750:	eb15029f 	cmp	x20, x21
    1754:	54000161 	b.ne	1780 <TEE_BigIntShiftRight+0x5c>  // b.any
/home/zrz0517/study/TEE/RT-TEE/optee_os/lib/libutee/tee_api_arith_mpi.c:272
    1758:	aa1603e1 	mov	x1, x22
    175c:	aa1303e0 	mov	x0, x19
    1760:	9400070f 	bl	339c <mbedtls_mpi_shift_r>
    1764:	34000780 	cbz	w0, 1854 <TEE_BigIntShiftRight+0x130>
/home/zrz0517/study/TEE/RT-TEE/optee_os/lib/libutee/tee_api_arith_mpi.c:272 (discriminator 1)
    1768:	2a0003e2 	mov	w2, w0
    176c:	52802201 	mov	w1, #0x110                 	// #272
/home/zrz0517/study/TEE/RT-TEE/optee_os/lib/libutee/tee_api_arith_mpi.c:279 (discriminator 1)
    1770:	90000040 	adrp	x0, 9000 <__text_end+0xd6c>
    1774:	913c3400 	add	x0, x0, #0xf0d
    1778:	91024000 	add	x0, x0, #0x90
    177c:	97fffcdf 	bl	af8 <mpi_panic>
/home/zrz0517/study/TEE/RT-TEE/optee_os/lib/libutee/tee_api_arith_mpi.c:276
    1780:	aa1503e1 	mov	x1, x21
    1784:	910103f4 	add	x20, sp, #0x40
    1788:	aa1403e0 	mov	x0, x20
    178c:	97fffce7 	bl	b28 <get_const_mpi>
/home/zrz0517/study/TEE/RT-TEE/optee_os/lib/libutee/tee_api_arith_mpi.c:278
    1790:	aa1303e0 	mov	x0, x19
    1794:	9400066e 	bl	314c <mbedtls_mpi_size>
    1798:	aa0003f5 	mov	x21, x0
    179c:	aa1403e0 	mov	x0, x20
    17a0:	9400066b 	bl	314c <mbedtls_mpi_size>
    17a4:	eb0002bf 	cmp	x21, x0
    17a8:	540001e3 	b.cc	17e4 <TEE_BigIntShiftRight+0xc0>  // b.lo, b.ul, b.last
/home/zrz0517/study/TEE/RT-TEE/optee_os/lib/libutee/tee_api_arith_mpi.c:279
    17ac:	aa1403e1 	mov	x1, x20
    17b0:	aa1303e0 	mov	x0, x19
    17b4:	94000544 	bl	2cc4 <mbedtls_mpi_copy>
    17b8:	34000080 	cbz	w0, 17c8 <TEE_BigIntShiftRight+0xa4>
/home/zrz0517/study/TEE/RT-TEE/optee_os/lib/libutee/tee_api_arith_mpi.c:279 (discriminator 1)
    17bc:	2a0003e2 	mov	w2, w0
    17c0:	528022e1 	mov	w1, #0x117                 	// #279
    17c4:	17ffffeb 	b	1770 <TEE_BigIntShiftRight+0x4c>
/home/zrz0517/study/TEE/RT-TEE/optee_os/lib/libutee/tee_api_arith_mpi.c:280
    17c8:	aa1603e1 	mov	x1, x22
    17cc:	aa1303e0 	mov	x0, x19
    17d0:	940006f3 	bl	339c <mbedtls_mpi_shift_r>
    17d4:	340003c0 	cbz	w0, 184c <TEE_BigIntShiftRight+0x128>
/home/zrz0517/study/TEE/RT-TEE/optee_os/lib/libutee/tee_api_arith_mpi.c:280 (discriminator 1)
    17d8:	2a0003e2 	mov	w2, w0
    17dc:	52802301 	mov	w1, #0x118                 	// #280
    17e0:	17ffffe4 	b	1770 <TEE_BigIntShiftRight+0x4c>
get_mpi():
/home/zrz0517/study/TEE/RT-TEE/optee_os/lib/libutee/tee_api_arith_mpi.c:99
    17e4:	910143f5 	add	x21, sp, #0x50
    17e8:	aa1503e0 	mov	x0, x21
    17ec:	94000462 	bl	2974 <mbedtls_mpi_init_mempool>
TEE_BigIntShiftRight():
/home/zrz0517/study/TEE/RT-TEE/optee_os/lib/libutee/tee_api_arith_mpi.c:291
    17f0:	aa1403e1 	mov	x1, x20
    17f4:	aa1503e0 	mov	x0, x21
    17f8:	94000533 	bl	2cc4 <mbedtls_mpi_copy>
    17fc:	34000080 	cbz	w0, 180c <TEE_BigIntShiftRight+0xe8>
/home/zrz0517/study/TEE/RT-TEE/optee_os/lib/libutee/tee_api_arith_mpi.c:291 (discriminator 1)
    1800:	2a0003e2 	mov	w2, w0
    1804:	52802461 	mov	w1, #0x123                 	// #291
    1808:	17ffffda 	b	1770 <TEE_BigIntShiftRight+0x4c>
/home/zrz0517/study/TEE/RT-TEE/optee_os/lib/libutee/tee_api_arith_mpi.c:292
    180c:	aa1603e1 	mov	x1, x22
    1810:	aa1503e0 	mov	x0, x21
    1814:	940006e2 	bl	339c <mbedtls_mpi_shift_r>
    1818:	34000080 	cbz	w0, 1828 <TEE_BigIntShiftRight+0x104>
/home/zrz0517/study/TEE/RT-TEE/optee_os/lib/libutee/tee_api_arith_mpi.c:292 (discriminator 1)
    181c:	2a0003e2 	mov	w2, w0
    1820:	52802481 	mov	w1, #0x124                 	// #292
    1824:	17ffffd3 	b	1770 <TEE_BigIntShiftRight+0x4c>
/home/zrz0517/study/TEE/RT-TEE/optee_os/lib/libutee/tee_api_arith_mpi.c:293
    1828:	aa1503e1 	mov	x1, x21
    182c:	aa1303e0 	mov	x0, x19
    1830:	94000525 	bl	2cc4 <mbedtls_mpi_copy>
    1834:	34000080 	cbz	w0, 1844 <TEE_BigIntShiftRight+0x120>
/home/zrz0517/study/TEE/RT-TEE/optee_os/lib/libutee/tee_api_arith_mpi.c:293 (discriminator 1)
    1838:	2a0003e2 	mov	w2, w0
    183c:	528024a1 	mov	w1, #0x125                 	// #293
    1840:	17ffffcc 	b	1770 <TEE_BigIntShiftRight+0x4c>
/home/zrz0517/study/TEE/RT-TEE/optee_os/lib/libutee/tee_api_arith_mpi.c:295
    1844:	aa1503e0 	mov	x0, x21
    1848:	97fffce2 	bl	bd0 <put_mpi>
/home/zrz0517/study/TEE/RT-TEE/optee_os/lib/libutee/tee_api_arith_mpi.c:298
    184c:	aa1403e0 	mov	x0, x20
    1850:	97fffce0 	bl	bd0 <put_mpi>
/home/zrz0517/study/TEE/RT-TEE/optee_os/lib/libutee/tee_api_arith_mpi.c:301
    1854:	aa1303e0 	mov	x0, x19
    1858:	97fffcde 	bl	bd0 <put_mpi>
/home/zrz0517/study/TEE/RT-TEE/optee_os/lib/libutee/tee_api_arith_mpi.c:302
    185c:	a94153f3 	ldp	x19, x20, [sp, #16]
    1860:	a9425bf5 	ldp	x21, x22, [sp, #32]
    1864:	a8c67bfd 	ldp	x29, x30, [sp], #96
    1868:	d65f03c0 	ret

000000000000186c <TEE_BigIntGetBit>:
TEE_BigIntGetBit():
/home/zrz0517/study/TEE/RT-TEE/optee_os/lib/libutee/tee_api_arith_mpi.c:305
    186c:	a9bd7bfd 	stp	x29, x30, [sp, #-48]!
    1870:	910003fd 	mov	x29, sp
    1874:	a90153f3 	stp	x19, x20, [sp, #16]
/home/zrz0517/study/TEE/RT-TEE/optee_os/lib/libutee/tee_api_arith_mpi.c:309
    1878:	910083f3 	add	x19, sp, #0x20
/home/zrz0517/study/TEE/RT-TEE/optee_os/lib/libutee/tee_api_arith_mpi.c:305
    187c:	2a0103f4 	mov	w20, w1
/home/zrz0517/study/TEE/RT-TEE/optee_os/lib/libutee/tee_api_arith_mpi.c:309
    1880:	aa0003e1 	mov	x1, x0
    1884:	aa1303e0 	mov	x0, x19
    1888:	97fffca8 	bl	b28 <get_const_mpi>
/home/zrz0517/study/TEE/RT-TEE/optee_os/lib/libutee/tee_api_arith_mpi.c:311
    188c:	2a1403e1 	mov	w1, w20
    1890:	aa1303e0 	mov	x0, x19
    1894:	940005d2 	bl	2fdc <mbedtls_mpi_get_bit>
    1898:	2a0003f4 	mov	w20, w0
/home/zrz0517/study/TEE/RT-TEE/optee_os/lib/libutee/tee_api_arith_mpi.c:313
    189c:	aa1303e0 	mov	x0, x19
    18a0:	97fffccc 	bl	bd0 <put_mpi>
/home/zrz0517/study/TEE/RT-TEE/optee_os/lib/libutee/tee_api_arith_mpi.c:311
    18a4:	7100029f 	cmp	w20, #0x0
/home/zrz0517/study/TEE/RT-TEE/optee_os/lib/libutee/tee_api_arith_mpi.c:316
    18a8:	1a9f07e0 	cset	w0, ne  // ne = any
    18ac:	a94153f3 	ldp	x19, x20, [sp, #16]
    18b0:	a8c37bfd 	ldp	x29, x30, [sp], #48
    18b4:	d65f03c0 	ret

00000000000018b8 <TEE_BigIntGetBitCount>:
TEE_BigIntGetBitCount():
/home/zrz0517/study/TEE/RT-TEE/optee_os/lib/libutee/tee_api_arith_mpi.c:319
    18b8:	a9bd7bfd 	stp	x29, x30, [sp, #-48]!
/home/zrz0517/study/TEE/RT-TEE/optee_os/lib/libutee/tee_api_arith_mpi.c:323
    18bc:	aa0003e1 	mov	x1, x0
/home/zrz0517/study/TEE/RT-TEE/optee_os/lib/libutee/tee_api_arith_mpi.c:319
    18c0:	910003fd 	mov	x29, sp
    18c4:	a90153f3 	stp	x19, x20, [sp, #16]
/home/zrz0517/study/TEE/RT-TEE/optee_os/lib/libutee/tee_api_arith_mpi.c:323
    18c8:	910083f3 	add	x19, sp, #0x20
    18cc:	aa1303e0 	mov	x0, x19
    18d0:	97fffc96 	bl	b28 <get_const_mpi>
/home/zrz0517/study/TEE/RT-TEE/optee_os/lib/libutee/tee_api_arith_mpi.c:325
    18d4:	aa1303e0 	mov	x0, x19
    18d8:	94000604 	bl	30e8 <mbedtls_mpi_bitlen>
    18dc:	aa0003f4 	mov	x20, x0
/home/zrz0517/study/TEE/RT-TEE/optee_os/lib/libutee/tee_api_arith_mpi.c:327
    18e0:	aa1303e0 	mov	x0, x19
    18e4:	97fffcbb 	bl	bd0 <put_mpi>
/home/zrz0517/study/TEE/RT-TEE/optee_os/lib/libutee/tee_api_arith_mpi.c:330
    18e8:	2a1403e0 	mov	w0, w20
    18ec:	a94153f3 	ldp	x19, x20, [sp, #16]
    18f0:	a8c37bfd 	ldp	x29, x30, [sp], #48
    18f4:	d65f03c0 	ret

00000000000018f8 <TEE_BigIntAdd>:
TEE_BigIntAdd():
/home/zrz0517/study/TEE/RT-TEE/optee_os/lib/libutee/tee_api_arith_mpi.c:413
    18f8:	b0000043 	adrp	x3, a000 <__func__.4888+0x13>
    18fc:	f946d063 	ldr	x3, [x3, #3488]
    1900:	17fffcc5 	b	c14 <bigint_binary>

0000000000001904 <TEE_BigIntSub>:
TEE_BigIntSub():
/home/zrz0517/study/TEE/RT-TEE/optee_os/lib/libutee/tee_api_arith_mpi.c:419
    1904:	b0000043 	adrp	x3, a000 <__func__.4888+0x13>
    1908:	f946d863 	ldr	x3, [x3, #3504]
    190c:	17fffcc2 	b	c14 <bigint_binary>

0000000000001910 <TEE_BigIntNeg>:
TEE_BigIntNeg():
/home/zrz0517/study/TEE/RT-TEE/optee_os/lib/libutee/tee_api_arith_mpi.c:423
    1910:	a9bb7bfd 	stp	x29, x30, [sp, #-80]!
    1914:	910003fd 	mov	x29, sp
    1918:	a90153f3 	stp	x19, x20, [sp, #16]
/home/zrz0517/study/TEE/RT-TEE/optee_os/lib/libutee/tee_api_arith_mpi.c:426
    191c:	9100c3f3 	add	x19, sp, #0x30
/home/zrz0517/study/TEE/RT-TEE/optee_os/lib/libutee/tee_api_arith_mpi.c:423
    1920:	aa0003f4 	mov	x20, x0
    1924:	f90013f5 	str	x21, [sp, #32]
    1928:	aa0103f5 	mov	x21, x1
/home/zrz0517/study/TEE/RT-TEE/optee_os/lib/libutee/tee_api_arith_mpi.c:426
    192c:	aa0003e1 	mov	x1, x0
    1930:	aa1303e0 	mov	x0, x19
    1934:	97fffcb2 	bl	bfc <get_mpi>
/home/zrz0517/study/TEE/RT-TEE/optee_os/lib/libutee/tee_api_arith_mpi.c:428
    1938:	eb15029f 	cmp	x20, x21
    193c:	54000220 	b.eq	1980 <TEE_BigIntNeg+0x70>  // b.none
/home/zrz0517/study/TEE/RT-TEE/optee_os/lib/libutee/tee_api_arith_mpi.c:431
    1940:	910103f4 	add	x20, sp, #0x40
    1944:	aa1503e1 	mov	x1, x21
    1948:	aa1403e0 	mov	x0, x20
    194c:	97fffc77 	bl	b28 <get_const_mpi>
/home/zrz0517/study/TEE/RT-TEE/optee_os/lib/libutee/tee_api_arith_mpi.c:433
    1950:	aa1403e1 	mov	x1, x20
    1954:	aa1303e0 	mov	x0, x19
    1958:	940004db 	bl	2cc4 <mbedtls_mpi_copy>
    195c:	340000e0 	cbz	w0, 1978 <TEE_BigIntNeg+0x68>
/home/zrz0517/study/TEE/RT-TEE/optee_os/lib/libutee/tee_api_arith_mpi.c:433 (discriminator 1)
    1960:	2a0003e2 	mov	w2, w0
    1964:	90000040 	adrp	x0, 9000 <__text_end+0xd6c>
    1968:	913c3400 	add	x0, x0, #0xf0d
    196c:	52803621 	mov	w1, #0x1b1                 	// #433
    1970:	91029400 	add	x0, x0, #0xa5
    1974:	97fffc61 	bl	af8 <mpi_panic>
/home/zrz0517/study/TEE/RT-TEE/optee_os/lib/libutee/tee_api_arith_mpi.c:435
    1978:	aa1403e0 	mov	x0, x20
    197c:	97fffc95 	bl	bd0 <put_mpi>
/home/zrz0517/study/TEE/RT-TEE/optee_os/lib/libutee/tee_api_arith_mpi.c:438
    1980:	3940c3e0 	ldrb	w0, [sp, #48]
    1984:	4b0003e0 	neg	w0, w0
    1988:	3900c3e0 	strb	w0, [sp, #48]
/home/zrz0517/study/TEE/RT-TEE/optee_os/lib/libutee/tee_api_arith_mpi.c:440
    198c:	aa1303e0 	mov	x0, x19
    1990:	97fffc90 	bl	bd0 <put_mpi>
/home/zrz0517/study/TEE/RT-TEE/optee_os/lib/libutee/tee_api_arith_mpi.c:441
    1994:	a94153f3 	ldp	x19, x20, [sp, #16]
    1998:	f94013f5 	ldr	x21, [sp, #32]
    199c:	a8c57bfd 	ldp	x29, x30, [sp], #80
    19a0:	d65f03c0 	ret

00000000000019a4 <TEE_BigIntMul>:
TEE_BigIntMul():
/home/zrz0517/study/TEE/RT-TEE/optee_os/lib/libutee/tee_api_arith_mpi.c:445
    19a4:	a9ba7bfd 	stp	x29, x30, [sp, #-96]!
    19a8:	910003fd 	mov	x29, sp
    19ac:	a90153f3 	stp	x19, x20, [sp, #16]
    19b0:	a9025bf5 	stp	x21, x22, [sp, #32]
/home/zrz0517/study/TEE/RT-TEE/optee_os/lib/libutee/tee_api_arith_mpi.c:452
    19b4:	b0000056 	adrp	x22, a000 <__func__.4888+0x13>
    19b8:	aa1603f5 	mov	x21, x22
/home/zrz0517/study/TEE/RT-TEE/optee_os/lib/libutee/tee_api_arith_mpi.c:445
    19bc:	a90363f7 	stp	x23, x24, [sp, #48]
    19c0:	aa0203f8 	mov	x24, x2
    19c4:	aa0103f7 	mov	x23, x1
    19c8:	f90023f9 	str	x25, [sp, #64]
    19cc:	aa0003f9 	mov	x25, x0
/home/zrz0517/study/TEE/RT-TEE/optee_os/lib/libutee/tee_api_arith_mpi.c:446
    19d0:	aa0103e0 	mov	x0, x1
    19d4:	97ffffb9 	bl	18b8 <TEE_BigIntGetBitCount>
    19d8:	2a0003f3 	mov	w19, w0
/home/zrz0517/study/TEE/RT-TEE/optee_os/lib/libutee/tee_api_arith_mpi.c:447
    19dc:	aa1803e0 	mov	x0, x24
    19e0:	97ffffb6 	bl	18b8 <TEE_BigIntGetBitCount>
    19e4:	2a0003e0 	mov	w0, w0
/home/zrz0517/study/TEE/RT-TEE/optee_os/lib/libutee/tee_api_arith_mpi.c:448
    19e8:	91007c00 	add	x0, x0, #0x1f
    19ec:	91007e73 	add	x19, x19, #0x1f
/home/zrz0517/study/TEE/RT-TEE/optee_os/lib/libutee/tee_api_arith_mpi.c:449
    19f0:	f9002bff 	str	xzr, [sp, #80]
/home/zrz0517/study/TEE/RT-TEE/optee_os/lib/libutee/tee_api_arith_mpi.c:448
    19f4:	d345fc00 	lsr	x0, x0, #5
/home/zrz0517/study/TEE/RT-TEE/optee_os/lib/libutee/tee_api_arith_mpi.c:449
    19f8:	b9005bff 	str	wzr, [sp, #88]
/home/zrz0517/study/TEE/RT-TEE/optee_os/lib/libutee/tee_api_arith_mpi.c:448
    19fc:	8b531413 	add	x19, x0, x19, lsr #5
/home/zrz0517/study/TEE/RT-TEE/optee_os/lib/libutee/tee_api_arith_mpi.c:452
    1a00:	f946eec0 	ldr	x0, [x22, #3544]
/home/zrz0517/study/TEE/RT-TEE/optee_os/lib/libutee/tee_api_arith_mpi.c:448
    1a04:	91001273 	add	x19, x19, #0x4
/home/zrz0517/study/TEE/RT-TEE/optee_os/lib/libutee/tee_api_arith_mpi.c:452
    1a08:	d37ef661 	lsl	x1, x19, #2
    1a0c:	f9400000 	ldr	x0, [x0]
    1a10:	940019b0 	bl	80d0 <mempool_alloc>
    1a14:	aa0003f4 	mov	x20, x0
/home/zrz0517/study/TEE/RT-TEE/optee_os/lib/libutee/tee_api_arith_mpi.c:453
    1a18:	b5000060 	cbnz	x0, 1a24 <TEE_BigIntMul+0x80>
/home/zrz0517/study/TEE/RT-TEE/optee_os/lib/libutee/tee_api_arith_mpi.c:454
    1a1c:	129ffe60 	mov	w0, #0xffff000c            	// #-65524
    1a20:	97fffc28 	bl	ac0 <TEE_Panic>
/home/zrz0517/study/TEE/RT-TEE/optee_os/lib/libutee/tee_api_arith_mpi.c:456
    1a24:	2a1303e1 	mov	w1, w19
    1a28:	aa1403e0 	mov	x0, x20
/home/zrz0517/study/TEE/RT-TEE/optee_os/lib/libutee/tee_api_arith_mpi.c:457
    1a2c:	910143f3 	add	x19, sp, #0x50
/home/zrz0517/study/TEE/RT-TEE/optee_os/lib/libutee/tee_api_arith_mpi.c:456
    1a30:	97fffe1f 	bl	12ac <TEE_BigIntInit>
/home/zrz0517/study/TEE/RT-TEE/optee_os/lib/libutee/tee_api_arith_mpi.c:457
    1a34:	aa1303e0 	mov	x0, x19
    1a38:	52800061 	mov	w1, #0x3                   	// #3
    1a3c:	97fffe1c 	bl	12ac <TEE_BigIntInit>
/home/zrz0517/study/TEE/RT-TEE/optee_os/lib/libutee/tee_api_arith_mpi.c:459
    1a40:	f946cea3 	ldr	x3, [x21, #3480]
    1a44:	aa1803e2 	mov	x2, x24
    1a48:	aa1703e1 	mov	x1, x23
    1a4c:	aa1403e0 	mov	x0, x20
    1a50:	97fffc71 	bl	c14 <bigint_binary>
/home/zrz0517/study/TEE/RT-TEE/optee_os/lib/libutee/tee_api_arith_mpi.c:461
    1a54:	aa1303e2 	mov	x2, x19
    1a58:	aa1403e1 	mov	x1, x20
    1a5c:	aa1903e0 	mov	x0, x25
    1a60:	97ffffa6 	bl	18f8 <TEE_BigIntAdd>
/home/zrz0517/study/TEE/RT-TEE/optee_os/lib/libutee/tee_api_arith_mpi.c:463
    1a64:	f946eeb5 	ldr	x21, [x21, #3544]
    1a68:	aa1403e1 	mov	x1, x20
    1a6c:	f94002a0 	ldr	x0, [x21]
    1a70:	940019d7 	bl	81cc <mempool_free>
/home/zrz0517/study/TEE/RT-TEE/optee_os/lib/libutee/tee_api_arith_mpi.c:464
    1a74:	a94153f3 	ldp	x19, x20, [sp, #16]
    1a78:	a9425bf5 	ldp	x21, x22, [sp, #32]
    1a7c:	a94363f7 	ldp	x23, x24, [sp, #48]
    1a80:	f94023f9 	ldr	x25, [sp, #64]
    1a84:	a8c67bfd 	ldp	x29, x30, [sp], #96
    1a88:	d65f03c0 	ret

0000000000001a8c <TEE_BigIntSquare>:
TEE_BigIntSquare():
/home/zrz0517/study/TEE/RT-TEE/optee_os/lib/libutee/tee_api_arith_mpi.c:468
    1a8c:	aa0103e2 	mov	x2, x1
    1a90:	17ffffc5 	b	19a4 <TEE_BigIntMul>

0000000000001a94 <TEE_BigIntDiv>:
TEE_BigIntDiv():
/home/zrz0517/study/TEE/RT-TEE/optee_os/lib/libutee/tee_api_arith_mpi.c:473
    1a94:	a9b77bfd 	stp	x29, x30, [sp, #-144]!
    1a98:	910003fd 	mov	x29, sp
    1a9c:	a9025bf5 	stp	x21, x22, [sp, #32]
/home/zrz0517/study/TEE/RT-TEE/optee_os/lib/libutee/tee_api_arith_mpi.c:481
    1aa0:	910143f6 	add	x22, sp, #0x50
/home/zrz0517/study/TEE/RT-TEE/optee_os/lib/libutee/tee_api_arith_mpi.c:482
    1aa4:	910183f5 	add	x21, sp, #0x60
/home/zrz0517/study/TEE/RT-TEE/optee_os/lib/libutee/tee_api_arith_mpi.c:473
    1aa8:	a90153f3 	stp	x19, x20, [sp, #16]
    1aac:	aa0303f3 	mov	x19, x3
    1ab0:	a90363f7 	stp	x23, x24, [sp, #48]
    1ab4:	aa0203f7 	mov	x23, x2
    1ab8:	aa0003f8 	mov	x24, x0
    1abc:	a9046bf9 	stp	x25, x26, [sp, #64]
    1ac0:	aa0103fa 	mov	x26, x1
/home/zrz0517/study/TEE/RT-TEE/optee_os/lib/libutee/tee_api_arith_mpi.c:481
    1ac4:	aa0003e1 	mov	x1, x0
    1ac8:	aa1603e0 	mov	x0, x22
    1acc:	97fffc4c 	bl	bfc <get_mpi>
/home/zrz0517/study/TEE/RT-TEE/optee_os/lib/libutee/tee_api_arith_mpi.c:482
    1ad0:	aa1a03e1 	mov	x1, x26
    1ad4:	aa1503e0 	mov	x0, x21
    1ad8:	97fffc49 	bl	bfc <get_mpi>
/home/zrz0517/study/TEE/RT-TEE/optee_os/lib/libutee/tee_api_arith_mpi.c:484
    1adc:	9101c3f9 	add	x25, sp, #0x70
    1ae0:	eb17031f 	cmp	x24, x23
    1ae4:	540003c0 	b.eq	1b5c <TEE_BigIntDiv+0xc8>  // b.none
/home/zrz0517/study/TEE/RT-TEE/optee_os/lib/libutee/tee_api_arith_mpi.c:486
    1ae8:	eb17035f 	cmp	x26, x23
    1aec:	540003c0 	b.eq	1b64 <TEE_BigIntDiv+0xd0>  // b.none
/home/zrz0517/study/TEE/RT-TEE/optee_os/lib/libutee/tee_api_arith_mpi.c:478
    1af0:	aa1903f4 	mov	x20, x25
/home/zrz0517/study/TEE/RT-TEE/optee_os/lib/libutee/tee_api_arith_mpi.c:489
    1af4:	aa1703e1 	mov	x1, x23
    1af8:	aa1903e0 	mov	x0, x25
    1afc:	97fffc0b 	bl	b28 <get_const_mpi>
/home/zrz0517/study/TEE/RT-TEE/optee_os/lib/libutee/tee_api_arith_mpi.c:491
    1b00:	eb13031f 	cmp	x24, x19
    1b04:	910203f8 	add	x24, sp, #0x80
    1b08:	54000320 	b.eq	1b6c <TEE_BigIntDiv+0xd8>  // b.none
/home/zrz0517/study/TEE/RT-TEE/optee_os/lib/libutee/tee_api_arith_mpi.c:493
    1b0c:	eb13035f 	cmp	x26, x19
    1b10:	54000320 	b.eq	1b74 <TEE_BigIntDiv+0xe0>  // b.none
/home/zrz0517/study/TEE/RT-TEE/optee_os/lib/libutee/tee_api_arith_mpi.c:495
    1b14:	eb1302ff 	cmp	x23, x19
    1b18:	54000320 	b.eq	1b7c <TEE_BigIntDiv+0xe8>  // b.none
/home/zrz0517/study/TEE/RT-TEE/optee_os/lib/libutee/tee_api_arith_mpi.c:498
    1b1c:	aa1303e1 	mov	x1, x19
/home/zrz0517/study/TEE/RT-TEE/optee_os/lib/libutee/tee_api_arith_mpi.c:479
    1b20:	aa1803f3 	mov	x19, x24
/home/zrz0517/study/TEE/RT-TEE/optee_os/lib/libutee/tee_api_arith_mpi.c:498
    1b24:	aa1803e0 	mov	x0, x24
    1b28:	97fffc00 	bl	b28 <get_const_mpi>
/home/zrz0517/study/TEE/RT-TEE/optee_os/lib/libutee/tee_api_arith_mpi.c:500
    1b2c:	aa1303e3 	mov	x3, x19
    1b30:	aa1403e2 	mov	x2, x20
    1b34:	aa1503e1 	mov	x1, x21
    1b38:	aa1603e0 	mov	x0, x22
    1b3c:	9400086f 	bl	3cf8 <mbedtls_mpi_div_mpi>
    1b40:	34000220 	cbz	w0, 1b84 <TEE_BigIntDiv+0xf0>
/home/zrz0517/study/TEE/RT-TEE/optee_os/lib/libutee/tee_api_arith_mpi.c:500 (discriminator 1)
    1b44:	2a0003e2 	mov	w2, w0
    1b48:	90000040 	adrp	x0, 9000 <__text_end+0xd6c>
    1b4c:	913c3400 	add	x0, x0, #0xf0d
    1b50:	52803e81 	mov	w1, #0x1f4                 	// #500
    1b54:	9102cc00 	add	x0, x0, #0xb3
    1b58:	97fffbe8 	bl	af8 <mpi_panic>
/home/zrz0517/study/TEE/RT-TEE/optee_os/lib/libutee/tee_api_arith_mpi.c:485
    1b5c:	aa1603f4 	mov	x20, x22
    1b60:	17ffffe8 	b	1b00 <TEE_BigIntDiv+0x6c>
/home/zrz0517/study/TEE/RT-TEE/optee_os/lib/libutee/tee_api_arith_mpi.c:487
    1b64:	aa1503f4 	mov	x20, x21
    1b68:	17ffffe6 	b	1b00 <TEE_BigIntDiv+0x6c>
/home/zrz0517/study/TEE/RT-TEE/optee_os/lib/libutee/tee_api_arith_mpi.c:492
    1b6c:	aa1603f3 	mov	x19, x22
    1b70:	17ffffef 	b	1b2c <TEE_BigIntDiv+0x98>
/home/zrz0517/study/TEE/RT-TEE/optee_os/lib/libutee/tee_api_arith_mpi.c:494
    1b74:	aa1503f3 	mov	x19, x21
    1b78:	17ffffed 	b	1b2c <TEE_BigIntDiv+0x98>
/home/zrz0517/study/TEE/RT-TEE/optee_os/lib/libutee/tee_api_arith_mpi.c:496
    1b7c:	aa1403f3 	mov	x19, x20
    1b80:	17ffffeb 	b	1b2c <TEE_BigIntDiv+0x98>
/home/zrz0517/study/TEE/RT-TEE/optee_os/lib/libutee/tee_api_arith_mpi.c:502
    1b84:	aa1603e0 	mov	x0, x22
    1b88:	97fffc12 	bl	bd0 <put_mpi>
/home/zrz0517/study/TEE/RT-TEE/optee_os/lib/libutee/tee_api_arith_mpi.c:503
    1b8c:	aa1503e0 	mov	x0, x21
    1b90:	97fffc10 	bl	bd0 <put_mpi>
/home/zrz0517/study/TEE/RT-TEE/optee_os/lib/libutee/tee_api_arith_mpi.c:504
    1b94:	eb19029f 	cmp	x20, x25
    1b98:	54000061 	b.ne	1ba4 <TEE_BigIntDiv+0x110>  // b.any
/home/zrz0517/study/TEE/RT-TEE/optee_os/lib/libutee/tee_api_arith_mpi.c:505
    1b9c:	aa1403e0 	mov	x0, x20
    1ba0:	97fffc0c 	bl	bd0 <put_mpi>
/home/zrz0517/study/TEE/RT-TEE/optee_os/lib/libutee/tee_api_arith_mpi.c:506
    1ba4:	eb18027f 	cmp	x19, x24
    1ba8:	54000061 	b.ne	1bb4 <TEE_BigIntDiv+0x120>  // b.any
/home/zrz0517/study/TEE/RT-TEE/optee_os/lib/libutee/tee_api_arith_mpi.c:507
    1bac:	aa1303e0 	mov	x0, x19
    1bb0:	97fffc08 	bl	bd0 <put_mpi>
/home/zrz0517/study/TEE/RT-TEE/optee_os/lib/libutee/tee_api_arith_mpi.c:508
    1bb4:	a94153f3 	ldp	x19, x20, [sp, #16]
    1bb8:	a9425bf5 	ldp	x21, x22, [sp, #32]
    1bbc:	a94363f7 	ldp	x23, x24, [sp, #48]
    1bc0:	a9446bf9 	ldp	x25, x26, [sp, #64]
    1bc4:	a8c97bfd 	ldp	x29, x30, [sp], #144
    1bc8:	d65f03c0 	ret

0000000000001bcc <TEE_BigIntMod>:
TEE_BigIntMod():
/home/zrz0517/study/TEE/RT-TEE/optee_os/lib/libutee/tee_api_arith_mpi.c:511
    1bcc:	a9bd7bfd 	stp	x29, x30, [sp, #-48]!
    1bd0:	910003fd 	mov	x29, sp
    1bd4:	a90153f3 	stp	x19, x20, [sp, #16]
    1bd8:	aa0003f3 	mov	x19, x0
    1bdc:	aa0103f4 	mov	x20, x1
/home/zrz0517/study/TEE/RT-TEE/optee_os/lib/libutee/tee_api_arith_mpi.c:512
    1be0:	aa0203e0 	mov	x0, x2
    1be4:	52800041 	mov	w1, #0x2                   	// #2
    1be8:	f90017e2 	str	x2, [sp, #40]
    1bec:	97fffe60 	bl	156c <TEE_BigIntCmpS32>
    1bf0:	f94017e2 	ldr	x2, [sp, #40]
    1bf4:	36f80100 	tbz	w0, #31, 1c14 <TEE_BigIntMod+0x48>
/home/zrz0517/study/TEE/RT-TEE/optee_os/lib/libutee/tee_api_arith_mpi.c:513
    1bf8:	90000040 	adrp	x0, 9000 <__text_end+0xd6c>
    1bfc:	913c3400 	add	x0, x0, #0xf0d
    1c00:	b0000042 	adrp	x2, a000 <__func__.4888+0x13>
    1c04:	52804021 	mov	w1, #0x201                 	// #513
    1c08:	91031c42 	add	x2, x2, #0xc7
    1c0c:	91030400 	add	x0, x0, #0xc1
    1c10:	97fffbae 	bl	ac8 <api_panic>
/home/zrz0517/study/TEE/RT-TEE/optee_os/lib/libutee/tee_api_arith_mpi.c:515
    1c14:	b0000043 	adrp	x3, a000 <__func__.4888+0x13>
    1c18:	aa1403e1 	mov	x1, x20
    1c1c:	aa1303e0 	mov	x0, x19
    1c20:	f946e063 	ldr	x3, [x3, #3520]
/home/zrz0517/study/TEE/RT-TEE/optee_os/lib/libutee/tee_api_arith_mpi.c:516
    1c24:	a94153f3 	ldp	x19, x20, [sp, #16]
    1c28:	a8c37bfd 	ldp	x29, x30, [sp], #48
/home/zrz0517/study/TEE/RT-TEE/optee_os/lib/libutee/tee_api_arith_mpi.c:515
    1c2c:	17fffbfa 	b	c14 <bigint_binary>

0000000000001c30 <TEE_BigIntAddMod>:
TEE_BigIntAddMod():
/home/zrz0517/study/TEE/RT-TEE/optee_os/lib/libutee/tee_api_arith_mpi.c:521
    1c30:	b0000044 	adrp	x4, a000 <__func__.4888+0x13>
    1c34:	f946d084 	ldr	x4, [x4, #3488]
    1c38:	17fffe5f 	b	15b4 <bigint_binary_mod>

0000000000001c3c <TEE_BigIntSubMod>:
TEE_BigIntSubMod():
/home/zrz0517/study/TEE/RT-TEE/optee_os/lib/libutee/tee_api_arith_mpi.c:527
    1c3c:	b0000044 	adrp	x4, a000 <__func__.4888+0x13>
    1c40:	f946d884 	ldr	x4, [x4, #3504]
    1c44:	17fffe5c 	b	15b4 <bigint_binary_mod>

0000000000001c48 <TEE_BigIntMulMod>:
TEE_BigIntMulMod():
/home/zrz0517/study/TEE/RT-TEE/optee_os/lib/libutee/tee_api_arith_mpi.c:533
    1c48:	b0000044 	adrp	x4, a000 <__func__.4888+0x13>
    1c4c:	f946cc84 	ldr	x4, [x4, #3480]
    1c50:	17fffe59 	b	15b4 <bigint_binary_mod>

0000000000001c54 <TEE_BigIntSquareMod>:
TEE_BigIntSquareMod():
/home/zrz0517/study/TEE/RT-TEE/optee_os/lib/libutee/tee_api_arith_mpi.c:539
    1c54:	aa0203e3 	mov	x3, x2
    1c58:	aa0103e2 	mov	x2, x1
    1c5c:	17fffffb 	b	1c48 <TEE_BigIntMulMod>

0000000000001c60 <TEE_BigIntInvMod>:
TEE_BigIntInvMod():
/home/zrz0517/study/TEE/RT-TEE/optee_os/lib/libutee/tee_api_arith_mpi.c:544
    1c60:	a9b97bfd 	stp	x29, x30, [sp, #-112]!
    1c64:	910003fd 	mov	x29, sp
    1c68:	a90153f3 	stp	x19, x20, [sp, #16]
    1c6c:	aa0103f3 	mov	x19, x1
/home/zrz0517/study/TEE/RT-TEE/optee_os/lib/libutee/tee_api_arith_mpi.c:545
    1c70:	52800041 	mov	w1, #0x2                   	// #2
/home/zrz0517/study/TEE/RT-TEE/optee_os/lib/libutee/tee_api_arith_mpi.c:544
    1c74:	a9025bf5 	stp	x21, x22, [sp, #32]
    1c78:	aa0003f5 	mov	x21, x0
/home/zrz0517/study/TEE/RT-TEE/optee_os/lib/libutee/tee_api_arith_mpi.c:545
    1c7c:	aa0203e0 	mov	x0, x2
/home/zrz0517/study/TEE/RT-TEE/optee_os/lib/libutee/tee_api_arith_mpi.c:544
    1c80:	f9001bf7 	str	x23, [sp, #48]
    1c84:	aa0203f7 	mov	x23, x2
/home/zrz0517/study/TEE/RT-TEE/optee_os/lib/libutee/tee_api_arith_mpi.c:545
    1c88:	97fffe39 	bl	156c <TEE_BigIntCmpS32>
    1c8c:	36f80100 	tbz	w0, #31, 1cac <TEE_BigIntInvMod+0x4c>
/home/zrz0517/study/TEE/RT-TEE/optee_os/lib/libutee/tee_api_arith_mpi.c:546
    1c90:	90000040 	adrp	x0, 9000 <__text_end+0xd6c>
    1c94:	913c3400 	add	x0, x0, #0xf0d
    1c98:	b0000042 	adrp	x2, a000 <__func__.4888+0x13>
    1c9c:	52804441 	mov	w1, #0x222                 	// #546
    1ca0:	91037042 	add	x2, x2, #0xdc
    1ca4:	91033c00 	add	x0, x0, #0xcf
    1ca8:	97fffb88 	bl	ac8 <api_panic>
/home/zrz0517/study/TEE/RT-TEE/optee_os/lib/libutee/tee_api_arith_mpi.c:545 (discriminator 1)
    1cac:	52800001 	mov	w1, #0x0                   	// #0
    1cb0:	aa1303e0 	mov	x0, x19
    1cb4:	97fffe2e 	bl	156c <TEE_BigIntCmpS32>
    1cb8:	34fffec0 	cbz	w0, 1c90 <TEE_BigIntInvMod+0x30>
/home/zrz0517/study/TEE/RT-TEE/optee_os/lib/libutee/tee_api_arith_mpi.c:553
    1cbc:	910103f4 	add	x20, sp, #0x40
    1cc0:	aa1503e1 	mov	x1, x21
    1cc4:	aa1403e0 	mov	x0, x20
/home/zrz0517/study/TEE/RT-TEE/optee_os/lib/libutee/tee_api_arith_mpi.c:554
    1cc8:	910183f6 	add	x22, sp, #0x60
/home/zrz0517/study/TEE/RT-TEE/optee_os/lib/libutee/tee_api_arith_mpi.c:553
    1ccc:	97fffbcc 	bl	bfc <get_mpi>
/home/zrz0517/study/TEE/RT-TEE/optee_os/lib/libutee/tee_api_arith_mpi.c:554
    1cd0:	aa1703e1 	mov	x1, x23
    1cd4:	aa1603e0 	mov	x0, x22
    1cd8:	97fffb94 	bl	b28 <get_const_mpi>
/home/zrz0517/study/TEE/RT-TEE/optee_os/lib/libutee/tee_api_arith_mpi.c:556
    1cdc:	eb15027f 	cmp	x19, x21
    1ce0:	910143f5 	add	x21, sp, #0x50
    1ce4:	54000200 	b.eq	1d24 <TEE_BigIntInvMod+0xc4>  // b.none
/home/zrz0517/study/TEE/RT-TEE/optee_os/lib/libutee/tee_api_arith_mpi.c:559
    1ce8:	aa1303e1 	mov	x1, x19
/home/zrz0517/study/TEE/RT-TEE/optee_os/lib/libutee/tee_api_arith_mpi.c:551
    1cec:	aa1503f3 	mov	x19, x21
/home/zrz0517/study/TEE/RT-TEE/optee_os/lib/libutee/tee_api_arith_mpi.c:559
    1cf0:	aa1503e0 	mov	x0, x21
    1cf4:	97fffb8d 	bl	b28 <get_const_mpi>
/home/zrz0517/study/TEE/RT-TEE/optee_os/lib/libutee/tee_api_arith_mpi.c:561
    1cf8:	aa1603e2 	mov	x2, x22
    1cfc:	aa1303e1 	mov	x1, x19
    1d00:	aa1403e0 	mov	x0, x20
    1d04:	94000dba 	bl	53ec <mbedtls_mpi_inv_mod>
    1d08:	34000120 	cbz	w0, 1d2c <TEE_BigIntInvMod+0xcc>
/home/zrz0517/study/TEE/RT-TEE/optee_os/lib/libutee/tee_api_arith_mpi.c:561 (discriminator 1)
    1d0c:	2a0003e2 	mov	w2, w0
    1d10:	90000040 	adrp	x0, 9000 <__text_end+0xd6c>
    1d14:	913c3400 	add	x0, x0, #0xf0d
    1d18:	52804621 	mov	w1, #0x231                 	// #561
    1d1c:	91033c00 	add	x0, x0, #0xcf
    1d20:	97fffb76 	bl	af8 <mpi_panic>
/home/zrz0517/study/TEE/RT-TEE/optee_os/lib/libutee/tee_api_arith_mpi.c:557
    1d24:	aa1403f3 	mov	x19, x20
    1d28:	17fffff4 	b	1cf8 <TEE_BigIntInvMod+0x98>
/home/zrz0517/study/TEE/RT-TEE/optee_os/lib/libutee/tee_api_arith_mpi.c:563
    1d2c:	aa1403e0 	mov	x0, x20
    1d30:	97fffba8 	bl	bd0 <put_mpi>
/home/zrz0517/study/TEE/RT-TEE/optee_os/lib/libutee/tee_api_arith_mpi.c:564
    1d34:	aa1603e0 	mov	x0, x22
    1d38:	97fffba6 	bl	bd0 <put_mpi>
/home/zrz0517/study/TEE/RT-TEE/optee_os/lib/libutee/tee_api_arith_mpi.c:565
    1d3c:	eb15027f 	cmp	x19, x21
    1d40:	54000061 	b.ne	1d4c <TEE_BigIntInvMod+0xec>  // b.any
/home/zrz0517/study/TEE/RT-TEE/optee_os/lib/libutee/tee_api_arith_mpi.c:566
    1d44:	aa1303e0 	mov	x0, x19
    1d48:	97fffba2 	bl	bd0 <put_mpi>
/home/zrz0517/study/TEE/RT-TEE/optee_os/lib/libutee/tee_api_arith_mpi.c:567
    1d4c:	a94153f3 	ldp	x19, x20, [sp, #16]
    1d50:	a9425bf5 	ldp	x21, x22, [sp, #32]
    1d54:	f9401bf7 	ldr	x23, [sp, #48]
    1d58:	a8c77bfd 	ldp	x29, x30, [sp], #112
    1d5c:	d65f03c0 	ret

0000000000001d60 <TEE_BigIntRelativePrime>:
TEE_BigIntRelativePrime():
/home/zrz0517/study/TEE/RT-TEE/optee_os/lib/libutee/tee_api_arith_mpi.c:570
    1d60:	a9b97bfd 	stp	x29, x30, [sp, #-112]!
    1d64:	910003fd 	mov	x29, sp
    1d68:	a90153f3 	stp	x19, x20, [sp, #16]
/home/zrz0517/study/TEE/RT-TEE/optee_os/lib/libutee/tee_api_arith_mpi.c:577
    1d6c:	910103f4 	add	x20, sp, #0x40
/home/zrz0517/study/TEE/RT-TEE/optee_os/lib/libutee/tee_api_arith_mpi.c:570
    1d70:	aa0003f3 	mov	x19, x0
    1d74:	a9025bf5 	stp	x21, x22, [sp, #32]
    1d78:	aa0103f5 	mov	x21, x1
/home/zrz0517/study/TEE/RT-TEE/optee_os/lib/libutee/tee_api_arith_mpi.c:577
    1d7c:	aa0003e1 	mov	x1, x0
    1d80:	aa1403e0 	mov	x0, x20
/home/zrz0517/study/TEE/RT-TEE/optee_os/lib/libutee/tee_api_arith_mpi.c:570
    1d84:	f9001bf7 	str	x23, [sp, #48]
/home/zrz0517/study/TEE/RT-TEE/optee_os/lib/libutee/tee_api_arith_mpi.c:577
    1d88:	97fffb68 	bl	b28 <get_const_mpi>
/home/zrz0517/study/TEE/RT-TEE/optee_os/lib/libutee/tee_api_arith_mpi.c:579
    1d8c:	eb15027f 	cmp	x19, x21
    1d90:	910143f3 	add	x19, sp, #0x50
    1d94:	54000260 	b.eq	1de0 <TEE_BigIntRelativePrime+0x80>  // b.none
/home/zrz0517/study/TEE/RT-TEE/optee_os/lib/libutee/tee_api_arith_mpi.c:574
    1d98:	aa1303f6 	mov	x22, x19
/home/zrz0517/study/TEE/RT-TEE/optee_os/lib/libutee/tee_api_arith_mpi.c:582
    1d9c:	aa1503e1 	mov	x1, x21
    1da0:	aa1303e0 	mov	x0, x19
    1da4:	97fffb61 	bl	b28 <get_const_mpi>
get_mpi():
/home/zrz0517/study/TEE/RT-TEE/optee_os/lib/libutee/tee_api_arith_mpi.c:99
    1da8:	910183f5 	add	x21, sp, #0x60
    1dac:	aa1503e0 	mov	x0, x21
    1db0:	940002f1 	bl	2974 <mbedtls_mpi_init_mempool>
TEE_BigIntRelativePrime():
/home/zrz0517/study/TEE/RT-TEE/optee_os/lib/libutee/tee_api_arith_mpi.c:586
    1db4:	aa1303e2 	mov	x2, x19
    1db8:	aa1403e1 	mov	x1, x20
    1dbc:	aa1503e0 	mov	x0, x21
    1dc0:	94000c30 	bl	4e80 <mbedtls_mpi_gcd>
    1dc4:	34000120 	cbz	w0, 1de8 <TEE_BigIntRelativePrime+0x88>
/home/zrz0517/study/TEE/RT-TEE/optee_os/lib/libutee/tee_api_arith_mpi.c:586 (discriminator 1)
    1dc8:	2a0003e2 	mov	w2, w0
    1dcc:	90000040 	adrp	x0, 9000 <__text_end+0xd6c>
    1dd0:	913c3400 	add	x0, x0, #0xf0d
    1dd4:	52804941 	mov	w1, #0x24a                 	// #586
    1dd8:	91038000 	add	x0, x0, #0xe0
    1ddc:	97fffb47 	bl	af8 <mpi_panic>
/home/zrz0517/study/TEE/RT-TEE/optee_os/lib/libutee/tee_api_arith_mpi.c:580
    1de0:	aa1403f6 	mov	x22, x20
    1de4:	17fffff1 	b	1da8 <TEE_BigIntRelativePrime+0x48>
/home/zrz0517/study/TEE/RT-TEE/optee_os/lib/libutee/tee_api_arith_mpi.c:588
    1de8:	52800021 	mov	w1, #0x1                   	// #1
    1dec:	aa1503e0 	mov	x0, x21
    1df0:	940005f9 	bl	35d4 <mbedtls_mpi_cmp_int>
    1df4:	7100001f 	cmp	w0, #0x0
    1df8:	1a9f17f7 	cset	w23, eq  // eq = none
/home/zrz0517/study/TEE/RT-TEE/optee_os/lib/libutee/tee_api_arith_mpi.c:590
    1dfc:	aa1503e0 	mov	x0, x21
    1e00:	97fffb74 	bl	bd0 <put_mpi>
/home/zrz0517/study/TEE/RT-TEE/optee_os/lib/libutee/tee_api_arith_mpi.c:591
    1e04:	aa1403e0 	mov	x0, x20
    1e08:	97fffb72 	bl	bd0 <put_mpi>
/home/zrz0517/study/TEE/RT-TEE/optee_os/lib/libutee/tee_api_arith_mpi.c:592
    1e0c:	eb1302df 	cmp	x22, x19
    1e10:	54000061 	b.ne	1e1c <TEE_BigIntRelativePrime+0xbc>  // b.any
/home/zrz0517/study/TEE/RT-TEE/optee_os/lib/libutee/tee_api_arith_mpi.c:593
    1e14:	aa1603e0 	mov	x0, x22
    1e18:	97fffb6e 	bl	bd0 <put_mpi>
/home/zrz0517/study/TEE/RT-TEE/optee_os/lib/libutee/tee_api_arith_mpi.c:596
    1e1c:	2a1703e0 	mov	w0, w23
    1e20:	a94153f3 	ldp	x19, x20, [sp, #16]
    1e24:	a9425bf5 	ldp	x21, x22, [sp, #32]
    1e28:	f9401bf7 	ldr	x23, [sp, #48]
    1e2c:	a8c77bfd 	ldp	x29, x30, [sp], #112
    1e30:	d65f03c0 	ret

0000000000001e34 <TEE_BigIntComputeExtendedGcd>:
TEE_BigIntComputeExtendedGcd():
/home/zrz0517/study/TEE/RT-TEE/optee_os/lib/libutee/tee_api_arith_mpi.c:707
    1e34:	a9b57bfd 	stp	x29, x30, [sp, #-176]!
    1e38:	910003fd 	mov	x29, sp
    1e3c:	a9025bf5 	stp	x21, x22, [sp, #32]
/home/zrz0517/study/TEE/RT-TEE/optee_os/lib/libutee/tee_api_arith_mpi.c:713
    1e40:	910183f5 	add	x21, sp, #0x60
/home/zrz0517/study/TEE/RT-TEE/optee_os/lib/libutee/tee_api_arith_mpi.c:707
    1e44:	aa0103f6 	mov	x22, x1
/home/zrz0517/study/TEE/RT-TEE/optee_os/lib/libutee/tee_api_arith_mpi.c:713
    1e48:	aa0003e1 	mov	x1, x0
/home/zrz0517/study/TEE/RT-TEE/optee_os/lib/libutee/tee_api_arith_mpi.c:707
    1e4c:	a90153f3 	stp	x19, x20, [sp, #16]
    1e50:	aa0403f3 	mov	x19, x4
/home/zrz0517/study/TEE/RT-TEE/optee_os/lib/libutee/tee_api_arith_mpi.c:714
    1e54:	9101c3f4 	add	x20, sp, #0x70
/home/zrz0517/study/TEE/RT-TEE/optee_os/lib/libutee/tee_api_arith_mpi.c:707
    1e58:	a90363f7 	stp	x23, x24, [sp, #48]
    1e5c:	aa0303f8 	mov	x24, x3
    1e60:	aa0003f7 	mov	x23, x0
/home/zrz0517/study/TEE/RT-TEE/optee_os/lib/libutee/tee_api_arith_mpi.c:713
    1e64:	aa1503e0 	mov	x0, x21
/home/zrz0517/study/TEE/RT-TEE/optee_os/lib/libutee/tee_api_arith_mpi.c:707
    1e68:	a9046bf9 	stp	x25, x26, [sp, #64]
    1e6c:	f9002bfb 	str	x27, [sp, #80]
    1e70:	aa0203fb 	mov	x27, x2
/home/zrz0517/study/TEE/RT-TEE/optee_os/lib/libutee/tee_api_arith_mpi.c:713
    1e74:	97fffb62 	bl	bfc <get_mpi>
/home/zrz0517/study/TEE/RT-TEE/optee_os/lib/libutee/tee_api_arith_mpi.c:714
    1e78:	aa1803e1 	mov	x1, x24
    1e7c:	aa1403e0 	mov	x0, x20
    1e80:	97fffb2a 	bl	b28 <get_const_mpi>
/home/zrz0517/study/TEE/RT-TEE/optee_os/lib/libutee/tee_api_arith_mpi.c:716
    1e84:	eb13031f 	cmp	x24, x19
    1e88:	910203f8 	add	x24, sp, #0x80
    1e8c:	54000260 	b.eq	1ed8 <TEE_BigIntComputeExtendedGcd+0xa4>  // b.none
/home/zrz0517/study/TEE/RT-TEE/optee_os/lib/libutee/tee_api_arith_mpi.c:719
    1e90:	aa1303e1 	mov	x1, x19
/home/zrz0517/study/TEE/RT-TEE/optee_os/lib/libutee/tee_api_arith_mpi.c:711
    1e94:	aa1803f3 	mov	x19, x24
/home/zrz0517/study/TEE/RT-TEE/optee_os/lib/libutee/tee_api_arith_mpi.c:719
    1e98:	aa1803e0 	mov	x0, x24
    1e9c:	97fffb23 	bl	b28 <get_const_mpi>
/home/zrz0517/study/TEE/RT-TEE/optee_os/lib/libutee/tee_api_arith_mpi.c:721
    1ea0:	aa1b02c0 	orr	x0, x22, x27
    1ea4:	b50001e0 	cbnz	x0, 1ee0 <TEE_BigIntComputeExtendedGcd+0xac>
/home/zrz0517/study/TEE/RT-TEE/optee_os/lib/libutee/tee_api_arith_mpi.c:722
    1ea8:	b40008d7 	cbz	x23, 1fc0 <TEE_BigIntComputeExtendedGcd+0x18c>
/home/zrz0517/study/TEE/RT-TEE/optee_os/lib/libutee/tee_api_arith_mpi.c:723
    1eac:	aa1303e2 	mov	x2, x19
    1eb0:	aa1403e1 	mov	x1, x20
    1eb4:	aa1503e0 	mov	x0, x21
    1eb8:	94000bf2 	bl	4e80 <mbedtls_mpi_gcd>
    1ebc:	34000820 	cbz	w0, 1fc0 <TEE_BigIntComputeExtendedGcd+0x18c>
/home/zrz0517/study/TEE/RT-TEE/optee_os/lib/libutee/tee_api_arith_mpi.c:723 (discriminator 1)
    1ec0:	2a0003e2 	mov	w2, w0
    1ec4:	52805a81 	mov	w1, #0x2d4                 	// #724
/home/zrz0517/study/TEE/RT-TEE/optee_os/lib/libutee/tee_api_arith_mpi.c:740 (discriminator 1)
    1ec8:	90000040 	adrp	x0, 9000 <__text_end+0xd6c>
    1ecc:	913c3400 	add	x0, x0, #0xf0d
    1ed0:	9103e000 	add	x0, x0, #0xf8
    1ed4:	97fffb09 	bl	af8 <mpi_panic>
/home/zrz0517/study/TEE/RT-TEE/optee_os/lib/libutee/tee_api_arith_mpi.c:717
    1ed8:	aa1403f3 	mov	x19, x20
    1edc:	17fffff1 	b	1ea0 <TEE_BigIntComputeExtendedGcd+0x6c>
/home/zrz0517/study/TEE/RT-TEE/optee_os/lib/libutee/tee_api_arith_mpi.c:728
    1ee0:	39c1c3fa 	ldrsb	w26, [sp, #112]
/home/zrz0517/study/TEE/RT-TEE/optee_os/lib/libutee/tee_api_arith_mpi.c:732
    1ee4:	52800020 	mov	w0, #0x1                   	// #1
/home/zrz0517/study/TEE/RT-TEE/optee_os/lib/libutee/tee_api_arith_mpi.c:729
    1ee8:	39c00279 	ldrsb	w25, [x19]
/home/zrz0517/study/TEE/RT-TEE/optee_os/lib/libutee/tee_api_arith_mpi.c:735
    1eec:	910243f7 	add	x23, sp, #0x90
/home/zrz0517/study/TEE/RT-TEE/optee_os/lib/libutee/tee_api_arith_mpi.c:732
    1ef0:	3901c3e0 	strb	w0, [sp, #112]
/home/zrz0517/study/TEE/RT-TEE/optee_os/lib/libutee/tee_api_arith_mpi.c:735
    1ef4:	aa1603e1 	mov	x1, x22
/home/zrz0517/study/TEE/RT-TEE/optee_os/lib/libutee/tee_api_arith_mpi.c:733
    1ef8:	39000260 	strb	w0, [x19]
/home/zrz0517/study/TEE/RT-TEE/optee_os/lib/libutee/tee_api_arith_mpi.c:736
    1efc:	910283f6 	add	x22, sp, #0xa0
/home/zrz0517/study/TEE/RT-TEE/optee_os/lib/libutee/tee_api_arith_mpi.c:735
    1f00:	aa1703e0 	mov	x0, x23
    1f04:	97fffb3e 	bl	bfc <get_mpi>
/home/zrz0517/study/TEE/RT-TEE/optee_os/lib/libutee/tee_api_arith_mpi.c:736
    1f08:	aa1b03e1 	mov	x1, x27
    1f0c:	aa1603e0 	mov	x0, x22
    1f10:	97fffb3b 	bl	bfc <get_mpi>
/home/zrz0517/study/TEE/RT-TEE/optee_os/lib/libutee/tee_api_arith_mpi.c:738
    1f14:	aa1303e1 	mov	x1, x19
    1f18:	aa1403e0 	mov	x0, x20
    1f1c:	94000552 	bl	3464 <mbedtls_mpi_cmp_abs>
/home/zrz0517/study/TEE/RT-TEE/optee_os/lib/libutee/tee_api_arith_mpi.c:739
    1f20:	7100001f 	cmp	w0, #0x0
    1f24:	540002c1 	b.ne	1f7c <TEE_BigIntComputeExtendedGcd+0x148>  // b.any
/home/zrz0517/study/TEE/RT-TEE/optee_os/lib/libutee/tee_api_arith_mpi.c:740
    1f28:	aa1403e1 	mov	x1, x20
    1f2c:	aa1503e0 	mov	x0, x21
    1f30:	94000365 	bl	2cc4 <mbedtls_mpi_copy>
    1f34:	34000080 	cbz	w0, 1f44 <TEE_BigIntComputeExtendedGcd+0x110>
/home/zrz0517/study/TEE/RT-TEE/optee_os/lib/libutee/tee_api_arith_mpi.c:740 (discriminator 1)
    1f38:	2a0003e2 	mov	w2, w0
    1f3c:	52805c81 	mov	w1, #0x2e4                 	// #740
    1f40:	17ffffe2 	b	1ec8 <TEE_BigIntComputeExtendedGcd+0x94>
/home/zrz0517/study/TEE/RT-TEE/optee_os/lib/libutee/tee_api_arith_mpi.c:741
    1f44:	52800021 	mov	w1, #0x1                   	// #1
    1f48:	aa1703e0 	mov	x0, x23
    1f4c:	94000409 	bl	2f70 <mbedtls_mpi_lset>
    1f50:	34000080 	cbz	w0, 1f60 <TEE_BigIntComputeExtendedGcd+0x12c>
/home/zrz0517/study/TEE/RT-TEE/optee_os/lib/libutee/tee_api_arith_mpi.c:741 (discriminator 1)
    1f54:	2a0003e2 	mov	w2, w0
    1f58:	52805ca1 	mov	w1, #0x2e5                 	// #741
    1f5c:	17ffffdb 	b	1ec8 <TEE_BigIntComputeExtendedGcd+0x94>
/home/zrz0517/study/TEE/RT-TEE/optee_os/lib/libutee/tee_api_arith_mpi.c:742
    1f60:	52800001 	mov	w1, #0x0                   	// #0
    1f64:	aa1603e0 	mov	x0, x22
    1f68:	94000402 	bl	2f70 <mbedtls_mpi_lset>
    1f6c:	34000160 	cbz	w0, 1f98 <TEE_BigIntComputeExtendedGcd+0x164>
/home/zrz0517/study/TEE/RT-TEE/optee_os/lib/libutee/tee_api_arith_mpi.c:742 (discriminator 1)
    1f70:	2a0003e2 	mov	w2, w0
    1f74:	52805cc1 	mov	w1, #0x2e6                 	// #742
    1f78:	17ffffd4 	b	1ec8 <TEE_BigIntComputeExtendedGcd+0x94>
/home/zrz0517/study/TEE/RT-TEE/optee_os/lib/libutee/tee_api_arith_mpi.c:743
    1f7c:	5400040d 	b.le	1ffc <TEE_BigIntComputeExtendedGcd+0x1c8>
/home/zrz0517/study/TEE/RT-TEE/optee_os/lib/libutee/tee_api_arith_mpi.c:744
    1f80:	aa1303e4 	mov	x4, x19
    1f84:	aa1403e3 	mov	x3, x20
    1f88:	aa1603e2 	mov	x2, x22
    1f8c:	aa1703e1 	mov	x1, x23
/home/zrz0517/study/TEE/RT-TEE/optee_os/lib/libutee/tee_api_arith_mpi.c:746
    1f90:	aa1503e0 	mov	x0, x21
    1f94:	97fffb5f 	bl	d10 <mpi_egcd>
/home/zrz0517/study/TEE/RT-TEE/optee_os/lib/libutee/tee_api_arith_mpi.c:749 (discriminator 1)
    1f98:	394243e0 	ldrb	w0, [sp, #144]
    1f9c:	1b007f5a 	mul	w26, w26, w0
/home/zrz0517/study/TEE/RT-TEE/optee_os/lib/libutee/tee_api_arith_mpi.c:750 (discriminator 1)
    1fa0:	394283e0 	ldrb	w0, [sp, #160]
/home/zrz0517/study/TEE/RT-TEE/optee_os/lib/libutee/tee_api_arith_mpi.c:749 (discriminator 1)
    1fa4:	390243fa 	strb	w26, [sp, #144]
/home/zrz0517/study/TEE/RT-TEE/optee_os/lib/libutee/tee_api_arith_mpi.c:750 (discriminator 1)
    1fa8:	1b007f39 	mul	w25, w25, w0
/home/zrz0517/study/TEE/RT-TEE/optee_os/lib/libutee/tee_api_arith_mpi.c:752 (discriminator 1)
    1fac:	aa1703e0 	mov	x0, x23
/home/zrz0517/study/TEE/RT-TEE/optee_os/lib/libutee/tee_api_arith_mpi.c:750 (discriminator 1)
    1fb0:	390283f9 	strb	w25, [sp, #160]
/home/zrz0517/study/TEE/RT-TEE/optee_os/lib/libutee/tee_api_arith_mpi.c:752 (discriminator 1)
    1fb4:	97fffb07 	bl	bd0 <put_mpi>
/home/zrz0517/study/TEE/RT-TEE/optee_os/lib/libutee/tee_api_arith_mpi.c:753 (discriminator 1)
    1fb8:	aa1603e0 	mov	x0, x22
    1fbc:	97fffb05 	bl	bd0 <put_mpi>
/home/zrz0517/study/TEE/RT-TEE/optee_os/lib/libutee/tee_api_arith_mpi.c:756
    1fc0:	aa1503e0 	mov	x0, x21
    1fc4:	97fffb03 	bl	bd0 <put_mpi>
/home/zrz0517/study/TEE/RT-TEE/optee_os/lib/libutee/tee_api_arith_mpi.c:757
    1fc8:	aa1403e0 	mov	x0, x20
    1fcc:	97fffb01 	bl	bd0 <put_mpi>
/home/zrz0517/study/TEE/RT-TEE/optee_os/lib/libutee/tee_api_arith_mpi.c:758
    1fd0:	eb18027f 	cmp	x19, x24
    1fd4:	54000061 	b.ne	1fe0 <TEE_BigIntComputeExtendedGcd+0x1ac>  // b.any
/home/zrz0517/study/TEE/RT-TEE/optee_os/lib/libutee/tee_api_arith_mpi.c:759
    1fd8:	aa1303e0 	mov	x0, x19
    1fdc:	97fffafd 	bl	bd0 <put_mpi>
/home/zrz0517/study/TEE/RT-TEE/optee_os/lib/libutee/tee_api_arith_mpi.c:760
    1fe0:	a94153f3 	ldp	x19, x20, [sp, #16]
    1fe4:	a9425bf5 	ldp	x21, x22, [sp, #32]
    1fe8:	a94363f7 	ldp	x23, x24, [sp, #48]
    1fec:	a9446bf9 	ldp	x25, x26, [sp, #64]
    1ff0:	f9402bfb 	ldr	x27, [sp, #80]
    1ff4:	a8cb7bfd 	ldp	x29, x30, [sp], #176
    1ff8:	d65f03c0 	ret
/home/zrz0517/study/TEE/RT-TEE/optee_os/lib/libutee/tee_api_arith_mpi.c:746
    1ffc:	aa1403e4 	mov	x4, x20
    2000:	aa1303e3 	mov	x3, x19
    2004:	aa1703e2 	mov	x2, x23
    2008:	aa1603e1 	mov	x1, x22
    200c:	17ffffe1 	b	1f90 <TEE_BigIntComputeExtendedGcd+0x15c>

0000000000002010 <TEE_BigIntIsProbablePrime>:
TEE_BigIntIsProbablePrime():
/home/zrz0517/study/TEE/RT-TEE/optee_os/lib/libutee/tee_api_arith_mpi.c:771
    2010:	a9bd7bfd 	stp	x29, x30, [sp, #-48]!
/home/zrz0517/study/TEE/RT-TEE/optee_os/lib/libutee/tee_api_arith_mpi.c:775
    2014:	aa0003e1 	mov	x1, x0
/home/zrz0517/study/TEE/RT-TEE/optee_os/lib/libutee/tee_api_arith_mpi.c:771
    2018:	910003fd 	mov	x29, sp
    201c:	a90153f3 	stp	x19, x20, [sp, #16]
/home/zrz0517/study/TEE/RT-TEE/optee_os/lib/libutee/tee_api_arith_mpi.c:775
    2020:	910083f3 	add	x19, sp, #0x20
    2024:	aa1303e0 	mov	x0, x19
    2028:	97fffac0 	bl	b28 <get_const_mpi>
/home/zrz0517/study/TEE/RT-TEE/optee_os/lib/libutee/tee_api_arith_mpi.c:777
    202c:	d0ffffe1 	adrp	x1, 0 <ta_head>
    2030:	912ea021 	add	x1, x1, #0xba8
    2034:	d2800002 	mov	x2, #0x0                   	// #0
    2038:	aa1303e0 	mov	x0, x19
    203c:	94000dfa 	bl	5824 <mbedtls_mpi_is_prime>
    2040:	2a0003f4 	mov	w20, w0
/home/zrz0517/study/TEE/RT-TEE/optee_os/lib/libutee/tee_api_arith_mpi.c:779
    2044:	aa1303e0 	mov	x0, x19
    2048:	97fffae2 	bl	bd0 <put_mpi>
/home/zrz0517/study/TEE/RT-TEE/optee_os/lib/libutee/tee_api_arith_mpi.c:781
    204c:	7100029f 	cmp	w20, #0x0
/home/zrz0517/study/TEE/RT-TEE/optee_os/lib/libutee/tee_api_arith_mpi.c:785
    2050:	1a9f17e0 	cset	w0, eq  // eq = none
    2054:	a94153f3 	ldp	x19, x20, [sp, #16]
    2058:	a8c37bfd 	ldp	x29, x30, [sp], #48
    205c:	d65f03c0 	ret

0000000000002060 <TEE_BigIntInitFMM>:
TEE_BigIntInitFMM():
/home/zrz0517/study/TEE/RT-TEE/optee_os/lib/libutee/tee_api_arith_mpi.c:797
    2060:	17fffc93 	b	12ac <TEE_BigIntInit>

0000000000002064 <TEE_BigIntInitFMMContext>:
TEE_BigIntInitFMMContext():
/home/zrz0517/study/TEE/RT-TEE/optee_os/lib/libutee/tee_api_arith_mpi.c:804
    2064:	d65f03c0 	ret

0000000000002068 <TEE_BigIntFMMSizeInU32>:
TEE_BigIntFMMSizeInU32():
/home/zrz0517/study/TEE/RT-TEE/optee_os/lib/libutee/tee_api_arith_mpi.c:808
    2068:	11007c00 	add	w0, w0, #0x1f
    206c:	53057c00 	lsr	w0, w0, #5
/home/zrz0517/study/TEE/RT-TEE/optee_os/lib/libutee/tee_api_arith_mpi.c:809
    2070:	11000800 	add	w0, w0, #0x2
    2074:	d65f03c0 	ret

0000000000002078 <TEE_BigIntFMMContextSizeInU32>:
TEE_BigIntFMMContextSizeInU32():
/home/zrz0517/study/TEE/RT-TEE/optee_os/lib/libutee/tee_api_arith_mpi.c:815
    2078:	52800020 	mov	w0, #0x1                   	// #1
    207c:	d65f03c0 	ret

0000000000002080 <TEE_BigIntConvertToFMM>:
TEE_BigIntConvertToFMM():
/home/zrz0517/study/TEE/RT-TEE/optee_os/lib/libutee/tee_api_arith_mpi.c:821
    2080:	17fffed3 	b	1bcc <TEE_BigIntMod>

0000000000002084 <TEE_BigIntConvertFromFMM>:
TEE_BigIntConvertFromFMM():
/home/zrz0517/study/TEE/RT-TEE/optee_os/lib/libutee/tee_api_arith_mpi.c:827
    2084:	a9bb7bfd 	stp	x29, x30, [sp, #-80]!
    2088:	910003fd 	mov	x29, sp
    208c:	a90153f3 	stp	x19, x20, [sp, #16]
/home/zrz0517/study/TEE/RT-TEE/optee_os/lib/libutee/tee_api_arith_mpi.c:831
    2090:	9100c3f4 	add	x20, sp, #0x30
/home/zrz0517/study/TEE/RT-TEE/optee_os/lib/libutee/tee_api_arith_mpi.c:832
    2094:	910103f3 	add	x19, sp, #0x40
/home/zrz0517/study/TEE/RT-TEE/optee_os/lib/libutee/tee_api_arith_mpi.c:827
    2098:	f90013f5 	str	x21, [sp, #32]
    209c:	aa0103f5 	mov	x21, x1
/home/zrz0517/study/TEE/RT-TEE/optee_os/lib/libutee/tee_api_arith_mpi.c:831
    20a0:	aa0003e1 	mov	x1, x0
    20a4:	aa1403e0 	mov	x0, x20
    20a8:	97fffad5 	bl	bfc <get_mpi>
/home/zrz0517/study/TEE/RT-TEE/optee_os/lib/libutee/tee_api_arith_mpi.c:832
    20ac:	aa1503e1 	mov	x1, x21
    20b0:	aa1303e0 	mov	x0, x19
    20b4:	97fffa9d 	bl	b28 <get_const_mpi>
/home/zrz0517/study/TEE/RT-TEE/optee_os/lib/libutee/tee_api_arith_mpi.c:834
    20b8:	aa1303e1 	mov	x1, x19
    20bc:	aa1403e0 	mov	x0, x20
    20c0:	94000301 	bl	2cc4 <mbedtls_mpi_copy>
    20c4:	340000e0 	cbz	w0, 20e0 <TEE_BigIntConvertFromFMM+0x5c>
/home/zrz0517/study/TEE/RT-TEE/optee_os/lib/libutee/tee_api_arith_mpi.c:834 (discriminator 1)
    20c8:	2a0003e2 	mov	w2, w0
    20cc:	f0000020 	adrp	x0, 9000 <__text_end+0xd6c>
    20d0:	913c3400 	add	x0, x0, #0xf0d
    20d4:	52806841 	mov	w1, #0x342                 	// #834
    20d8:	91045400 	add	x0, x0, #0x115
    20dc:	97fffa87 	bl	af8 <mpi_panic>
/home/zrz0517/study/TEE/RT-TEE/optee_os/lib/libutee/tee_api_arith_mpi.c:836
    20e0:	aa1403e0 	mov	x0, x20
    20e4:	97fffabb 	bl	bd0 <put_mpi>
/home/zrz0517/study/TEE/RT-TEE/optee_os/lib/libutee/tee_api_arith_mpi.c:837
    20e8:	aa1303e0 	mov	x0, x19
    20ec:	97fffab9 	bl	bd0 <put_mpi>
/home/zrz0517/study/TEE/RT-TEE/optee_os/lib/libutee/tee_api_arith_mpi.c:838
    20f0:	a94153f3 	ldp	x19, x20, [sp, #16]
    20f4:	f94013f5 	ldr	x21, [sp, #32]
    20f8:	a8c57bfd 	ldp	x29, x30, [sp], #80
    20fc:	d65f03c0 	ret

0000000000002100 <TEE_BigIntComputeFMM>:
TEE_BigIntComputeFMM():
/home/zrz0517/study/TEE/RT-TEE/optee_os/lib/libutee/tee_api_arith_mpi.c:843
    2100:	a9b67bfd 	stp	x29, x30, [sp, #-160]!
    2104:	910003fd 	mov	x29, sp
    2108:	a90153f3 	stp	x19, x20, [sp, #16]
/home/zrz0517/study/TEE/RT-TEE/optee_os/lib/libutee/tee_api_arith_mpi.c:850
    210c:	910143f4 	add	x20, sp, #0x50
/home/zrz0517/study/TEE/RT-TEE/optee_os/lib/libutee/tee_api_arith_mpi.c:843
    2110:	aa0103f3 	mov	x19, x1
/home/zrz0517/study/TEE/RT-TEE/optee_os/lib/libutee/tee_api_arith_mpi.c:850
    2114:	aa0003e1 	mov	x1, x0
    2118:	aa1403e0 	mov	x0, x20
/home/zrz0517/study/TEE/RT-TEE/optee_os/lib/libutee/tee_api_arith_mpi.c:843
    211c:	a9025bf5 	stp	x21, x22, [sp, #32]
/home/zrz0517/study/TEE/RT-TEE/optee_os/lib/libutee/tee_api_arith_mpi.c:851
    2120:	910183f5 	add	x21, sp, #0x60
/home/zrz0517/study/TEE/RT-TEE/optee_os/lib/libutee/tee_api_arith_mpi.c:852
    2124:	9101c3f6 	add	x22, sp, #0x70
/home/zrz0517/study/TEE/RT-TEE/optee_os/lib/libutee/tee_api_arith_mpi.c:843
    2128:	f9001bf7 	str	x23, [sp, #48]
/home/zrz0517/study/TEE/RT-TEE/optee_os/lib/libutee/tee_api_arith_mpi.c:853
    212c:	910203f7 	add	x23, sp, #0x80
/home/zrz0517/study/TEE/RT-TEE/optee_os/lib/libutee/tee_api_arith_mpi.c:843
    2130:	a9040be3 	stp	x3, x2, [sp, #64]
/home/zrz0517/study/TEE/RT-TEE/optee_os/lib/libutee/tee_api_arith_mpi.c:850
    2134:	97fffab2 	bl	bfc <get_mpi>
/home/zrz0517/study/TEE/RT-TEE/optee_os/lib/libutee/tee_api_arith_mpi.c:851
    2138:	aa1303e1 	mov	x1, x19
    213c:	aa1503e0 	mov	x0, x21
    2140:	97fffa7a 	bl	b28 <get_const_mpi>
/home/zrz0517/study/TEE/RT-TEE/optee_os/lib/libutee/tee_api_arith_mpi.c:852
    2144:	f94027e2 	ldr	x2, [sp, #72]
    2148:	aa1603e0 	mov	x0, x22
get_mpi():
/home/zrz0517/study/TEE/RT-TEE/optee_os/lib/libutee/tee_api_arith_mpi.c:99
    214c:	910243f3 	add	x19, sp, #0x90
TEE_BigIntComputeFMM():
/home/zrz0517/study/TEE/RT-TEE/optee_os/lib/libutee/tee_api_arith_mpi.c:852
    2150:	aa0203e1 	mov	x1, x2
    2154:	97fffa75 	bl	b28 <get_const_mpi>
/home/zrz0517/study/TEE/RT-TEE/optee_os/lib/libutee/tee_api_arith_mpi.c:853
    2158:	f94023e3 	ldr	x3, [sp, #64]
    215c:	aa1703e0 	mov	x0, x23
    2160:	aa0303e1 	mov	x1, x3
    2164:	97fffa71 	bl	b28 <get_const_mpi>
get_mpi():
/home/zrz0517/study/TEE/RT-TEE/optee_os/lib/libutee/tee_api_arith_mpi.c:99
    2168:	aa1303e0 	mov	x0, x19
    216c:	94000202 	bl	2974 <mbedtls_mpi_init_mempool>
TEE_BigIntComputeFMM():
/home/zrz0517/study/TEE/RT-TEE/optee_os/lib/libutee/tee_api_arith_mpi.c:856
    2170:	aa1603e2 	mov	x2, x22
    2174:	aa1503e1 	mov	x1, x21
    2178:	aa1303e0 	mov	x0, x19
    217c:	94000605 	bl	3990 <mbedtls_mpi_mul_mpi>
    2180:	340000e0 	cbz	w0, 219c <TEE_BigIntComputeFMM+0x9c>
/home/zrz0517/study/TEE/RT-TEE/optee_os/lib/libutee/tee_api_arith_mpi.c:856 (discriminator 1)
    2184:	2a0003e2 	mov	w2, w0
    2188:	52806b01 	mov	w1, #0x358                 	// #856
/home/zrz0517/study/TEE/RT-TEE/optee_os/lib/libutee/tee_api_arith_mpi.c:857 (discriminator 1)
    218c:	f0000020 	adrp	x0, 9000 <__text_end+0xd6c>
    2190:	913c3400 	add	x0, x0, #0xf0d
    2194:	9104b800 	add	x0, x0, #0x12e
    2198:	97fffa58 	bl	af8 <mpi_panic>
/home/zrz0517/study/TEE/RT-TEE/optee_os/lib/libutee/tee_api_arith_mpi.c:857
    219c:	aa1703e2 	mov	x2, x23
    21a0:	aa1303e1 	mov	x1, x19
    21a4:	aa1403e0 	mov	x0, x20
    21a8:	94000830 	bl	4268 <mbedtls_mpi_mod_mpi>
    21ac:	34000080 	cbz	w0, 21bc <TEE_BigIntComputeFMM+0xbc>
/home/zrz0517/study/TEE/RT-TEE/optee_os/lib/libutee/tee_api_arith_mpi.c:857 (discriminator 1)
    21b0:	2a0003e2 	mov	w2, w0
    21b4:	52806b21 	mov	w1, #0x359                 	// #857
    21b8:	17fffff5 	b	218c <TEE_BigIntComputeFMM+0x8c>
/home/zrz0517/study/TEE/RT-TEE/optee_os/lib/libutee/tee_api_arith_mpi.c:859
    21bc:	aa1303e0 	mov	x0, x19
    21c0:	97fffa84 	bl	bd0 <put_mpi>
/home/zrz0517/study/TEE/RT-TEE/optee_os/lib/libutee/tee_api_arith_mpi.c:860
    21c4:	aa1703e0 	mov	x0, x23
    21c8:	97fffa82 	bl	bd0 <put_mpi>
/home/zrz0517/study/TEE/RT-TEE/optee_os/lib/libutee/tee_api_arith_mpi.c:861
    21cc:	aa1603e0 	mov	x0, x22
    21d0:	97fffa80 	bl	bd0 <put_mpi>
/home/zrz0517/study/TEE/RT-TEE/optee_os/lib/libutee/tee_api_arith_mpi.c:862
    21d4:	aa1503e0 	mov	x0, x21
    21d8:	97fffa7e 	bl	bd0 <put_mpi>
/home/zrz0517/study/TEE/RT-TEE/optee_os/lib/libutee/tee_api_arith_mpi.c:863
    21dc:	aa1403e0 	mov	x0, x20
    21e0:	97fffa7c 	bl	bd0 <put_mpi>
/home/zrz0517/study/TEE/RT-TEE/optee_os/lib/libutee/tee_api_arith_mpi.c:864
    21e4:	a94153f3 	ldp	x19, x20, [sp, #16]
    21e8:	a9425bf5 	ldp	x21, x22, [sp, #32]
    21ec:	f9401bf7 	ldr	x23, [sp, #48]
    21f0:	a8ca7bfd 	ldp	x29, x30, [sp], #160
    21f4:	d65f03c0 	ret

00000000000021f8 <trace_ext_puts>:
trace_ext_puts():
/home/zrz0517/study/TEE/RT-TEE/optee_os/lib/libutee/trace_ext.c:17
    21f8:	a9be7bfd 	stp	x29, x30, [sp, #-32]!
    21fc:	910003fd 	mov	x29, sp
    2200:	f9000bf3 	str	x19, [sp, #16]
    2204:	aa0003f3 	mov	x19, x0
/home/zrz0517/study/TEE/RT-TEE/optee_os/lib/libutee/trace_ext.c:18
    2208:	940013b8 	bl	70e8 <strlen>
    220c:	aa0003e1 	mov	x1, x0
    2210:	aa1303e0 	mov	x0, x19
/home/zrz0517/study/TEE/RT-TEE/optee_os/lib/libutee/trace_ext.c:19
    2214:	f9400bf3 	ldr	x19, [sp, #16]
    2218:	a8c27bfd 	ldp	x29, x30, [sp], #32
/home/zrz0517/study/TEE/RT-TEE/optee_os/lib/libutee/trace_ext.c:18
    221c:	17fff84f 	b	358 <utee_log>

0000000000002220 <trace_ext_get_thread_id>:
trace_ext_get_thread_id():
/home/zrz0517/study/TEE/RT-TEE/optee_os/lib/libutee/trace_ext.c:24
    2220:	12800000 	mov	w0, #0xffffffff            	// #-1
    2224:	d65f03c0 	ret

0000000000002228 <printf>:
printf():
/home/zrz0517/study/TEE/RT-TEE/optee_os/lib/libutee/trace_ext.c:32
    2228:	d10883ff 	sub	sp, sp, #0x220
    222c:	a9007bfd 	stp	x29, x30, [sp]
    2230:	910003fd 	mov	x29, sp
    2234:	a90153f3 	stp	x19, x20, [sp, #16]
    2238:	aa0003f3 	mov	x19, x0
    223c:	3d805be0 	str	q0, [sp, #352]
    2240:	3d805fe1 	str	q1, [sp, #368]
    2244:	3d8063e2 	str	q2, [sp, #384]
    2248:	3d8067e3 	str	q3, [sp, #400]
    224c:	3d806be4 	str	q4, [sp, #416]
    2250:	3d806fe5 	str	q5, [sp, #432]
    2254:	3d8073e6 	str	q6, [sp, #448]
    2258:	3d8077e7 	str	q7, [sp, #464]
    225c:	a91e8be1 	stp	x1, x2, [sp, #488]
    2260:	a91f93e3 	stp	x3, x4, [sp, #504]
    2264:	f90107e5 	str	x5, [sp, #520]
    2268:	f9010be6 	str	x6, [sp, #528]
    226c:	f9010fe7 	str	x7, [sp, #536]
/home/zrz0517/study/TEE/RT-TEE/optee_os/lib/libutee/trace_ext.c:37
    2270:	940016eb 	bl	7e1c <trace_get_level>
    2274:	7100001f 	cmp	w0, #0x0
    2278:	5400038d 	b.le	22e8 <printf+0xc0>
/home/zrz0517/study/TEE/RT-TEE/optee_os/lib/libutee/trace_ext.c:40
    227c:	910883e0 	add	x0, sp, #0x220
    2280:	a90403e0 	stp	x0, x0, [sp, #64]
    2284:	910783e0 	add	x0, sp, #0x1e0
    2288:	f9002be0 	str	x0, [sp, #80]
    228c:	128006e0 	mov	w0, #0xffffffc8            	// #-56
    2290:	b9005be0 	str	w0, [sp, #88]
    2294:	12800fe0 	mov	w0, #0xffffff80            	// #-128
    2298:	b9005fe0 	str	w0, [sp, #92]
/home/zrz0517/study/TEE/RT-TEE/optee_os/lib/libutee/trace_ext.c:41
    229c:	910183f4 	add	x20, sp, #0x60
    22a0:	a94407e0 	ldp	x0, x1, [sp, #64]
    22a4:	a90207e0 	stp	x0, x1, [sp, #32]
    22a8:	aa1303e2 	mov	x2, x19
    22ac:	a94507e0 	ldp	x0, x1, [sp, #80]
    22b0:	910083e3 	add	x3, sp, #0x20
    22b4:	a90307e0 	stp	x0, x1, [sp, #48]
    22b8:	aa1403e0 	mov	x0, x20
    22bc:	d2802001 	mov	x1, #0x100                 	// #256
    22c0:	94001342 	bl	6fc8 <vsnprintf>
    22c4:	2a0003f3 	mov	w19, w0
/home/zrz0517/study/TEE/RT-TEE/optee_os/lib/libutee/trace_ext.c:44
    22c8:	37f80060 	tbnz	w0, #31, 22d4 <printf+0xac>
/home/zrz0517/study/TEE/RT-TEE/optee_os/lib/libutee/trace_ext.c:47
    22cc:	aa1403e0 	mov	x0, x20
    22d0:	97ffffca 	bl	21f8 <trace_ext_puts>
/home/zrz0517/study/TEE/RT-TEE/optee_os/lib/libutee/trace_ext.c:50
    22d4:	2a1303e0 	mov	w0, w19
    22d8:	a9407bfd 	ldp	x29, x30, [sp]
    22dc:	a94153f3 	ldp	x19, x20, [sp, #16]
    22e0:	910883ff 	add	sp, sp, #0x220
    22e4:	d65f03c0 	ret
/home/zrz0517/study/TEE/RT-TEE/optee_os/lib/libutee/trace_ext.c:38
    22e8:	52800013 	mov	w19, #0x0                   	// #0
    22ec:	17fffffa 	b	22d4 <printf+0xac>

00000000000022f0 <puts>:
puts():
/home/zrz0517/study/TEE/RT-TEE/optee_os/lib/libutee/trace_ext.c:53
    22f0:	a9be7bfd 	stp	x29, x30, [sp, #-32]!
    22f4:	910003fd 	mov	x29, sp
    22f8:	f9000bf3 	str	x19, [sp, #16]
    22fc:	aa0003f3 	mov	x19, x0
/home/zrz0517/study/TEE/RT-TEE/optee_os/lib/libutee/trace_ext.c:54
    2300:	940016c7 	bl	7e1c <trace_get_level>
    2304:	7100001f 	cmp	w0, #0x0
    2308:	540000cd 	b.le	2320 <puts+0x30>
/home/zrz0517/study/TEE/RT-TEE/optee_os/lib/libutee/trace_ext.c:55
    230c:	aa1303e0 	mov	x0, x19
    2310:	97ffffba 	bl	21f8 <trace_ext_puts>
/home/zrz0517/study/TEE/RT-TEE/optee_os/lib/libutee/trace_ext.c:56
    2314:	90000040 	adrp	x0, a000 <__func__.4888+0x13>
    2318:	91158800 	add	x0, x0, #0x562
    231c:	97ffffb7 	bl	21f8 <trace_ext_puts>
/home/zrz0517/study/TEE/RT-TEE/optee_os/lib/libutee/trace_ext.c:59
    2320:	52800020 	mov	w0, #0x1                   	// #1
    2324:	f9400bf3 	ldr	x19, [sp, #16]
    2328:	a8c27bfd 	ldp	x29, x30, [sp], #32
    232c:	d65f03c0 	ret

0000000000002330 <putchar>:
putchar():
/home/zrz0517/study/TEE/RT-TEE/optee_os/lib/libutee/trace_ext.c:62
    2330:	a9bd7bfd 	stp	x29, x30, [sp, #-48]!
    2334:	910003fd 	mov	x29, sp
    2338:	f9000bf3 	str	x19, [sp, #16]
    233c:	2a0003f3 	mov	w19, w0
/home/zrz0517/study/TEE/RT-TEE/optee_os/lib/libutee/trace_ext.c:63
    2340:	3900a3e0 	strb	w0, [sp, #40]
    2344:	3900a7ff 	strb	wzr, [sp, #41]
/home/zrz0517/study/TEE/RT-TEE/optee_os/lib/libutee/trace_ext.c:65
    2348:	940016b5 	bl	7e1c <trace_get_level>
    234c:	7100001f 	cmp	w0, #0x0
    2350:	5400006d 	b.le	235c <putchar+0x2c>
/home/zrz0517/study/TEE/RT-TEE/optee_os/lib/libutee/trace_ext.c:66
    2354:	9100a3e0 	add	x0, sp, #0x28
    2358:	97ffffa8 	bl	21f8 <trace_ext_puts>
/home/zrz0517/study/TEE/RT-TEE/optee_os/lib/libutee/trace_ext.c:73
    235c:	12001e60 	and	w0, w19, #0xff
    2360:	f9400bf3 	ldr	x19, [sp, #16]
    2364:	a8c37bfd 	ldp	x29, x30, [sp], #48
    2368:	d65f03c0 	ret

000000000000236c <mpi_get_digit>:
mpi_get_digit():
/home/zrz0517/study/TEE/RT-TEE/optee_os/lib/libmbedtls/mbedtls/library/bignum.c:485
    236c:	12001c42 	and	w2, w2, #0xff
/home/zrz0517/study/TEE/RT-TEE/optee_os/lib/libmbedtls/mbedtls/library/bignum.c:488
    2370:	5100c043 	sub	w3, w2, #0x30
    2374:	12001c64 	and	w4, w3, #0xff
    2378:	7100249f 	cmp	w4, #0x9
    237c:	540000e8 	b.hi	2398 <mpi_get_digit+0x2c>  // b.pmore
/home/zrz0517/study/TEE/RT-TEE/optee_os/lib/libmbedtls/mbedtls/library/bignum.c:488 (discriminator 1)
    2380:	b9000003 	str	w3, [x0]
/home/zrz0517/study/TEE/RT-TEE/optee_os/lib/libmbedtls/mbedtls/library/bignum.c:492
    2384:	b9400000 	ldr	w0, [x0]
/home/zrz0517/study/TEE/RT-TEE/optee_os/lib/libmbedtls/mbedtls/library/bignum.c:493
    2388:	6b01001f 	cmp	w0, w1
/home/zrz0517/study/TEE/RT-TEE/optee_os/lib/libmbedtls/mbedtls/library/bignum.c:496
    238c:	128000a0 	mov	w0, #0xfffffffa            	// #-6
    2390:	1a9f2000 	csel	w0, w0, wzr, cs  // cs = hs, nlast
    2394:	d65f03c0 	ret
/home/zrz0517/study/TEE/RT-TEE/optee_os/lib/libmbedtls/mbedtls/library/bignum.c:489
    2398:	51010443 	sub	w3, w2, #0x41
    239c:	12001c63 	and	w3, w3, #0xff
    23a0:	7100147f 	cmp	w3, #0x5
    23a4:	54000088 	b.hi	23b4 <mpi_get_digit+0x48>  // b.pmore
/home/zrz0517/study/TEE/RT-TEE/optee_os/lib/libmbedtls/mbedtls/library/bignum.c:489 (discriminator 1)
    23a8:	5100dc42 	sub	w2, w2, #0x37
/home/zrz0517/study/TEE/RT-TEE/optee_os/lib/libmbedtls/mbedtls/library/bignum.c:490
    23ac:	b9000002 	str	w2, [x0]
    23b0:	17fffff5 	b	2384 <mpi_get_digit+0x18>
    23b4:	51018443 	sub	w3, w2, #0x61
    23b8:	51015c42 	sub	w2, w2, #0x57
    23bc:	12001c63 	and	w3, w3, #0xff
    23c0:	7100187f 	cmp	w3, #0x6
    23c4:	52801fe3 	mov	w3, #0xff                  	// #255
    23c8:	1a833042 	csel	w2, w2, w3, cc  // cc = lo, ul, last
    23cc:	17fffff8 	b	23ac <mpi_get_digit+0x40>

00000000000023d0 <mpi_sub_hlp>:
mpi_sub_hlp():
/home/zrz0517/study/TEE/RT-TEE/optee_os/lib/libmbedtls/mbedtls/library/bignum.c:1025
    23d0:	52800005 	mov	w5, #0x0                   	// #0
    23d4:	d2800003 	mov	x3, #0x0                   	// #0
/home/zrz0517/study/TEE/RT-TEE/optee_os/lib/libmbedtls/mbedtls/library/bignum.c:1025 (discriminator 1)
    23d8:	eb00007f 	cmp	x3, x0
    23dc:	54000081 	b.ne	23ec <mpi_sub_hlp+0x1c>  // b.any
    23e0:	8b030843 	add	x3, x2, x3, lsl #2
/home/zrz0517/study/TEE/RT-TEE/optee_os/lib/libmbedtls/mbedtls/library/bignum.c:1031
    23e4:	350001c5 	cbnz	w5, 241c <mpi_sub_hlp+0x4c>
/home/zrz0517/study/TEE/RT-TEE/optee_os/lib/libmbedtls/mbedtls/library/bignum.c:1036
    23e8:	d65f03c0 	ret
/home/zrz0517/study/TEE/RT-TEE/optee_os/lib/libmbedtls/mbedtls/library/bignum.c:1027 (discriminator 3)
    23ec:	b8637844 	ldr	w4, [x2, x3, lsl #2]
    23f0:	6b05009f 	cmp	w4, w5
    23f4:	4b050084 	sub	w4, w4, w5
    23f8:	b8237844 	str	w4, [x2, x3, lsl #2]
    23fc:	1a9f27e7 	cset	w7, cc  // cc = lo, ul, last
/home/zrz0517/study/TEE/RT-TEE/optee_os/lib/libmbedtls/mbedtls/library/bignum.c:1028 (discriminator 3)
    2400:	b8637826 	ldr	w6, [x1, x3, lsl #2]
    2404:	6b06009f 	cmp	w4, w6
    2408:	4b060084 	sub	w4, w4, w6
    240c:	1a8724e5 	cinc	w5, w7, cc  // cc = lo, ul, last
    2410:	b8237844 	str	w4, [x2, x3, lsl #2]
/home/zrz0517/study/TEE/RT-TEE/optee_os/lib/libmbedtls/mbedtls/library/bignum.c:1025 (discriminator 3)
    2414:	91000463 	add	x3, x3, #0x1
    2418:	17fffff0 	b	23d8 <mpi_sub_hlp+0x8>
/home/zrz0517/study/TEE/RT-TEE/optee_os/lib/libmbedtls/mbedtls/library/bignum.c:1033
    241c:	b9400060 	ldr	w0, [x3]
    2420:	6b050005 	subs	w5, w0, w5
    2424:	b8004465 	str	w5, [x3], #4
/home/zrz0517/study/TEE/RT-TEE/optee_os/lib/libmbedtls/mbedtls/library/bignum.c:1034
    2428:	1a9f27e5 	cset	w5, cc  // cc = lo, ul, last
    242c:	17ffffee 	b	23e4 <mpi_sub_hlp+0x14>

0000000000002430 <mpi_mul_hlp>:
mpi_mul_hlp():
/home/zrz0517/study/TEE/RT-TEE/optee_os/lib/libmbedtls/mbedtls/library/bignum.c:1205
    2430:	aa0203e4 	mov	x4, x2
    2434:	aa0103e6 	mov	x6, x1
    2438:	aa0003e8 	mov	x8, x0
/home/zrz0517/study/TEE/RT-TEE/optee_os/lib/libmbedtls/mbedtls/library/bignum.c:1188
    243c:	52800005 	mov	w5, #0x0                   	// #0
/home/zrz0517/study/TEE/RT-TEE/optee_os/lib/libmbedtls/mbedtls/library/bignum.c:1205 (discriminator 1)
    2440:	f1003d1f 	cmp	x8, #0xf
    2444:	b940008a 	ldr	w10, [x4]
    2448:	54000dc8 	b.hi	2600 <mpi_mul_hlp+0x1d0>  // b.pmore
    244c:	d344fc07 	lsr	x7, x0, #4
    2450:	928001e4 	mov	x4, #0xfffffffffffffff0    	// #-16
    2454:	9b0400e0 	madd	x0, x7, x4, x0
    2458:	d37ae4e7 	lsl	x7, x7, #6
    245c:	8b070026 	add	x6, x1, x7
    2460:	8b070044 	add	x4, x2, x7
/home/zrz0517/study/TEE/RT-TEE/optee_os/lib/libmbedtls/mbedtls/library/bignum.c:1220
    2464:	f1001c1f 	cmp	x0, #0x7
    2468:	54000b69 	b.ls	25d4 <mpi_mul_hlp+0x1a4>  // b.plast
/home/zrz0517/study/TEE/RT-TEE/optee_os/lib/libmbedtls/mbedtls/library/bignum.c:1223
    246c:	b8676821 	ldr	w1, [x1, x7]
/home/zrz0517/study/TEE/RT-TEE/optee_os/lib/libmbedtls/mbedtls/library/bignum.c:1220
    2470:	d1002000 	sub	x0, x0, #0x8
/home/zrz0517/study/TEE/RT-TEE/optee_os/lib/libmbedtls/mbedtls/library/bignum.c:1227
    2474:	910080c6 	add	x6, x6, #0x20
    2478:	91008084 	add	x4, x4, #0x20
/home/zrz0517/study/TEE/RT-TEE/optee_os/lib/libmbedtls/mbedtls/library/bignum.c:1223
    247c:	9ba17c61 	umull	x1, w3, w1
    2480:	d360fc28 	lsr	x8, x1, #32
    2484:	0b0100a1 	add	w1, w5, w1
    2488:	6b0100bf 	cmp	w5, w1
    248c:	0b010141 	add	w1, w10, w1
    2490:	b8276841 	str	w1, [x2, x7]
    2494:	1a889508 	cinc	w8, w8, hi  // hi = pmore
    2498:	6b01015f 	cmp	w10, w1
    249c:	b85e40c1 	ldur	w1, [x6, #-28]
    24a0:	1a889508 	cinc	w8, w8, hi  // hi = pmore
    24a4:	b85e4082 	ldur	w2, [x4, #-28]
    24a8:	9ba17c61 	umull	x1, w3, w1
    24ac:	d360fc25 	lsr	x5, x1, #32
    24b0:	0b010101 	add	w1, w8, w1
    24b4:	6b01011f 	cmp	w8, w1
    24b8:	0b020021 	add	w1, w1, w2
    24bc:	b81e4081 	stur	w1, [x4, #-28]
    24c0:	1a8594a5 	cinc	w5, w5, hi  // hi = pmore
    24c4:	6b01005f 	cmp	w2, w1
/home/zrz0517/study/TEE/RT-TEE/optee_os/lib/libmbedtls/mbedtls/library/bignum.c:1224
    24c8:	b85e80c1 	ldur	w1, [x6, #-24]
/home/zrz0517/study/TEE/RT-TEE/optee_os/lib/libmbedtls/mbedtls/library/bignum.c:1223
    24cc:	1a8594a5 	cinc	w5, w5, hi  // hi = pmore
/home/zrz0517/study/TEE/RT-TEE/optee_os/lib/libmbedtls/mbedtls/library/bignum.c:1224
    24d0:	9ba17c61 	umull	x1, w3, w1
    24d4:	d360fc22 	lsr	x2, x1, #32
    24d8:	0b0100a1 	add	w1, w5, w1
    24dc:	6b0100bf 	cmp	w5, w1
    24e0:	b85e8085 	ldur	w5, [x4, #-24]
    24e4:	1a829442 	cinc	w2, w2, hi  // hi = pmore
    24e8:	0b050021 	add	w1, w1, w5
    24ec:	b81e8081 	stur	w1, [x4, #-24]
    24f0:	6b0100bf 	cmp	w5, w1
    24f4:	b85ec0c1 	ldur	w1, [x6, #-20]
    24f8:	1a829442 	cinc	w2, w2, hi  // hi = pmore
    24fc:	9ba17c61 	umull	x1, w3, w1
    2500:	d360fc25 	lsr	x5, x1, #32
    2504:	0b010041 	add	w1, w2, w1
    2508:	6b01005f 	cmp	w2, w1
    250c:	b85ec082 	ldur	w2, [x4, #-20]
    2510:	1a8594a5 	cinc	w5, w5, hi  // hi = pmore
    2514:	0b020021 	add	w1, w1, w2
    2518:	b81ec081 	stur	w1, [x4, #-20]
    251c:	6b01005f 	cmp	w2, w1
/home/zrz0517/study/TEE/RT-TEE/optee_os/lib/libmbedtls/mbedtls/library/bignum.c:1226
    2520:	b85f00c1 	ldur	w1, [x6, #-16]
/home/zrz0517/study/TEE/RT-TEE/optee_os/lib/libmbedtls/mbedtls/library/bignum.c:1224
    2524:	1a8594a5 	cinc	w5, w5, hi  // hi = pmore
/home/zrz0517/study/TEE/RT-TEE/optee_os/lib/libmbedtls/mbedtls/library/bignum.c:1226
    2528:	9ba17c61 	umull	x1, w3, w1
    252c:	d360fc22 	lsr	x2, x1, #32
    2530:	0b0100a1 	add	w1, w5, w1
    2534:	6b0100bf 	cmp	w5, w1
    2538:	b85f0085 	ldur	w5, [x4, #-16]
    253c:	1a829442 	cinc	w2, w2, hi  // hi = pmore
    2540:	0b050021 	add	w1, w1, w5
    2544:	b81f0081 	stur	w1, [x4, #-16]
    2548:	6b0100bf 	cmp	w5, w1
    254c:	b85f40c1 	ldur	w1, [x6, #-12]
    2550:	1a829442 	cinc	w2, w2, hi  // hi = pmore
    2554:	9ba17c61 	umull	x1, w3, w1
    2558:	d360fc25 	lsr	x5, x1, #32
    255c:	0b010041 	add	w1, w2, w1
    2560:	6b01005f 	cmp	w2, w1
    2564:	b85f4082 	ldur	w2, [x4, #-12]
    2568:	1a8594a5 	cinc	w5, w5, hi  // hi = pmore
    256c:	0b020021 	add	w1, w1, w2
    2570:	b81f4081 	stur	w1, [x4, #-12]
    2574:	6b01005f 	cmp	w2, w1
/home/zrz0517/study/TEE/RT-TEE/optee_os/lib/libmbedtls/mbedtls/library/bignum.c:1227
    2578:	b85f80c1 	ldur	w1, [x6, #-8]
/home/zrz0517/study/TEE/RT-TEE/optee_os/lib/libmbedtls/mbedtls/library/bignum.c:1226
    257c:	1a8594a5 	cinc	w5, w5, hi  // hi = pmore
/home/zrz0517/study/TEE/RT-TEE/optee_os/lib/libmbedtls/mbedtls/library/bignum.c:1227
    2580:	9ba17c61 	umull	x1, w3, w1
    2584:	d360fc22 	lsr	x2, x1, #32
    2588:	0b0100a1 	add	w1, w5, w1
    258c:	6b0100bf 	cmp	w5, w1
    2590:	b85f8085 	ldur	w5, [x4, #-8]
    2594:	1a829442 	cinc	w2, w2, hi  // hi = pmore
    2598:	0b050021 	add	w1, w1, w5
    259c:	b81f8081 	stur	w1, [x4, #-8]
    25a0:	6b0100bf 	cmp	w5, w1
    25a4:	b85fc0c1 	ldur	w1, [x6, #-4]
    25a8:	1a829442 	cinc	w2, w2, hi  // hi = pmore
    25ac:	9ba17c61 	umull	x1, w3, w1
    25b0:	d360fc25 	lsr	x5, x1, #32
    25b4:	0b010041 	add	w1, w2, w1
    25b8:	6b01005f 	cmp	w2, w1
    25bc:	b85fc082 	ldur	w2, [x4, #-4]
    25c0:	1a8594a5 	cinc	w5, w5, hi  // hi = pmore
    25c4:	0b020021 	add	w1, w1, w2
    25c8:	b81fc081 	stur	w1, [x4, #-4]
    25cc:	6b01005f 	cmp	w2, w1
    25d0:	1a8594a5 	cinc	w5, w5, hi  // hi = pmore
/home/zrz0517/study/TEE/RT-TEE/optee_os/lib/libmbedtls/mbedtls/library/bignum.c:1227 (discriminator 1)
    25d4:	d2800001 	mov	x1, #0x0                   	// #0
    25d8:	b8617888 	ldr	w8, [x4, x1, lsl #2]
/home/zrz0517/study/TEE/RT-TEE/optee_os/lib/libmbedtls/mbedtls/library/bignum.c:1231 (discriminator 1)
    25dc:	eb00003f 	cmp	x1, x0
    25e0:	54001761 	b.ne	28cc <mpi_mul_hlp+0x49c>  // b.any
    25e4:	8b010884 	add	x4, x4, x1, lsl #2
/home/zrz0517/study/TEE/RT-TEE/optee_os/lib/libmbedtls/mbedtls/library/bignum.c:1242 (discriminator 1)
    25e8:	b9400080 	ldr	w0, [x4]
    25ec:	0b0000a0 	add	w0, w5, w0
    25f0:	b8004480 	str	w0, [x4], #4
/home/zrz0517/study/TEE/RT-TEE/optee_os/lib/libmbedtls/mbedtls/library/bignum.c:1244 (discriminator 1)
    25f4:	6b05001f 	cmp	w0, w5
    25f8:	54001823 	b.cc	28fc <mpi_mul_hlp+0x4cc>  // b.lo, b.ul, b.last
/home/zrz0517/study/TEE/RT-TEE/optee_os/lib/libmbedtls/mbedtls/library/bignum.c:1245
    25fc:	d65f03c0 	ret
/home/zrz0517/study/TEE/RT-TEE/optee_os/lib/libmbedtls/mbedtls/library/bignum.c:1208 (discriminator 2)
    2600:	b94000c7 	ldr	w7, [x6]
    2604:	910100c6 	add	x6, x6, #0x40
    2608:	91010084 	add	x4, x4, #0x40
/home/zrz0517/study/TEE/RT-TEE/optee_os/lib/libmbedtls/mbedtls/library/bignum.c:1205 (discriminator 2)
    260c:	d1004108 	sub	x8, x8, #0x10
/home/zrz0517/study/TEE/RT-TEE/optee_os/lib/libmbedtls/mbedtls/library/bignum.c:1208 (discriminator 2)
    2610:	9ba77c67 	umull	x7, w3, w7
    2614:	d360fce9 	lsr	x9, x7, #32
    2618:	0b0700a7 	add	w7, w5, w7
    261c:	6b0700bf 	cmp	w5, w7
    2620:	0b0a00e5 	add	w5, w7, w10
    2624:	b81c0085 	stur	w5, [x4, #-64]
    2628:	1a899529 	cinc	w9, w9, hi  // hi = pmore
    262c:	6b0a00bf 	cmp	w5, w10
    2630:	b85c40c5 	ldur	w5, [x6, #-60]
    2634:	1a892529 	cinc	w9, w9, cc  // cc = lo, ul, last
    2638:	9ba57c65 	umull	x5, w3, w5
    263c:	d360fca7 	lsr	x7, x5, #32
    2640:	0b050125 	add	w5, w9, w5
    2644:	6b05013f 	cmp	w9, w5
    2648:	b85c4089 	ldur	w9, [x4, #-60]
    264c:	1a8794e7 	cinc	w7, w7, hi  // hi = pmore
    2650:	0b050125 	add	w5, w9, w5
    2654:	b81c4085 	stur	w5, [x4, #-60]
    2658:	6b05013f 	cmp	w9, w5
/home/zrz0517/study/TEE/RT-TEE/optee_os/lib/libmbedtls/mbedtls/library/bignum.c:1209 (discriminator 2)
    265c:	b85c80c5 	ldur	w5, [x6, #-56]
/home/zrz0517/study/TEE/RT-TEE/optee_os/lib/libmbedtls/mbedtls/library/bignum.c:1208 (discriminator 2)
    2660:	1a8794e7 	cinc	w7, w7, hi  // hi = pmore
/home/zrz0517/study/TEE/RT-TEE/optee_os/lib/libmbedtls/mbedtls/library/bignum.c:1209 (discriminator 2)
    2664:	9ba57c65 	umull	x5, w3, w5
    2668:	d360fca9 	lsr	x9, x5, #32
    266c:	0b0500e5 	add	w5, w7, w5
    2670:	6b0500ff 	cmp	w7, w5
    2674:	b85c8087 	ldur	w7, [x4, #-56]
    2678:	1a899529 	cinc	w9, w9, hi  // hi = pmore
    267c:	0b0500e5 	add	w5, w7, w5
    2680:	b81c8085 	stur	w5, [x4, #-56]
    2684:	6b0500ff 	cmp	w7, w5
    2688:	b85cc0c5 	ldur	w5, [x6, #-52]
    268c:	1a899529 	cinc	w9, w9, hi  // hi = pmore
    2690:	9ba57c65 	umull	x5, w3, w5
    2694:	d360fca7 	lsr	x7, x5, #32
    2698:	0b050125 	add	w5, w9, w5
    269c:	6b05013f 	cmp	w9, w5
    26a0:	b85cc089 	ldur	w9, [x4, #-52]
    26a4:	1a8794e7 	cinc	w7, w7, hi  // hi = pmore
    26a8:	0b050125 	add	w5, w9, w5
    26ac:	b81cc085 	stur	w5, [x4, #-52]
    26b0:	6b05013f 	cmp	w9, w5
/home/zrz0517/study/TEE/RT-TEE/optee_os/lib/libmbedtls/mbedtls/library/bignum.c:1210 (discriminator 2)
    26b4:	b85d00c5 	ldur	w5, [x6, #-48]
/home/zrz0517/study/TEE/RT-TEE/optee_os/lib/libmbedtls/mbedtls/library/bignum.c:1209 (discriminator 2)
    26b8:	1a8794e7 	cinc	w7, w7, hi  // hi = pmore
/home/zrz0517/study/TEE/RT-TEE/optee_os/lib/libmbedtls/mbedtls/library/bignum.c:1210 (discriminator 2)
    26bc:	9ba57c65 	umull	x5, w3, w5
    26c0:	d360fca9 	lsr	x9, x5, #32
    26c4:	0b0500e5 	add	w5, w7, w5
    26c8:	6b0500ff 	cmp	w7, w5
    26cc:	b85d0087 	ldur	w7, [x4, #-48]
    26d0:	1a899529 	cinc	w9, w9, hi  // hi = pmore
    26d4:	0b0500e5 	add	w5, w7, w5
    26d8:	b81d0085 	stur	w5, [x4, #-48]
    26dc:	6b0500ff 	cmp	w7, w5
    26e0:	b85d40c5 	ldur	w5, [x6, #-44]
    26e4:	1a899529 	cinc	w9, w9, hi  // hi = pmore
    26e8:	9ba57c65 	umull	x5, w3, w5
    26ec:	d360fca7 	lsr	x7, x5, #32
    26f0:	0b050125 	add	w5, w9, w5
    26f4:	6b05013f 	cmp	w9, w5
    26f8:	b85d4089 	ldur	w9, [x4, #-44]
    26fc:	1a8794e7 	cinc	w7, w7, hi  // hi = pmore
    2700:	0b050125 	add	w5, w9, w5
    2704:	b81d4085 	stur	w5, [x4, #-44]
    2708:	6b05013f 	cmp	w9, w5
/home/zrz0517/study/TEE/RT-TEE/optee_os/lib/libmbedtls/mbedtls/library/bignum.c:1211 (discriminator 2)
    270c:	b85d80c5 	ldur	w5, [x6, #-40]
/home/zrz0517/study/TEE/RT-TEE/optee_os/lib/libmbedtls/mbedtls/library/bignum.c:1210 (discriminator 2)
    2710:	1a8794e7 	cinc	w7, w7, hi  // hi = pmore
/home/zrz0517/study/TEE/RT-TEE/optee_os/lib/libmbedtls/mbedtls/library/bignum.c:1211 (discriminator 2)
    2714:	9ba57c65 	umull	x5, w3, w5
    2718:	d360fca9 	lsr	x9, x5, #32
    271c:	0b0500e5 	add	w5, w7, w5
    2720:	6b0500ff 	cmp	w7, w5
    2724:	b85d8087 	ldur	w7, [x4, #-40]
    2728:	1a899529 	cinc	w9, w9, hi  // hi = pmore
    272c:	0b0500e5 	add	w5, w7, w5
    2730:	b81d8085 	stur	w5, [x4, #-40]
    2734:	6b0500ff 	cmp	w7, w5
    2738:	b85dc0c5 	ldur	w5, [x6, #-36]
    273c:	1a899529 	cinc	w9, w9, hi  // hi = pmore
    2740:	9ba57c65 	umull	x5, w3, w5
    2744:	d360fca7 	lsr	x7, x5, #32
    2748:	0b050125 	add	w5, w9, w5
    274c:	6b05013f 	cmp	w9, w5
    2750:	b85dc089 	ldur	w9, [x4, #-36]
    2754:	1a8794e7 	cinc	w7, w7, hi  // hi = pmore
    2758:	0b050125 	add	w5, w9, w5
    275c:	b81dc085 	stur	w5, [x4, #-36]
    2760:	6b05013f 	cmp	w9, w5
/home/zrz0517/study/TEE/RT-TEE/optee_os/lib/libmbedtls/mbedtls/library/bignum.c:1213 (discriminator 2)
    2764:	b85e00c5 	ldur	w5, [x6, #-32]
/home/zrz0517/study/TEE/RT-TEE/optee_os/lib/libmbedtls/mbedtls/library/bignum.c:1211 (discriminator 2)
    2768:	1a8794e7 	cinc	w7, w7, hi  // hi = pmore
/home/zrz0517/study/TEE/RT-TEE/optee_os/lib/libmbedtls/mbedtls/library/bignum.c:1213 (discriminator 2)
    276c:	9ba57c65 	umull	x5, w3, w5
    2770:	d360fca9 	lsr	x9, x5, #32
    2774:	0b0500e5 	add	w5, w7, w5
    2778:	6b0500ff 	cmp	w7, w5
    277c:	b85e0087 	ldur	w7, [x4, #-32]
    2780:	1a899529 	cinc	w9, w9, hi  // hi = pmore
    2784:	0b0500e5 	add	w5, w7, w5
    2788:	b81e0085 	stur	w5, [x4, #-32]
    278c:	6b0500ff 	cmp	w7, w5
    2790:	b85e40c5 	ldur	w5, [x6, #-28]
    2794:	1a899529 	cinc	w9, w9, hi  // hi = pmore
    2798:	9ba57c65 	umull	x5, w3, w5
    279c:	d360fca7 	lsr	x7, x5, #32
    27a0:	0b050125 	add	w5, w9, w5
    27a4:	6b05013f 	cmp	w9, w5
    27a8:	b85e4089 	ldur	w9, [x4, #-28]
    27ac:	1a8794e7 	cinc	w7, w7, hi  // hi = pmore
    27b0:	0b050125 	add	w5, w9, w5
    27b4:	b81e4085 	stur	w5, [x4, #-28]
    27b8:	6b05013f 	cmp	w9, w5
/home/zrz0517/study/TEE/RT-TEE/optee_os/lib/libmbedtls/mbedtls/library/bignum.c:1214 (discriminator 2)
    27bc:	b85e80c5 	ldur	w5, [x6, #-24]
/home/zrz0517/study/TEE/RT-TEE/optee_os/lib/libmbedtls/mbedtls/library/bignum.c:1213 (discriminator 2)
    27c0:	1a8794e7 	cinc	w7, w7, hi  // hi = pmore
/home/zrz0517/study/TEE/RT-TEE/optee_os/lib/libmbedtls/mbedtls/library/bignum.c:1214 (discriminator 2)
    27c4:	9ba57c65 	umull	x5, w3, w5
    27c8:	d360fca9 	lsr	x9, x5, #32
    27cc:	0b0500e5 	add	w5, w7, w5
    27d0:	6b0500ff 	cmp	w7, w5
    27d4:	b85e8087 	ldur	w7, [x4, #-24]
    27d8:	1a899529 	cinc	w9, w9, hi  // hi = pmore
    27dc:	0b0500e5 	add	w5, w7, w5
    27e0:	b81e8085 	stur	w5, [x4, #-24]
    27e4:	6b0500ff 	cmp	w7, w5
    27e8:	b85ec0c5 	ldur	w5, [x6, #-20]
    27ec:	1a899529 	cinc	w9, w9, hi  // hi = pmore
    27f0:	9ba57c65 	umull	x5, w3, w5
    27f4:	d360fca7 	lsr	x7, x5, #32
    27f8:	0b050125 	add	w5, w9, w5
    27fc:	6b05013f 	cmp	w9, w5
    2800:	b85ec089 	ldur	w9, [x4, #-20]
    2804:	1a8794e7 	cinc	w7, w7, hi  // hi = pmore
    2808:	0b050125 	add	w5, w9, w5
    280c:	b81ec085 	stur	w5, [x4, #-20]
    2810:	6b05013f 	cmp	w9, w5
/home/zrz0517/study/TEE/RT-TEE/optee_os/lib/libmbedtls/mbedtls/library/bignum.c:1215 (discriminator 2)
    2814:	b85f00c5 	ldur	w5, [x6, #-16]
/home/zrz0517/study/TEE/RT-TEE/optee_os/lib/libmbedtls/mbedtls/library/bignum.c:1214 (discriminator 2)
    2818:	1a8794e7 	cinc	w7, w7, hi  // hi = pmore
/home/zrz0517/study/TEE/RT-TEE/optee_os/lib/libmbedtls/mbedtls/library/bignum.c:1215 (discriminator 2)
    281c:	9ba57c65 	umull	x5, w3, w5
    2820:	d360fca9 	lsr	x9, x5, #32
    2824:	0b0500e5 	add	w5, w7, w5
    2828:	6b0500ff 	cmp	w7, w5
    282c:	b85f0087 	ldur	w7, [x4, #-16]
    2830:	1a899529 	cinc	w9, w9, hi  // hi = pmore
    2834:	0b0500e5 	add	w5, w7, w5
    2838:	b81f0085 	stur	w5, [x4, #-16]
    283c:	6b0500ff 	cmp	w7, w5
    2840:	b85f40c5 	ldur	w5, [x6, #-12]
    2844:	1a899529 	cinc	w9, w9, hi  // hi = pmore
    2848:	9ba57c65 	umull	x5, w3, w5
    284c:	d360fca7 	lsr	x7, x5, #32
    2850:	0b050125 	add	w5, w9, w5
    2854:	6b05013f 	cmp	w9, w5
    2858:	b85f4089 	ldur	w9, [x4, #-12]
    285c:	1a8794e7 	cinc	w7, w7, hi  // hi = pmore
    2860:	0b050125 	add	w5, w9, w5
    2864:	b81f4085 	stur	w5, [x4, #-12]
    2868:	6b05013f 	cmp	w9, w5
/home/zrz0517/study/TEE/RT-TEE/optee_os/lib/libmbedtls/mbedtls/library/bignum.c:1216 (discriminator 2)
    286c:	b85f80c5 	ldur	w5, [x6, #-8]
/home/zrz0517/study/TEE/RT-TEE/optee_os/lib/libmbedtls/mbedtls/library/bignum.c:1215 (discriminator 2)
    2870:	1a8794e7 	cinc	w7, w7, hi  // hi = pmore
/home/zrz0517/study/TEE/RT-TEE/optee_os/lib/libmbedtls/mbedtls/library/bignum.c:1216 (discriminator 2)
    2874:	9ba57c65 	umull	x5, w3, w5
    2878:	d360fca9 	lsr	x9, x5, #32
    287c:	0b0500e5 	add	w5, w7, w5
    2880:	6b0500ff 	cmp	w7, w5
    2884:	b85f8087 	ldur	w7, [x4, #-8]
    2888:	1a899529 	cinc	w9, w9, hi  // hi = pmore
    288c:	0b0500e5 	add	w5, w7, w5
    2890:	b81f8085 	stur	w5, [x4, #-8]
    2894:	6b0500ff 	cmp	w7, w5
    2898:	b85fc0c7 	ldur	w7, [x6, #-4]
    289c:	1a899529 	cinc	w9, w9, hi  // hi = pmore
    28a0:	9ba77c67 	umull	x7, w3, w7
    28a4:	d360fce5 	lsr	x5, x7, #32
    28a8:	0b070127 	add	w7, w9, w7
    28ac:	6b07013f 	cmp	w9, w7
    28b0:	b85fc089 	ldur	w9, [x4, #-4]
    28b4:	1a8594a5 	cinc	w5, w5, hi  // hi = pmore
    28b8:	0b070127 	add	w7, w9, w7
    28bc:	b81fc087 	stur	w7, [x4, #-4]
    28c0:	6b07013f 	cmp	w9, w7
    28c4:	1a8594a5 	cinc	w5, w5, hi  // hi = pmore
    28c8:	17fffede 	b	2440 <mpi_mul_hlp+0x10>
/home/zrz0517/study/TEE/RT-TEE/optee_os/lib/libmbedtls/mbedtls/library/bignum.c:1234 (discriminator 2)
    28cc:	b86178c2 	ldr	w2, [x6, x1, lsl #2]
    28d0:	9ba27c62 	umull	x2, w3, w2
    28d4:	d360fc47 	lsr	x7, x2, #32
    28d8:	0b0200a2 	add	w2, w5, w2
    28dc:	6b0200bf 	cmp	w5, w2
    28e0:	0b020102 	add	w2, w8, w2
    28e4:	1a8794e5 	cinc	w5, w7, hi  // hi = pmore
    28e8:	6b02011f 	cmp	w8, w2
    28ec:	1a8594a5 	cinc	w5, w5, hi  // hi = pmore
    28f0:	b8217882 	str	w2, [x4, x1, lsl #2]
    28f4:	91000421 	add	x1, x1, #0x1
    28f8:	17ffff38 	b	25d8 <mpi_mul_hlp+0x1a8>
/home/zrz0517/study/TEE/RT-TEE/optee_os/lib/libmbedtls/mbedtls/library/bignum.c:1242
    28fc:	52800025 	mov	w5, #0x1                   	// #1
    2900:	17ffff3a 	b	25e8 <mpi_mul_hlp+0x1b8>

0000000000002904 <mbedtls_mpi_mod_int.part.3>:
mbedtls_mpi_mod_int():
/home/zrz0517/study/TEE/RT-TEE/optee_os/lib/libmbedtls/mbedtls/library/bignum.c:1583
    2904:	79400825 	ldrh	w5, [x1, #4]
    2908:	52800003 	mov	w3, #0x0                   	// #0
    290c:	d10004a5 	sub	x5, x5, #0x1
    2910:	b10004bf 	cmn	x5, #0x1
    2914:	54000101 	b.ne	2934 <mbedtls_mpi_mod_int.part.3+0x30>  // b.any
/home/zrz0517/study/TEE/RT-TEE/optee_os/lib/libmbedtls/mbedtls/library/bignum.c:1600
    2918:	39c00021 	ldrsb	w1, [x1]
    291c:	36f80061 	tbz	w1, #31, 2928 <mbedtls_mpi_mod_int.part.3+0x24>
    2920:	34000043 	cbz	w3, 2928 <mbedtls_mpi_mod_int.part.3+0x24>
/home/zrz0517/study/TEE/RT-TEE/optee_os/lib/libmbedtls/mbedtls/library/bignum.c:1601
    2924:	4b030043 	sub	w3, w2, w3
/home/zrz0517/study/TEE/RT-TEE/optee_os/lib/libmbedtls/mbedtls/library/bignum.c:1603
    2928:	b9000003 	str	w3, [x0]
/home/zrz0517/study/TEE/RT-TEE/optee_os/lib/libmbedtls/mbedtls/library/bignum.c:1606
    292c:	52800000 	mov	w0, #0x0                   	// #0
    2930:	d65f03c0 	ret
/home/zrz0517/study/TEE/RT-TEE/optee_os/lib/libmbedtls/mbedtls/library/bignum.c:1585
    2934:	f9400424 	ldr	x4, [x1, #8]
    2938:	b8657886 	ldr	w6, [x4, x5, lsl #2]
/home/zrz0517/study/TEE/RT-TEE/optee_os/lib/libmbedtls/mbedtls/library/bignum.c:1586
    293c:	13864063 	extr	w3, w3, w6, #16
/home/zrz0517/study/TEE/RT-TEE/optee_os/lib/libmbedtls/mbedtls/library/bignum.c:1591
    2940:	1ac20864 	udiv	w4, w3, w2
    2944:	1b028c83 	msub	w3, w4, w2, w3
    2948:	12003cc4 	and	w4, w6, #0xffff
    294c:	2a034084 	orr	w4, w4, w3, lsl #16
    2950:	1ac20883 	udiv	w3, w4, w2
    2954:	1b029063 	msub	w3, w3, w2, w4
    2958:	17ffffed 	b	290c <mbedtls_mpi_mod_int.part.3+0x8>

000000000000295c <mbedtls_mpi_init>:
mpi_init():
/home/zrz0517/study/TEE/RT-TEE/optee_os/lib/libmbedtls/mbedtls/library/bignum.c:90
    295c:	b40000a0 	cbz	x0, 2970 <mbedtls_mpi_init+0x14>
/home/zrz0517/study/TEE/RT-TEE/optee_os/lib/libmbedtls/mbedtls/library/bignum.c:93
    2960:	52800021 	mov	w1, #0x1                   	// #1
    2964:	b9000001 	str	w1, [x0]
/home/zrz0517/study/TEE/RT-TEE/optee_os/lib/libmbedtls/mbedtls/library/bignum.c:96
    2968:	7900081f 	strh	wzr, [x0, #4]
/home/zrz0517/study/TEE/RT-TEE/optee_os/lib/libmbedtls/mbedtls/library/bignum.c:97
    296c:	f900041f 	str	xzr, [x0, #8]
mbedtls_mpi_init():
/home/zrz0517/study/TEE/RT-TEE/optee_os/lib/libmbedtls/mbedtls/library/bignum.c:103
    2970:	d65f03c0 	ret

0000000000002974 <mbedtls_mpi_init_mempool>:
mbedtls_mpi_init_mempool():
/home/zrz0517/study/TEE/RT-TEE/optee_os/lib/libmbedtls/mbedtls/library/bignum.c:107
    2974:	90000042 	adrp	x2, a000 <__func__.4888+0x13>
/home/zrz0517/study/TEE/RT-TEE/optee_os/lib/libmbedtls/mbedtls/library/bignum.c:106
    2978:	aa0003e1 	mov	x1, x0
/home/zrz0517/study/TEE/RT-TEE/optee_os/lib/libmbedtls/mbedtls/library/bignum.c:107
    297c:	f946ec42 	ldr	x2, [x2, #3544]
    2980:	f9400042 	ldr	x2, [x2]
    2984:	b40000e2 	cbz	x2, 29a0 <mbedtls_mpi_init_mempool+0x2c>
mpi_init():
/home/zrz0517/study/TEE/RT-TEE/optee_os/lib/libmbedtls/mbedtls/library/bignum.c:90
    2988:	b40000a0 	cbz	x0, 299c <mbedtls_mpi_init_mempool+0x28>
/home/zrz0517/study/TEE/RT-TEE/optee_os/lib/libmbedtls/mbedtls/library/bignum.c:93
    298c:	52802020 	mov	w0, #0x101                 	// #257
    2990:	b9000020 	str	w0, [x1]
/home/zrz0517/study/TEE/RT-TEE/optee_os/lib/libmbedtls/mbedtls/library/bignum.c:96
    2994:	7900083f 	strh	wzr, [x1, #4]
/home/zrz0517/study/TEE/RT-TEE/optee_os/lib/libmbedtls/mbedtls/library/bignum.c:97
    2998:	f900043f 	str	xzr, [x1, #8]
mbedtls_mpi_init_mempool():
/home/zrz0517/study/TEE/RT-TEE/optee_os/lib/libmbedtls/mbedtls/library/bignum.c:111
    299c:	d65f03c0 	ret
/home/zrz0517/study/TEE/RT-TEE/optee_os/lib/libmbedtls/mbedtls/library/bignum.c:110
    29a0:	17ffffef 	b	295c <mbedtls_mpi_init>

00000000000029a4 <mbedtls_mpi_init_static>:
mpi_init():
/home/zrz0517/study/TEE/RT-TEE/optee_os/lib/libmbedtls/mbedtls/library/bignum.c:90
    29a4:	b40000e0 	cbz	x0, 29c0 <mbedtls_mpi_init_static+0x1c>
/home/zrz0517/study/TEE/RT-TEE/optee_os/lib/libmbedtls/mbedtls/library/bignum.c:93
    29a8:	39000002 	strb	w2, [x0]
/home/zrz0517/study/TEE/RT-TEE/optee_os/lib/libmbedtls/mbedtls/library/bignum.c:94
    29ac:	52800042 	mov	w2, #0x2                   	// #2
    29b0:	39000402 	strb	w2, [x0, #1]
/home/zrz0517/study/TEE/RT-TEE/optee_os/lib/libmbedtls/mbedtls/library/bignum.c:95
    29b4:	79000403 	strh	w3, [x0, #2]
/home/zrz0517/study/TEE/RT-TEE/optee_os/lib/libmbedtls/mbedtls/library/bignum.c:96
    29b8:	79000804 	strh	w4, [x0, #4]
/home/zrz0517/study/TEE/RT-TEE/optee_os/lib/libmbedtls/mbedtls/library/bignum.c:97
    29bc:	f9000401 	str	x1, [x0, #8]
mbedtls_mpi_init_static():
/home/zrz0517/study/TEE/RT-TEE/optee_os/lib/libmbedtls/mbedtls/library/bignum.c:117
    29c0:	d65f03c0 	ret

00000000000029c4 <mbedtls_mpi_free>:
mbedtls_mpi_free():
/home/zrz0517/study/TEE/RT-TEE/optee_os/lib/libmbedtls/mbedtls/library/bignum.c:124
    29c4:	b4000420 	cbz	x0, 2a48 <mbedtls_mpi_free+0x84>
/home/zrz0517/study/TEE/RT-TEE/optee_os/lib/libmbedtls/mbedtls/library/bignum.c:123
    29c8:	a9be7bfd 	stp	x29, x30, [sp, #-32]!
    29cc:	910003fd 	mov	x29, sp
    29d0:	f9000bf3 	str	x19, [sp, #16]
    29d4:	aa0003f3 	mov	x19, x0
/home/zrz0517/study/TEE/RT-TEE/optee_os/lib/libmbedtls/mbedtls/library/bignum.c:127
    29d8:	f9400400 	ldr	x0, [x0, #8]
    29dc:	b4000140 	cbz	x0, 2a04 <mbedtls_mpi_free+0x40>
/home/zrz0517/study/TEE/RT-TEE/optee_os/lib/libmbedtls/mbedtls/library/bignum.c:129
    29e0:	79400a61 	ldrh	w1, [x19, #4]
    29e4:	aa0003e2 	mov	x2, x0
mbedtls_mpi_zeroize():
/home/zrz0517/study/TEE/RT-TEE/optee_os/lib/libmbedtls/mbedtls/library/bignum.c:65
    29e8:	d1000421 	sub	x1, x1, #0x1
    29ec:	b100043f 	cmn	x1, #0x1
    29f0:	54000161 	b.ne	2a1c <mbedtls_mpi_free+0x58>  // b.any
mbedtls_mpi_free():
/home/zrz0517/study/TEE/RT-TEE/optee_os/lib/libmbedtls/mbedtls/library/bignum.c:130
    29f4:	39400661 	ldrb	w1, [x19, #1]
    29f8:	34000161 	cbz	w1, 2a24 <mbedtls_mpi_free+0x60>
    29fc:	7100043f 	cmp	w1, #0x1
    2a00:	54000180 	b.eq	2a30 <mbedtls_mpi_free+0x6c>  // b.none
/home/zrz0517/study/TEE/RT-TEE/optee_os/lib/libmbedtls/mbedtls/library/bignum.c:144
    2a04:	52800020 	mov	w0, #0x1                   	// #1
    2a08:	39000260 	strb	w0, [x19]
/home/zrz0517/study/TEE/RT-TEE/optee_os/lib/libmbedtls/mbedtls/library/bignum.c:145
    2a0c:	79000a7f 	strh	wzr, [x19, #4]
/home/zrz0517/study/TEE/RT-TEE/optee_os/lib/libmbedtls/mbedtls/library/bignum.c:146
    2a10:	f9400bf3 	ldr	x19, [sp, #16]
    2a14:	a8c27bfd 	ldp	x29, x30, [sp], #32
    2a18:	d65f03c0 	ret
mbedtls_mpi_zeroize():
/home/zrz0517/study/TEE/RT-TEE/optee_os/lib/libmbedtls/mbedtls/library/bignum.c:65
    2a1c:	b800445f 	str	wzr, [x2], #4
    2a20:	17fffff2 	b	29e8 <mbedtls_mpi_free+0x24>
mbedtls_mpi_free():
/home/zrz0517/study/TEE/RT-TEE/optee_os/lib/libmbedtls/mbedtls/library/bignum.c:132
    2a24:	94000f5d 	bl	6798 <free>
/home/zrz0517/study/TEE/RT-TEE/optee_os/lib/libmbedtls/mbedtls/library/bignum.c:137
    2a28:	f900067f 	str	xzr, [x19, #8]
/home/zrz0517/study/TEE/RT-TEE/optee_os/lib/libmbedtls/mbedtls/library/bignum.c:138
    2a2c:	17fffff6 	b	2a04 <mbedtls_mpi_free+0x40>
/home/zrz0517/study/TEE/RT-TEE/optee_os/lib/libmbedtls/mbedtls/library/bignum.c:136
    2a30:	90000042 	adrp	x2, a000 <__func__.4888+0x13>
    2a34:	aa0003e1 	mov	x1, x0
    2a38:	f946ec42 	ldr	x2, [x2, #3544]
    2a3c:	f9400040 	ldr	x0, [x2]
    2a40:	940015e3 	bl	81cc <mempool_free>
    2a44:	17fffff9 	b	2a28 <mbedtls_mpi_free+0x64>
    2a48:	d65f03c0 	ret

0000000000002a4c <mbedtls_mpi_grow>:
mbedtls_mpi_grow():
/home/zrz0517/study/TEE/RT-TEE/optee_os/lib/libmbedtls/mbedtls/library/bignum.c:155
    2a4c:	d284e202 	mov	x2, #0x2710                	// #10000
    2a50:	eb02003f 	cmp	x1, x2
    2a54:	54000109 	b.ls	2a74 <mbedtls_mpi_grow+0x28>  // b.plast
/home/zrz0517/study/TEE/RT-TEE/optee_os/lib/libmbedtls/mbedtls/library/bignum.c:156
    2a58:	128001e0 	mov	w0, #0xfffffff0            	// #-16
/home/zrz0517/study/TEE/RT-TEE/optee_os/lib/libmbedtls/mbedtls/library/bignum.c:196
    2a5c:	d65f03c0 	ret
/home/zrz0517/study/TEE/RT-TEE/optee_os/lib/libmbedtls/mbedtls/library/bignum.c:156
    2a60:	128001e0 	mov	w0, #0xfffffff0            	// #-16
/home/zrz0517/study/TEE/RT-TEE/optee_os/lib/libmbedtls/mbedtls/library/bignum.c:196
    2a64:	a94153f3 	ldp	x19, x20, [sp, #16]
    2a68:	f94013f5 	ldr	x21, [sp, #32]
    2a6c:	a8c37bfd 	ldp	x29, x30, [sp], #48
    2a70:	d65f03c0 	ret
/home/zrz0517/study/TEE/RT-TEE/optee_os/lib/libmbedtls/mbedtls/library/bignum.c:152
    2a74:	a9bd7bfd 	stp	x29, x30, [sp, #-48]!
    2a78:	910003fd 	mov	x29, sp
/home/zrz0517/study/TEE/RT-TEE/optee_os/lib/libmbedtls/mbedtls/library/bignum.c:158
    2a7c:	79400804 	ldrh	w4, [x0, #4]
/home/zrz0517/study/TEE/RT-TEE/optee_os/lib/libmbedtls/mbedtls/library/bignum.c:152
    2a80:	a90153f3 	stp	x19, x20, [sp, #16]
    2a84:	aa0103f4 	mov	x20, x1
/home/zrz0517/study/TEE/RT-TEE/optee_os/lib/libmbedtls/mbedtls/library/bignum.c:158
    2a88:	92403c82 	and	x2, x4, #0xffff
/home/zrz0517/study/TEE/RT-TEE/optee_os/lib/libmbedtls/mbedtls/library/bignum.c:152
    2a8c:	f90013f5 	str	x21, [sp, #32]
/home/zrz0517/study/TEE/RT-TEE/optee_os/lib/libmbedtls/mbedtls/library/bignum.c:158
    2a90:	eb01005f 	cmp	x2, x1
    2a94:	54000542 	b.cs	2b3c <mbedtls_mpi_grow+0xf0>  // b.hs, b.nlast
/home/zrz0517/study/TEE/RT-TEE/optee_os/lib/libmbedtls/mbedtls/library/bignum.c:161
    2a98:	39400403 	ldrb	w3, [x0, #1]
    2a9c:	aa0003f3 	mov	x19, x0
    2aa0:	7100047f 	cmp	w3, #0x1
    2aa4:	540002c0 	b.eq	2afc <mbedtls_mpi_grow+0xb0>  // b.none
    2aa8:	340000a3 	cbz	w3, 2abc <mbedtls_mpi_grow+0x70>
    2aac:	7100087f 	cmp	w3, #0x2
    2ab0:	54000320 	b.eq	2b14 <mbedtls_mpi_grow+0xc8>  // b.none
/home/zrz0517/study/TEE/RT-TEE/optee_os/lib/libmbedtls/mbedtls/library/bignum.c:174
    2ab4:	12800060 	mov	w0, #0xfffffffc            	// #-4
    2ab8:	17ffffeb 	b	2a64 <mbedtls_mpi_grow+0x18>
/home/zrz0517/study/TEE/RT-TEE/optee_os/lib/libmbedtls/mbedtls/library/bignum.c:163
    2abc:	d2800081 	mov	x1, #0x4                   	// #4
    2ac0:	aa1403e0 	mov	x0, x20
    2ac4:	94000f3a 	bl	67ac <calloc>
/home/zrz0517/study/TEE/RT-TEE/optee_os/lib/libmbedtls/mbedtls/library/bignum.c:166
    2ac8:	aa0003f5 	mov	x21, x0
/home/zrz0517/study/TEE/RT-TEE/optee_os/lib/libmbedtls/mbedtls/library/bignum.c:177
    2acc:	b4fffca0 	cbz	x0, 2a60 <mbedtls_mpi_grow+0x14>
/home/zrz0517/study/TEE/RT-TEE/optee_os/lib/libmbedtls/mbedtls/library/bignum.c:180
    2ad0:	f9400661 	ldr	x1, [x19, #8]
    2ad4:	b5000381 	cbnz	x1, 2b44 <mbedtls_mpi_grow+0xf8>
/home/zrz0517/study/TEE/RT-TEE/optee_os/lib/libmbedtls/mbedtls/library/bignum.c:186
    2ad8:	39400661 	ldrb	w1, [x19, #1]
    2adc:	f9400660 	ldr	x0, [x19, #8]
    2ae0:	34000461 	cbz	w1, 2b6c <mbedtls_mpi_grow+0x120>
/home/zrz0517/study/TEE/RT-TEE/optee_os/lib/libmbedtls/mbedtls/library/bignum.c:189
    2ae4:	90000043 	adrp	x3, a000 <__func__.4888+0x13>
    2ae8:	aa0003e1 	mov	x1, x0
    2aec:	f946ec63 	ldr	x3, [x3, #3544]
    2af0:	f9400060 	ldr	x0, [x3]
    2af4:	940015b6 	bl	81cc <mempool_free>
    2af8:	1400001e 	b	2b70 <mbedtls_mpi_grow+0x124>
/home/zrz0517/study/TEE/RT-TEE/optee_os/lib/libmbedtls/mbedtls/library/bignum.c:166
    2afc:	90000043 	adrp	x3, a000 <__func__.4888+0x13>
    2b00:	d2800082 	mov	x2, #0x4                   	// #4
    2b04:	f946ec63 	ldr	x3, [x3, #3544]
    2b08:	f9400060 	ldr	x0, [x3]
    2b0c:	9400159c 	bl	817c <mempool_calloc>
    2b10:	17ffffee 	b	2ac8 <mbedtls_mpi_grow+0x7c>
/home/zrz0517/study/TEE/RT-TEE/optee_os/lib/libmbedtls/mbedtls/library/bignum.c:169
    2b14:	79400400 	ldrh	w0, [x0, #2]
    2b18:	eb01001f 	cmp	x0, x1
    2b1c:	54fffa23 	b.cc	2a60 <mbedtls_mpi_grow+0x14>  // b.lo, b.ul, b.last
/home/zrz0517/study/TEE/RT-TEE/optee_os/lib/libmbedtls/mbedtls/library/bignum.c:171
    2b20:	f9400660 	ldr	x0, [x19, #8]
    2b24:	cb020022 	sub	x2, x1, x2
    2b28:	52800001 	mov	w1, #0x0                   	// #0
    2b2c:	d37ef442 	lsl	x2, x2, #2
    2b30:	8b242800 	add	x0, x0, w4, uxth #2
    2b34:	94001166 	bl	70cc <memset>
/home/zrz0517/study/TEE/RT-TEE/optee_os/lib/libmbedtls/mbedtls/library/bignum.c:193
    2b38:	79000a74 	strh	w20, [x19, #4]
/home/zrz0517/study/TEE/RT-TEE/optee_os/lib/libmbedtls/mbedtls/library/bignum.c:159
    2b3c:	52800000 	mov	w0, #0x0                   	// #0
    2b40:	17ffffc9 	b	2a64 <mbedtls_mpi_grow+0x18>
/home/zrz0517/study/TEE/RT-TEE/optee_os/lib/libmbedtls/mbedtls/library/bignum.c:181
    2b44:	79400a62 	ldrh	w2, [x19, #4]
    2b48:	d37ef442 	lsl	x2, x2, #2
    2b4c:	94001141 	bl	7050 <memcpy>
/home/zrz0517/study/TEE/RT-TEE/optee_os/lib/libmbedtls/mbedtls/library/bignum.c:182
    2b50:	79400a61 	ldrh	w1, [x19, #4]
    2b54:	f9400660 	ldr	x0, [x19, #8]
mbedtls_mpi_zeroize():
/home/zrz0517/study/TEE/RT-TEE/optee_os/lib/libmbedtls/mbedtls/library/bignum.c:65
    2b58:	d1000421 	sub	x1, x1, #0x1
    2b5c:	b100043f 	cmn	x1, #0x1
    2b60:	54fffbc0 	b.eq	2ad8 <mbedtls_mpi_grow+0x8c>  // b.none
    2b64:	b800441f 	str	wzr, [x0], #4
    2b68:	17fffffc 	b	2b58 <mbedtls_mpi_grow+0x10c>
mbedtls_mpi_grow():
/home/zrz0517/study/TEE/RT-TEE/optee_os/lib/libmbedtls/mbedtls/library/bignum.c:187
    2b6c:	94000f0b 	bl	6798 <free>
/home/zrz0517/study/TEE/RT-TEE/optee_os/lib/libmbedtls/mbedtls/library/bignum.c:191
    2b70:	f9000675 	str	x21, [x19, #8]
    2b74:	17fffff1 	b	2b38 <mbedtls_mpi_grow+0xec>

0000000000002b78 <mbedtls_mpi_shrink>:
mbedtls_mpi_shrink():
/home/zrz0517/study/TEE/RT-TEE/optee_os/lib/libmbedtls/mbedtls/library/bignum.c:208
    2b78:	79400802 	ldrh	w2, [x0, #4]
    2b7c:	92403c44 	and	x4, x2, #0xffff
    2b80:	eb01009f 	cmp	x4, x1
    2b84:	54000048 	b.hi	2b8c <mbedtls_mpi_shrink+0x14>  // b.pmore
/home/zrz0517/study/TEE/RT-TEE/optee_os/lib/libmbedtls/mbedtls/library/bignum.c:209
    2b88:	17ffffb1 	b	2a4c <mbedtls_mpi_grow>
/home/zrz0517/study/TEE/RT-TEE/optee_os/lib/libmbedtls/mbedtls/library/bignum.c:203
    2b8c:	a9bd7bfd 	stp	x29, x30, [sp, #-48]!
/home/zrz0517/study/TEE/RT-TEE/optee_os/lib/libmbedtls/mbedtls/library/bignum.c:211
    2b90:	51000442 	sub	w2, w2, #0x1
    2b94:	aa0103e3 	mov	x3, x1
/home/zrz0517/study/TEE/RT-TEE/optee_os/lib/libmbedtls/mbedtls/library/bignum.c:203
    2b98:	910003fd 	mov	x29, sp
/home/zrz0517/study/TEE/RT-TEE/optee_os/lib/libmbedtls/mbedtls/library/bignum.c:211
    2b9c:	93407c42 	sxtw	x2, w2
/home/zrz0517/study/TEE/RT-TEE/optee_os/lib/libmbedtls/mbedtls/library/bignum.c:203
    2ba0:	a90153f3 	stp	x19, x20, [sp, #16]
    2ba4:	aa0003f3 	mov	x19, x0
    2ba8:	f90013f5 	str	x21, [sp, #32]
/home/zrz0517/study/TEE/RT-TEE/optee_os/lib/libmbedtls/mbedtls/library/bignum.c:211 (discriminator 1)
    2bac:	b5000202 	cbnz	x2, 2bec <mbedtls_mpi_shrink+0x74>
/home/zrz0517/study/TEE/RT-TEE/optee_os/lib/libmbedtls/mbedtls/library/bignum.c:214
    2bb0:	91000442 	add	x2, x2, #0x1
/home/zrz0517/study/TEE/RT-TEE/optee_os/lib/libmbedtls/mbedtls/library/bignum.c:219
    2bb4:	39400661 	ldrb	w1, [x19, #1]
    2bb8:	eb02007f 	cmp	x3, x2
    2bbc:	aa0303e0 	mov	x0, x3
/home/zrz0517/study/TEE/RT-TEE/optee_os/lib/libmbedtls/mbedtls/library/bignum.c:216
    2bc0:	9a822074 	csel	x20, x3, x2, cs  // cs = hs, nlast
/home/zrz0517/study/TEE/RT-TEE/optee_os/lib/libmbedtls/mbedtls/library/bignum.c:219
    2bc4:	7100043f 	cmp	w1, #0x1
    2bc8:	54000400 	b.eq	2c48 <mbedtls_mpi_shrink+0xd0>  // b.none
    2bcc:	340001a1 	cbz	w1, 2c00 <mbedtls_mpi_shrink+0x88>
    2bd0:	7100083f 	cmp	w1, #0x2
    2bd4:	54000480 	b.eq	2c64 <mbedtls_mpi_shrink+0xec>  // b.none
/home/zrz0517/study/TEE/RT-TEE/optee_os/lib/libmbedtls/mbedtls/library/bignum.c:233
    2bd8:	12800060 	mov	w0, #0xfffffffc            	// #-4
/home/zrz0517/study/TEE/RT-TEE/optee_os/lib/libmbedtls/mbedtls/library/bignum.c:252
    2bdc:	a94153f3 	ldp	x19, x20, [sp, #16]
    2be0:	f94013f5 	ldr	x21, [sp, #32]
    2be4:	a8c37bfd 	ldp	x29, x30, [sp], #48
    2be8:	d65f03c0 	ret
/home/zrz0517/study/TEE/RT-TEE/optee_os/lib/libmbedtls/mbedtls/library/bignum.c:212
    2bec:	f9400660 	ldr	x0, [x19, #8]
    2bf0:	b8627800 	ldr	w0, [x0, x2, lsl #2]
    2bf4:	35fffde0 	cbnz	w0, 2bb0 <mbedtls_mpi_shrink+0x38>
/home/zrz0517/study/TEE/RT-TEE/optee_os/lib/libmbedtls/mbedtls/library/bignum.c:211 (discriminator 2)
    2bf8:	d1000442 	sub	x2, x2, #0x1
    2bfc:	17ffffec 	b	2bac <mbedtls_mpi_shrink+0x34>
/home/zrz0517/study/TEE/RT-TEE/optee_os/lib/libmbedtls/mbedtls/library/bignum.c:221
    2c00:	d2800081 	mov	x1, #0x4                   	// #4
    2c04:	94000eea 	bl	67ac <calloc>
/home/zrz0517/study/TEE/RT-TEE/optee_os/lib/libmbedtls/mbedtls/library/bignum.c:237
    2c08:	f9400661 	ldr	x1, [x19, #8]
/home/zrz0517/study/TEE/RT-TEE/optee_os/lib/libmbedtls/mbedtls/library/bignum.c:224
    2c0c:	aa0003f5 	mov	x21, x0
/home/zrz0517/study/TEE/RT-TEE/optee_os/lib/libmbedtls/mbedtls/library/bignum.c:237
    2c10:	b4000181 	cbz	x1, 2c40 <mbedtls_mpi_shrink+0xc8>
/home/zrz0517/study/TEE/RT-TEE/optee_os/lib/libmbedtls/mbedtls/library/bignum.c:239
    2c14:	d37ef682 	lsl	x2, x20, #2
    2c18:	9400110e 	bl	7050 <memcpy>
/home/zrz0517/study/TEE/RT-TEE/optee_os/lib/libmbedtls/mbedtls/library/bignum.c:240
    2c1c:	f9400660 	ldr	x0, [x19, #8]
    2c20:	79400a61 	ldrh	w1, [x19, #4]
mbedtls_mpi_zeroize():
/home/zrz0517/study/TEE/RT-TEE/optee_os/lib/libmbedtls/mbedtls/library/bignum.c:65
    2c24:	aa0003e2 	mov	x2, x0
    2c28:	d1000421 	sub	x1, x1, #0x1
    2c2c:	b100043f 	cmn	x1, #0x1
    2c30:	54000361 	b.ne	2c9c <mbedtls_mpi_shrink+0x124>  // b.any
mbedtls_mpi_shrink():
/home/zrz0517/study/TEE/RT-TEE/optee_os/lib/libmbedtls/mbedtls/library/bignum.c:241
    2c34:	39400661 	ldrb	w1, [x19, #1]
    2c38:	35000361 	cbnz	w1, 2ca4 <mbedtls_mpi_shrink+0x12c>
/home/zrz0517/study/TEE/RT-TEE/optee_os/lib/libmbedtls/mbedtls/library/bignum.c:242
    2c3c:	94000ed7 	bl	6798 <free>
/home/zrz0517/study/TEE/RT-TEE/optee_os/lib/libmbedtls/mbedtls/library/bignum.c:247
    2c40:	f9000675 	str	x21, [x19, #8]
    2c44:	14000011 	b	2c88 <mbedtls_mpi_shrink+0x110>
/home/zrz0517/study/TEE/RT-TEE/optee_os/lib/libmbedtls/mbedtls/library/bignum.c:224
    2c48:	90000043 	adrp	x3, a000 <__func__.4888+0x13>
    2c4c:	aa0003e1 	mov	x1, x0
    2c50:	d2800082 	mov	x2, #0x4                   	// #4
    2c54:	f946ec63 	ldr	x3, [x3, #3544]
    2c58:	f9400060 	ldr	x0, [x3]
    2c5c:	94001548 	bl	817c <mempool_calloc>
    2c60:	17ffffea 	b	2c08 <mbedtls_mpi_shrink+0x90>
/home/zrz0517/study/TEE/RT-TEE/optee_os/lib/libmbedtls/mbedtls/library/bignum.c:227
    2c64:	79400661 	ldrh	w1, [x19, #2]
    2c68:	eb03003f 	cmp	x1, x3
    2c6c:	54000283 	b.cc	2cbc <mbedtls_mpi_shrink+0x144>  // b.lo, b.ul, b.last
/home/zrz0517/study/TEE/RT-TEE/optee_os/lib/libmbedtls/mbedtls/library/bignum.c:229
    2c70:	f9400660 	ldr	x0, [x19, #8]
    2c74:	cb140081 	sub	x1, x4, x20
    2c78:	8b140800 	add	x0, x0, x20, lsl #2
mbedtls_mpi_zeroize():
/home/zrz0517/study/TEE/RT-TEE/optee_os/lib/libmbedtls/mbedtls/library/bignum.c:65
    2c7c:	d1000421 	sub	x1, x1, #0x1
    2c80:	b100043f 	cmn	x1, #0x1
    2c84:	54000081 	b.ne	2c94 <mbedtls_mpi_shrink+0x11c>  // b.any
mbedtls_mpi_shrink():
/home/zrz0517/study/TEE/RT-TEE/optee_os/lib/libmbedtls/mbedtls/library/bignum.c:251
    2c88:	52800000 	mov	w0, #0x0                   	// #0
/home/zrz0517/study/TEE/RT-TEE/optee_os/lib/libmbedtls/mbedtls/library/bignum.c:249
    2c8c:	79000a74 	strh	w20, [x19, #4]
/home/zrz0517/study/TEE/RT-TEE/optee_os/lib/libmbedtls/mbedtls/library/bignum.c:251
    2c90:	17ffffd3 	b	2bdc <mbedtls_mpi_shrink+0x64>
mbedtls_mpi_zeroize():
/home/zrz0517/study/TEE/RT-TEE/optee_os/lib/libmbedtls/mbedtls/library/bignum.c:65
    2c94:	b800441f 	str	wzr, [x0], #4
    2c98:	17fffff9 	b	2c7c <mbedtls_mpi_shrink+0x104>
    2c9c:	b800445f 	str	wzr, [x2], #4
    2ca0:	17ffffe2 	b	2c28 <mbedtls_mpi_shrink+0xb0>
mbedtls_mpi_shrink():
/home/zrz0517/study/TEE/RT-TEE/optee_os/lib/libmbedtls/mbedtls/library/bignum.c:244
    2ca4:	90000043 	adrp	x3, a000 <__func__.4888+0x13>
    2ca8:	aa0003e1 	mov	x1, x0
    2cac:	f946ec63 	ldr	x3, [x3, #3544]
    2cb0:	f9400060 	ldr	x0, [x3]
    2cb4:	94001546 	bl	81cc <mempool_free>
    2cb8:	17ffffe2 	b	2c40 <mbedtls_mpi_shrink+0xc8>
/home/zrz0517/study/TEE/RT-TEE/optee_os/lib/libmbedtls/mbedtls/library/bignum.c:228
    2cbc:	128001e0 	mov	w0, #0xfffffff0            	// #-16
    2cc0:	17ffffc7 	b	2bdc <mbedtls_mpi_shrink+0x64>

0000000000002cc4 <mbedtls_mpi_copy>:
mbedtls_mpi_copy():
/home/zrz0517/study/TEE/RT-TEE/optee_os/lib/libmbedtls/mbedtls/library/bignum.c:258
    2cc4:	a9bd7bfd 	stp	x29, x30, [sp, #-48]!
/home/zrz0517/study/TEE/RT-TEE/optee_os/lib/libmbedtls/mbedtls/library/bignum.c:262
    2cc8:	eb01001f 	cmp	x0, x1
/home/zrz0517/study/TEE/RT-TEE/optee_os/lib/libmbedtls/mbedtls/library/bignum.c:258
    2ccc:	910003fd 	mov	x29, sp
    2cd0:	a90153f3 	stp	x19, x20, [sp, #16]
    2cd4:	a9025bf5 	stp	x21, x22, [sp, #32]
/home/zrz0517/study/TEE/RT-TEE/optee_os/lib/libmbedtls/mbedtls/library/bignum.c:262
    2cd8:	540000a0 	b.eq	2cec <mbedtls_mpi_copy+0x28>  // b.none
    2cdc:	aa0103f5 	mov	x21, x1
/home/zrz0517/study/TEE/RT-TEE/optee_os/lib/libmbedtls/mbedtls/library/bignum.c:265
    2ce0:	f9400421 	ldr	x1, [x1, #8]
    2ce4:	b5000081 	cbnz	x1, 2cf4 <mbedtls_mpi_copy+0x30>
/home/zrz0517/study/TEE/RT-TEE/optee_os/lib/libmbedtls/mbedtls/library/bignum.c:267
    2ce8:	97ffff37 	bl	29c4 <mbedtls_mpi_free>
/home/zrz0517/study/TEE/RT-TEE/optee_os/lib/libmbedtls/mbedtls/library/bignum.c:263
    2cec:	52800016 	mov	w22, #0x0                   	// #0
    2cf0:	14000017 	b	2d4c <mbedtls_mpi_copy+0x88>
/home/zrz0517/study/TEE/RT-TEE/optee_os/lib/libmbedtls/mbedtls/library/bignum.c:271
    2cf4:	79400aa2 	ldrh	w2, [x21, #4]
    2cf8:	aa0003f4 	mov	x20, x0
    2cfc:	51000442 	sub	w2, w2, #0x1
    2d00:	93407c42 	sxtw	x2, w2
/home/zrz0517/study/TEE/RT-TEE/optee_os/lib/libmbedtls/mbedtls/library/bignum.c:271 (discriminator 1)
    2d04:	b50002e2 	cbnz	x2, 2d60 <mbedtls_mpi_copy+0x9c>
/home/zrz0517/study/TEE/RT-TEE/optee_os/lib/libmbedtls/mbedtls/library/bignum.c:276
    2d08:	39c002a0 	ldrsb	w0, [x21]
/home/zrz0517/study/TEE/RT-TEE/optee_os/lib/libmbedtls/mbedtls/library/bignum.c:274
    2d0c:	91000453 	add	x19, x2, #0x1
/home/zrz0517/study/TEE/RT-TEE/optee_os/lib/libmbedtls/mbedtls/library/bignum.c:276
    2d10:	39000280 	strb	w0, [x20]
/home/zrz0517/study/TEE/RT-TEE/optee_os/lib/libmbedtls/mbedtls/library/bignum.c:278
    2d14:	aa1303e1 	mov	x1, x19
    2d18:	aa1403e0 	mov	x0, x20
    2d1c:	97ffff4c 	bl	2a4c <mbedtls_mpi_grow>
    2d20:	2a0003f6 	mov	w22, w0
    2d24:	35000140 	cbnz	w0, 2d4c <mbedtls_mpi_copy+0x88>
/home/zrz0517/study/TEE/RT-TEE/optee_os/lib/libmbedtls/mbedtls/library/bignum.c:280
    2d28:	f9400680 	ldr	x0, [x20, #8]
    2d2c:	52800001 	mov	w1, #0x0                   	// #0
    2d30:	79400a82 	ldrh	w2, [x20, #4]
    2d34:	d37ef442 	lsl	x2, x2, #2
    2d38:	940010e5 	bl	70cc <memset>
/home/zrz0517/study/TEE/RT-TEE/optee_os/lib/libmbedtls/mbedtls/library/bignum.c:281
    2d3c:	f9400680 	ldr	x0, [x20, #8]
    2d40:	d37ef662 	lsl	x2, x19, #2
    2d44:	f94006a1 	ldr	x1, [x21, #8]
    2d48:	940010c2 	bl	7050 <memcpy>
/home/zrz0517/study/TEE/RT-TEE/optee_os/lib/libmbedtls/mbedtls/library/bignum.c:286
    2d4c:	2a1603e0 	mov	w0, w22
    2d50:	a94153f3 	ldp	x19, x20, [sp, #16]
    2d54:	a9425bf5 	ldp	x21, x22, [sp, #32]
    2d58:	a8c37bfd 	ldp	x29, x30, [sp], #48
    2d5c:	d65f03c0 	ret
/home/zrz0517/study/TEE/RT-TEE/optee_os/lib/libmbedtls/mbedtls/library/bignum.c:272
    2d60:	b8627820 	ldr	w0, [x1, x2, lsl #2]
    2d64:	35fffd20 	cbnz	w0, 2d08 <mbedtls_mpi_copy+0x44>
/home/zrz0517/study/TEE/RT-TEE/optee_os/lib/libmbedtls/mbedtls/library/bignum.c:271 (discriminator 2)
    2d68:	d1000442 	sub	x2, x2, #0x1
    2d6c:	17ffffe6 	b	2d04 <mbedtls_mpi_copy+0x40>

0000000000002d70 <mbedtls_mpi_swap>:
mbedtls_mpi_swap():
/home/zrz0517/study/TEE/RT-TEE/optee_os/lib/libmbedtls/mbedtls/library/bignum.c:292
    2d70:	a9bc7bfd 	stp	x29, x30, [sp, #-64]!
    2d74:	910003fd 	mov	x29, sp
    2d78:	a90153f3 	stp	x19, x20, [sp, #16]
/home/zrz0517/study/TEE/RT-TEE/optee_os/lib/libmbedtls/mbedtls/library/bignum.c:295
    2d7c:	9100c3f3 	add	x19, sp, #0x30
    2d80:	d2800214 	mov	x20, #0x10                  	// #16
    2d84:	aa1403e2 	mov	x2, x20
/home/zrz0517/study/TEE/RT-TEE/optee_os/lib/libmbedtls/mbedtls/library/bignum.c:292
    2d88:	a9025bf5 	stp	x21, x22, [sp, #32]
    2d8c:	aa0103f5 	mov	x21, x1
    2d90:	aa0003f6 	mov	x22, x0
/home/zrz0517/study/TEE/RT-TEE/optee_os/lib/libmbedtls/mbedtls/library/bignum.c:295
    2d94:	aa0003e1 	mov	x1, x0
    2d98:	aa1303e0 	mov	x0, x19
    2d9c:	940010ad 	bl	7050 <memcpy>
/home/zrz0517/study/TEE/RT-TEE/optee_os/lib/libmbedtls/mbedtls/library/bignum.c:296
    2da0:	aa1403e2 	mov	x2, x20
    2da4:	aa1503e1 	mov	x1, x21
    2da8:	aa1603e0 	mov	x0, x22
    2dac:	940010a9 	bl	7050 <memcpy>
/home/zrz0517/study/TEE/RT-TEE/optee_os/lib/libmbedtls/mbedtls/library/bignum.c:297
    2db0:	aa1403e2 	mov	x2, x20
    2db4:	aa1303e1 	mov	x1, x19
    2db8:	aa1503e0 	mov	x0, x21
    2dbc:	940010a5 	bl	7050 <memcpy>
/home/zrz0517/study/TEE/RT-TEE/optee_os/lib/libmbedtls/mbedtls/library/bignum.c:298
    2dc0:	a94153f3 	ldp	x19, x20, [sp, #16]
    2dc4:	a9425bf5 	ldp	x21, x22, [sp, #32]
    2dc8:	a8c47bfd 	ldp	x29, x30, [sp], #64
    2dcc:	d65f03c0 	ret

0000000000002dd0 <mbedtls_mpi_safe_cond_assign>:
mbedtls_mpi_safe_cond_assign():
/home/zrz0517/study/TEE/RT-TEE/optee_os/lib/libmbedtls/mbedtls/library/bignum.c:306
    2dd0:	a9bd7bfd 	stp	x29, x30, [sp, #-48]!
    2dd4:	910003fd 	mov	x29, sp
    2dd8:	f90013f5 	str	x21, [sp, #32]
    2ddc:	aa0103f5 	mov	x21, x1
/home/zrz0517/study/TEE/RT-TEE/optee_os/lib/libmbedtls/mbedtls/library/bignum.c:313
    2de0:	79400821 	ldrh	w1, [x1, #4]
/home/zrz0517/study/TEE/RT-TEE/optee_os/lib/libmbedtls/mbedtls/library/bignum.c:306
    2de4:	a90153f3 	stp	x19, x20, [sp, #16]
    2de8:	aa0003f4 	mov	x20, x0
    2dec:	12001c53 	and	w19, w2, #0xff
/home/zrz0517/study/TEE/RT-TEE/optee_os/lib/libmbedtls/mbedtls/library/bignum.c:313
    2df0:	97ffff17 	bl	2a4c <mbedtls_mpi_grow>
    2df4:	35000240 	cbnz	w0, 2e3c <mbedtls_mpi_safe_cond_assign+0x6c>
/home/zrz0517/study/TEE/RT-TEE/optee_os/lib/libmbedtls/mbedtls/library/bignum.c:311
    2df8:	4b1303e2 	neg	w2, w19
/home/zrz0517/study/TEE/RT-TEE/optee_os/lib/libmbedtls/mbedtls/library/bignum.c:315
    2dfc:	394002a4 	ldrb	w4, [x21]
/home/zrz0517/study/TEE/RT-TEE/optee_os/lib/libmbedtls/mbedtls/library/bignum.c:311
    2e00:	2a020262 	orr	w2, w19, w2
/home/zrz0517/study/TEE/RT-TEE/optee_os/lib/libmbedtls/mbedtls/library/bignum.c:315
    2e04:	39400281 	ldrb	w1, [x20]
    2e08:	52800023 	mov	w3, #0x1                   	// #1
/home/zrz0517/study/TEE/RT-TEE/optee_os/lib/libmbedtls/mbedtls/library/bignum.c:311
    2e0c:	d3471c42 	ubfx	x2, x2, #7, #1
/home/zrz0517/study/TEE/RT-TEE/optee_os/lib/libmbedtls/mbedtls/library/bignum.c:315
    2e10:	4b020063 	sub	w3, w3, w2
    2e14:	1b047c44 	mul	w4, w2, w4
    2e18:	1b011061 	madd	w1, w3, w1, w4
    2e1c:	39000281 	strb	w1, [x20]
/home/zrz0517/study/TEE/RT-TEE/optee_os/lib/libmbedtls/mbedtls/library/bignum.c:317
    2e20:	d2800004 	mov	x4, #0x0                   	// #0
    2e24:	79400aa1 	ldrh	w1, [x21, #4]
/home/zrz0517/study/TEE/RT-TEE/optee_os/lib/libmbedtls/mbedtls/library/bignum.c:317 (discriminator 1)
    2e28:	eb04003f 	cmp	x1, x4
    2e2c:	54000108 	b.hi	2e4c <mbedtls_mpi_safe_cond_assign+0x7c>  // b.pmore
/home/zrz0517/study/TEE/RT-TEE/optee_os/lib/libmbedtls/mbedtls/library/bignum.c:320
    2e30:	79400a86 	ldrh	w6, [x20, #4]
/home/zrz0517/study/TEE/RT-TEE/optee_os/lib/libmbedtls/mbedtls/library/bignum.c:320 (discriminator 1)
    2e34:	eb0100df 	cmp	x6, x1
    2e38:	540001e8 	b.hi	2e74 <mbedtls_mpi_safe_cond_assign+0xa4>  // b.pmore
/home/zrz0517/study/TEE/RT-TEE/optee_os/lib/libmbedtls/mbedtls/library/bignum.c:325
    2e3c:	a94153f3 	ldp	x19, x20, [sp, #16]
    2e40:	f94013f5 	ldr	x21, [sp, #32]
    2e44:	a8c37bfd 	ldp	x29, x30, [sp], #48
    2e48:	d65f03c0 	ret
/home/zrz0517/study/TEE/RT-TEE/optee_os/lib/libmbedtls/mbedtls/library/bignum.c:318 (discriminator 3)
    2e4c:	f9400688 	ldr	x8, [x20, #8]
    2e50:	d37ef485 	lsl	x5, x4, #2
    2e54:	f94006a6 	ldr	x6, [x21, #8]
/home/zrz0517/study/TEE/RT-TEE/optee_os/lib/libmbedtls/mbedtls/library/bignum.c:317 (discriminator 3)
    2e58:	91000484 	add	x4, x4, #0x1
/home/zrz0517/study/TEE/RT-TEE/optee_os/lib/libmbedtls/mbedtls/library/bignum.c:318 (discriminator 3)
    2e5c:	b8656907 	ldr	w7, [x8, x5]
    2e60:	b86568c6 	ldr	w6, [x6, x5]
    2e64:	1b077c67 	mul	w7, w3, w7
    2e68:	1b061c46 	madd	w6, w2, w6, w7
    2e6c:	b8256906 	str	w6, [x8, x5]
    2e70:	17ffffee 	b	2e28 <mbedtls_mpi_safe_cond_assign+0x58>
/home/zrz0517/study/TEE/RT-TEE/optee_os/lib/libmbedtls/mbedtls/library/bignum.c:321 (discriminator 2)
    2e74:	f9400685 	ldr	x5, [x20, #8]
    2e78:	d37ef424 	lsl	x4, x1, #2
/home/zrz0517/study/TEE/RT-TEE/optee_os/lib/libmbedtls/mbedtls/library/bignum.c:320 (discriminator 2)
    2e7c:	91000421 	add	x1, x1, #0x1
/home/zrz0517/study/TEE/RT-TEE/optee_os/lib/libmbedtls/mbedtls/library/bignum.c:321 (discriminator 2)
    2e80:	b86468a2 	ldr	w2, [x5, x4]
    2e84:	1b037c42 	mul	w2, w2, w3
    2e88:	b82468a2 	str	w2, [x5, x4]
    2e8c:	17ffffea 	b	2e34 <mbedtls_mpi_safe_cond_assign+0x64>

0000000000002e90 <mbedtls_mpi_safe_cond_swap>:
mbedtls_mpi_safe_cond_swap():
/home/zrz0517/study/TEE/RT-TEE/optee_os/lib/libmbedtls/mbedtls/library/bignum.c:339
    2e90:	eb01001f 	cmp	x0, x1
    2e94:	54000061 	b.ne	2ea0 <mbedtls_mpi_safe_cond_swap+0x10>  // b.any
/home/zrz0517/study/TEE/RT-TEE/optee_os/lib/libmbedtls/mbedtls/library/bignum.c:340
    2e98:	52800000 	mov	w0, #0x0                   	// #0
/home/zrz0517/study/TEE/RT-TEE/optee_os/lib/libmbedtls/mbedtls/library/bignum.c:362
    2e9c:	d65f03c0 	ret
/home/zrz0517/study/TEE/RT-TEE/optee_os/lib/libmbedtls/mbedtls/library/bignum.c:334
    2ea0:	a9bd7bfd 	stp	x29, x30, [sp, #-48]!
    2ea4:	910003fd 	mov	x29, sp
    2ea8:	a90153f3 	stp	x19, x20, [sp, #16]
    2eac:	aa0103f4 	mov	x20, x1
/home/zrz0517/study/TEE/RT-TEE/optee_os/lib/libmbedtls/mbedtls/library/bignum.c:345
    2eb0:	79400821 	ldrh	w1, [x1, #4]
    2eb4:	12001c53 	and	w19, w2, #0xff
/home/zrz0517/study/TEE/RT-TEE/optee_os/lib/libmbedtls/mbedtls/library/bignum.c:334
    2eb8:	f90013f5 	str	x21, [sp, #32]
    2ebc:	aa0003f5 	mov	x21, x0
/home/zrz0517/study/TEE/RT-TEE/optee_os/lib/libmbedtls/mbedtls/library/bignum.c:345
    2ec0:	97fffee3 	bl	2a4c <mbedtls_mpi_grow>
    2ec4:	35000320 	cbnz	w0, 2f28 <mbedtls_mpi_safe_cond_swap+0x98>
/home/zrz0517/study/TEE/RT-TEE/optee_os/lib/libmbedtls/mbedtls/library/bignum.c:346
