
build/rpi3/debug/bl31/bl31.elf:     file format elf64-littleaarch64
build/rpi3/debug/bl31/bl31.elf
architecture: aarch64, flags 0x00000112:
EXEC_P, HAS_SYMS, D_PAGED
start address 0x00000000100e0000

Program Header:
    LOAD off    0x0000000000010000 vaddr 0x00000000100e0000 paddr 0x00000000100e0000 align 2**16
         filesz 0x0000000000009078 memsz 0x0000000000014000 flags rwx
   STACK off    0x0000000000000000 vaddr 0x0000000000000000 paddr 0x0000000000000000 align 2**4
         filesz 0x0000000000000000 memsz 0x0000000000000000 flags rw-
private flags = 0:

Sections:
Idx Name          Size      VMA               LMA               File off  Algn
  0 .text         00007000  00000000100e0000  00000000100e0000  00010000  2**11
                  CONTENTS, ALLOC, LOAD, READONLY, CODE
  1 .rodata       00002000  00000000100e7000  00000000100e7000  00017000  2**3
                  CONTENTS, ALLOC, LOAD, DATA
  2 .data         00000078  00000000100e9000  00000000100e9000  00019000  2**3
                  CONTENTS, ALLOC, LOAD, DATA
  3 stacks        00004000  00000000100e9080  00000000100e9080  00019078  2**6
                  ALLOC
  4 .bss          00001810  00000000100ed080  00000000100ed080  00019078  2**6
                  ALLOC
  5 xlat_table    00004000  00000000100ef000  00000000100ef000  00019078  2**12
                  ALLOC
  6 coherent_ram  00001000  00000000100f3000  00000000100f3000  00019078  2**12
                  ALLOC
  7 .debug_info   0001fd72  0000000000000000  0000000000000000  00019078  2**0
                  CONTENTS, READONLY, DEBUGGING
  8 .debug_abbrev 000073db  0000000000000000  0000000000000000  00038dea  2**0
                  CONTENTS, READONLY, DEBUGGING
  9 .debug_aranges 00002050  0000000000000000  0000000000000000  000401d0  2**4
                  CONTENTS, READONLY, DEBUGGING
 10 .debug_line   0000ce7b  0000000000000000  0000000000000000  00042220  2**0
                  CONTENTS, READONLY, DEBUGGING
 11 .debug_str    0000444a  0000000000000000  0000000000000000  0004f09b  2**0
                  CONTENTS, READONLY, DEBUGGING
 12 .comment      0000005e  0000000000000000  0000000000000000  000534e5  2**0
                  CONTENTS, READONLY
 13 .debug_loc    0001c124  0000000000000000  0000000000000000  00053543  2**0
                  CONTENTS, READONLY, DEBUGGING
 14 .debug_ranges 00004390  0000000000000000  0000000000000000  0006f670  2**4
                  CONTENTS, READONLY, DEBUGGING
 15 .debug_frame  00000dd8  0000000000000000  0000000000000000  00073a00  2**3
                  CONTENTS, READONLY, DEBUGGING
SYMBOL TABLE:
00000000100e0000 l    d  .text	0000000000000000 .text
00000000100e7000 l    d  .rodata	0000000000000000 .rodata
00000000100e9000 l    d  .data	0000000000000000 .data
00000000100e9080 l    d  stacks	0000000000000000 stacks
00000000100ed080 l    d  .bss	0000000000000000 .bss
00000000100ef000 l    d  xlat_table	0000000000000000 xlat_table
00000000100f3000 l    d  coherent_ram	0000000000000000 coherent_ram
0000000000000000 l    d  .debug_info	0000000000000000 .debug_info
0000000000000000 l    d  .debug_abbrev	0000000000000000 .debug_abbrev
0000000000000000 l    d  .debug_aranges	0000000000000000 .debug_aranges
0000000000000000 l    d  .debug_line	0000000000000000 .debug_line
0000000000000000 l    d  .debug_str	0000000000000000 .debug_str
0000000000000000 l    d  .comment	0000000000000000 .comment
0000000000000000 l    d  .debug_loc	0000000000000000 .debug_loc
0000000000000000 l    d  .debug_ranges	0000000000000000 .debug_ranges
0000000000000000 l    d  .debug_frame	0000000000000000 .debug_frame
0000000000000000 l    df *ABS*	0000000000000000 ./build/rpi3/debug/bl31/bl31_entrypoint.o
0000000000000000 l    df *ABS*	0000000000000000 plat_psci_common.c
0000000000000000 l    df *ABS*	0000000000000000 rpi3_bl31_setup.c
00000000100ed080 l     O .bss	0000000000000058 bl32_image_ep_info
00000000100ed0d8 l     O .bss	0000000000000058 bl33_image_ep_info
00000000100e7059 l     O .rodata	000000000000001b __func__.2233
0000000000000000 l    df *ABS*	0000000000000000 rpi3_pm.c
00000000100e0434 l     F .text	0000000000000050 rpi3_watchdog_reset
00000000100e0484 l     F .text	0000000000000018 rpi3_system_reset
00000000100e049c l     F .text	0000000000000034 rpi3_system_off
00000000100e04f8 l     F .text	000000000000005c rpi3_validate_power_state
00000000100e0554 l     F .text	0000000000000030 rpi3_cpu_standby
00000000100e0584 l     F .text	000000000000004c rpi3_pwr_domain_on
00000000100e7128 l     O .rodata	00000000000000a0 plat_rpi3_psci_pm_ops
00000000100e71c8 l     O .rodata	0000000000000010 rpi3_pm_idle_states
0000000000000000 l    df *ABS*	0000000000000000 rpi3_topology.c
00000000100e9000 l     O .data	0000000000000002 power_domain_tree_desc
0000000000000000 l    df *ABS*	0000000000000000 fdt.c
00000000100e062c l     F .text	0000000000000008 fdt32_to_cpu
0000000000000000 l    df *ABS*	0000000000000000 fdt_ro.c
00000000100e06bc l     F .text	0000000000000008 fdt32_to_cpu
00000000100e06c4 l     F .text	0000000000000008 fdt64_to_cpu
0000000000000000 l    df *ABS*	0000000000000000 fdt_rw.c
00000000100e0778 l     F .text	0000000000000008 fdt32_to_cpu
00000000100e0778 l     F .text	0000000000000008 cpu_to_fdt32
00000000100e0780 l     F .text	0000000000000008 cpu_to_fdt64
00000000100e0788 l     F .text	0000000000000080 fdt_blocks_misordered_
00000000100e0808 l     F .text	0000000000000074 fdt_rw_check_header_
00000000100e087c l     F .text	000000000000009c fdt_splice_
00000000100e0918 l     F .text	0000000000000074 fdt_splice_mem_rsv_
0000000000000000 l    df *ABS*	0000000000000000 bl31_main.c
00000000100ed130 l     O .bss	0000000000000008 bl32_init
00000000100e9004 l     O .data	0000000000000004 next_image_type
00000000100e7250 l     O .rodata	000000000000001e __func__.2930
00000000100e7378 l     O .rodata	0000000000000010 psci_args.2911
0000000000000000 l    df *ABS*	0000000000000000 interrupt_mgmt.c
00000000100e0c30 l     F .text	0000000000000084 set_scr_el3_from_rm
00000000100ed138 l     O .bss	0000000000000048 intr_type_descs
0000000000000000 l    df *ABS*	0000000000000000 bl31_context_mgmt.c
0000000000000000 l    df *ABS*	0000000000000000 runtime_svc.c
00000000100e73b7 l     O .rodata	0000000000000011 __func__.1410
0000000000000000 l    df *ABS*	0000000000000000 arm_arch_svc_setup.c
00000000100e1074 l     F .text	00000000000000a4 arm_arch_svc_smc_handler
00000000100e8228 l     O .rodata	0000000000000020 __svc_desc_arm_arch_svc
0000000000000000 l    df *ABS*	0000000000000000 std_svc_setup.c
00000000100e1118 l     F .text	00000000000000bc std_svc_smc_handler
00000000100e11d4 l     F .text	0000000000000038 std_svc_setup
00000000100e8248 l     O .rodata	0000000000000020 __svc_desc_std_svc
0000000000000000 l    df *ABS*	0000000000000000 context_mgmt.c
0000000000000000 l    df *ABS*	0000000000000000 errata_report.c
0000000000000000 l    df *ABS*	0000000000000000 psci_off.c
0000000000000000 l    df *ABS*	0000000000000000 psci_on.c
0000000000000000 l    df *ABS*	0000000000000000 psci_suspend.c
0000000000000000 l    df *ABS*	0000000000000000 psci_common.c
00000000100ed180 l     O .bss	0000000000000004 psci_req_local_pwr_states
00000000100e75cf l     O .rodata	0000000000000019 __func__.3198
00000000100e7680 l     O .rodata	0000000000000018 psci_state_type_str.3212
0000000000000000 l    df *ABS*	0000000000000000 psci_main.c
00000000100e770c l     O .rodata	0000000000000011 __func__.2977
0000000000000000 l    df *ABS*	0000000000000000 psci_setup.c
00000000100ed190 l     O .bss	00000000000008c0 psci_ns_context
0000000000000000 l    df *ABS*	0000000000000000 psci_system_off.c
0000000000000000 l    df *ABS*	0000000000000000 psci_mem_protect.c
0000000000000000 l    df *ABS*	0000000000000000 bakery_lock_coherent.c
0000000000000000 l    df *ABS*	0000000000000000 spe.c
00000000100e338c l     F .text	0000000000000030 spe_drain_buffers_hook
0000000000000000 l    df *ABS*	0000000000000000 sve.c
00000000100e3414 l     F .text	000000000000003c disable_sve_hook
00000000100e3450 l     F .text	000000000000003c enable_sve_hook
0000000000000000 l    df *ABS*	0000000000000000 opteed_common.c
0000000000000000 l    df *ABS*	0000000000000000 opteed_main.c
00000000100e3688 l     F .text	0000000000000244 opteed_smc_handler
00000000100e3954 l     F .text	00000000000000cc opteed_sel1_interrupt_handler
00000000100e38cc l     F .text	0000000000000088 opteed_setup
00000000100e3a20 l     F .text	0000000000000060 opteed_init
00000000100e7829 l     O .rodata	0000000000000013 __func__.2952
00000000100e8268 l     O .rodata	0000000000000020 __svc_desc_opteed_std
00000000100e8288 l     O .rodata	0000000000000020 __svc_desc_opteed_fast
0000000000000000 l    df *ABS*	0000000000000000 opteed_pm.c
00000000100e3a80 l     F .text	0000000000000004 opteed_cpu_on_handler
00000000100e3a84 l     F .text	0000000000000008 opteed_cpu_migrate_info
00000000100e3a8c l     F .text	000000000000007c opteed_system_reset
00000000100e3b08 l     F .text	000000000000007c opteed_system_off
00000000100e3b84 l     F .text	00000000000000bc opteed_cpu_suspend_finish_handler
00000000100e3c40 l     F .text	00000000000000bc opteed_cpu_suspend_handler
00000000100e3cfc l     F .text	00000000000000b0 opteed_cpu_off_handler
00000000100e3dac l     F .text	00000000000000cc opteed_cpu_on_finish_handler
00000000100e78f7 l     O .rodata	0000000000000017 __func__.2844
00000000100e790e l     O .rodata	000000000000001b __func__.2851
00000000100e7929 l     O .rodata	000000000000001d __func__.2859
00000000100e7946 l     O .rodata	0000000000000022 __func__.2866
0000000000000000 l    df *ABS*	0000000000000000 bl_common.c
0000000000000000 l    df *ABS*	0000000000000000 tf_log.c
00000000100e9008 l     O .data	0000000000000004 max_log_level
0000000000000000 l    df *ABS*	0000000000000000 multi_console.c
0000000000000000 l    df *ABS*	0000000000000000 plat_log_common.c
00000000100e7a30 l     O .rodata	0000000000000028 plat_prefix_str
0000000000000000 l    df *ABS*	0000000000000000 plat_common.c
00000000100e7a8a l     O .rodata	0000000000000010 __func__.2701
0000000000000000 l    df *ABS*	0000000000000000 backtrace.c
00000000100e41d8 l     F .text	0000000000000040 is_address_readable
00000000100e4218 l     F .text	0000000000000058 is_valid_object.constprop.0
0000000000000000 l    df *ABS*	0000000000000000 rpi3_common.c
00000000100eda50 l     O .bss	0000000000000030 rpi3_console
00000000100e7bd1 l     O .rodata	0000000000000012 __func__.2424
00000000100e7c20 l     O .rodata	00000000000000c8 plat_rpi3_mmap
0000000000000000 l    df *ABS*	0000000000000000 xlat_tables_arch.c
00000000100e7ce8 l     O .rodata	000000000000001c pa_range_bits_arr
0000000000000000 l    df *ABS*	0000000000000000 xlat_tables_context.c
00000000100eda80 l     O .bss	0000000000000020 tf_base_xlat_table
00000000100edaa0 l     O .bss	0000000000000168 tf_mmap
00000000100e9010 l     O .data	0000000000000060 tf_xlat_ctx
00000000100ef000 l     O xlat_table	0000000000004000 tf_xlat_tables
0000000000000000 l    df *ABS*	0000000000000000 xlat_tables_core.c
00000000100e48c8 l     F .text	0000000000000040 xlat_clean_dcache_range
00000000100e4a0c l     F .text	0000000000000294 xlat_tables_map_region
00000000100e7d5b l     O .rodata	0000000000000015 __func__.2506
0000000000000000 l    df *ABS*	0000000000000000 xlat_tables_utils.c
0000000000000000 l    df *ABS*	0000000000000000 ./build/rpi3/debug/bl31/cortex_a53.o
0000000000000008 l       *ABS*	0000000000000000 CPU_MIDR_SIZE
0000000000000008 l       *ABS*	0000000000000000 CPU_EXTRA1_FUNC_SIZE
0000000000000008 l       *ABS*	0000000000000000 CPU_EXTRA2_FUNC_SIZE
0000000000000008 l       *ABS*	0000000000000000 CPU_RESET_FUNC_SIZE
0000000000000010 l       *ABS*	0000000000000000 CPU_PWR_DWN_OPS_SIZE
0000000000000008 l       *ABS*	0000000000000000 CPU_ERRATA_FUNC_SIZE
0000000000000008 l       *ABS*	0000000000000000 CPU_ERRATA_LOCK_SIZE
0000000000000008 l       *ABS*	0000000000000000 CPU_ERRATA_PRINTED_SIZE
0000000000000008 l       *ABS*	0000000000000000 CPU_REG_DUMP_SIZE
0000000000000000 l       *ABS*	0000000000000000 CPU_MIDR
0000000000000008 l       *ABS*	0000000000000000 CPU_RESET_FUNC
0000000000000010 l       *ABS*	0000000000000000 CPU_EXTRA1_FUNC
0000000000000018 l       *ABS*	0000000000000000 CPU_EXTRA2_FUNC
0000000000000020 l       *ABS*	0000000000000000 CPU_PWR_DWN_OPS
0000000000000030 l       *ABS*	0000000000000000 CPU_ERRATA_FUNC
0000000000000038 l       *ABS*	0000000000000000 CPU_ERRATA_LOCK
0000000000000040 l       *ABS*	0000000000000000 CPU_ERRATA_PRINTED
0000000000000048 l       *ABS*	0000000000000000 CPU_REG_DUMP
0000000000000050 l       *ABS*	0000000000000000 CPU_OPS_SIZE
00000000100e5100 l     F .text	0000000000000014 cortex_a53_disable_dcache
00000000100e5114 l     F .text	0000000000000018 cortex_a53_disable_smp
00000000100e512c l     F .text	0000000000000020 errata_a53_826319_wa
00000000100e514c l     F .text	0000000000000008 check_errata_826319
00000000100e5154 l     F .text	000000000000001c a53_disable_non_temporal_hint
00000000100e5170 l     F .text	0000000000000008 check_errata_disable_non_temporal_hint
00000000100e5178 l     F .text	000000000000001c errata_a53_855873_wa
00000000100e5194 l     F .text	0000000000000008 check_errata_855873
00000000100e519c l     F .text	0000000000000024 check_errata_835769
00000000100e51b8 l       .text	0000000000000000 errata_not_applies
00000000100e51bc l       .text	0000000000000000 exit_check_errata_835769
00000000100e51c0 l     F .text	0000000000000024 check_errata_843419
00000000100e51e0 l       .text	0000000000000000 exit_check_errata_843419
00000000100e51e4 l     F .text	0000000000000038 cortex_a53_reset_func
00000000100e521c l     F .text	0000000000000018 cortex_a53_core_pwr_dwn
00000000100e5234 l     F .text	0000000000000024 cortex_a53_cluster_pwr_dwn
00000000100e5258 l     F .text	0000000000000078 cortex_a53_errata_report
00000000100e7e10 l       .rodata	0000000000000000 cortex_a53_errata_826319_str
00000000100e7e46 l       .rodata	0000000000000000 cortex_a53_cpu_str
00000000100e7e17 l       .rodata	0000000000000000 cortex_a53_errata_835769_str
00000000100e7e1e l       .rodata	0000000000000000 cortex_a53_errata_disable_non_temporal_hint_str
00000000100e7e38 l       .rodata	0000000000000000 cortex_a53_errata_843419_str
00000000100e7e3f l       .rodata	0000000000000000 cortex_a53_errata_855873_str
00000000100e7e51 l       .rodata	0000000000000000 cortex_a53_regs
00000000100e52d0 l     F .text	0000000000000018 cortex_a53_cpu_reg_dump
00000000100e9070 l       .data	0000000000000000 cortex_a53_errata_lock
00000000100e9074 l       .data	0000000000000000 cortex_a53_errata_reported
0000000000000000 l    df *ABS*	0000000000000000 ./build/rpi3/debug/bl31/plat_helpers.o
0000000000000000 l    df *ABS*	0000000000000000 ./build/rpi3/debug/bl31/crash_reporting.o
00000000100e7e87 l       .rodata	0000000000000000 print_spacer
00000000100e7e8e l       .rodata	0000000000000000 gp_regs
00000000100e7efd l       .rodata	0000000000000000 el3_sys_regs
00000000100e7f5a l       .rodata	0000000000000000 non_el3_sys_regs
00000000100e80bc l       .rodata	0000000000000000 panic_msg
00000000100e80d5 l       .rodata	0000000000000000 excpt_msg
00000000100e80fb l       .rodata	0000000000000000 intr_excpt_msg
00000000100e5348 l     F .text	0000000000000008 print_newline
00000000100e5350 l     F .text	000000000000004c size_controlled_print
00000000100e5358 l       .text	0000000000000000 test_size_list
00000000100e5394 l       .text	0000000000000000 exit_size_print
00000000100e539c l     F .text	0000000000000018 str_in_crash_buf_print
00000000100e5430 l     F .text	0000000000000160 do_crash_reporting
00000000100e5590 l     F .text	0000000000000008 crash_panic
0000000000000000 l    df *ABS*	0000000000000000 ./build/rpi3/debug/bl31/ea_delegate.o
00000000100e55fc l     F .text	000000000000009c ea_proceed
00000000100e55f4 l     F .text	0000000000000004 delegate_sync_ea
00000000100e55f8 l     F .text	0000000000000004 delegate_async_ea
0000000000000000 l    df *ABS*	0000000000000000 ./build/rpi3/debug/bl31/runtime_exceptions.o
00000000100e5698 l       .text	0000000000000000 smc_handler32
00000000100e569c l       .text	0000000000000000 smc_handler64
00000000100e6cdc l       .text	0000000000000000 interrupt_exit_irq_aarch64
00000000100e6d5c l       .text	0000000000000000 interrupt_exit_fiq_aarch64
00000000100e6edc l       .text	0000000000000000 interrupt_exit_irq_aarch32
00000000100e6f5c l       .text	0000000000000000 interrupt_exit_fiq_aarch32
00000000100e5698 l     F .text	0000000000000088 smc_handler
00000000100e5708 l       .text	0000000000000000 smc_prohibited
00000000100e56fc l       .text	0000000000000000 smc_unknown
00000000100e5714 l       .text	0000000000000000 rt_svc_fw_critical_error
0000000000000000 l    df *ABS*	0000000000000000 ./build/rpi3/debug/bl31/platform_mp_stack.o
00000000100e9080 l       stacks	0000000000000000 platform_normal_stacks
0000000000000006 l       *ABS*	0000000000000000 TZ_COUNT
0000000000000000 l    df *ABS*	0000000000000000 ./build/rpi3/debug/bl31/cpu_data.o
0000000000000000 l    df *ABS*	0000000000000000 ./build/rpi3/debug/bl31/cpu_helpers.o
0000000000000008 l       *ABS*	0000000000000000 CPU_MIDR_SIZE
0000000000000008 l       *ABS*	0000000000000000 CPU_EXTRA1_FUNC_SIZE
0000000000000008 l       *ABS*	0000000000000000 CPU_EXTRA2_FUNC_SIZE
0000000000000008 l       *ABS*	0000000000000000 CPU_RESET_FUNC_SIZE
0000000000000010 l       *ABS*	0000000000000000 CPU_PWR_DWN_OPS_SIZE
0000000000000008 l       *ABS*	0000000000000000 CPU_ERRATA_FUNC_SIZE
0000000000000008 l       *ABS*	0000000000000000 CPU_ERRATA_LOCK_SIZE
0000000000000008 l       *ABS*	0000000000000000 CPU_ERRATA_PRINTED_SIZE
0000000000000008 l       *ABS*	0000000000000000 CPU_REG_DUMP_SIZE
0000000000000000 l       *ABS*	0000000000000000 CPU_MIDR
0000000000000008 l       *ABS*	0000000000000000 CPU_RESET_FUNC
0000000000000010 l       *ABS*	0000000000000000 CPU_EXTRA1_FUNC
0000000000000018 l       *ABS*	0000000000000000 CPU_EXTRA2_FUNC
0000000000000020 l       *ABS*	0000000000000000 CPU_PWR_DWN_OPS
0000000000000030 l       *ABS*	0000000000000000 CPU_ERRATA_FUNC
0000000000000038 l       *ABS*	0000000000000000 CPU_ERRATA_LOCK
0000000000000040 l       *ABS*	0000000000000000 CPU_ERRATA_PRINTED
0000000000000048 l       *ABS*	0000000000000000 CPU_REG_DUMP
0000000000000050 l       *ABS*	0000000000000000 CPU_OPS_SIZE
00000000100e586c l       .text	0000000000000000 error_exit
0000000000000000 l    df *ABS*	0000000000000000 ./build/rpi3/debug/bl31/spinlock.o
00000000100e58e8 l       .text	0000000000000000 l1
00000000100e58ec l       .text	0000000000000000 l2
0000000000000000 l    df *ABS*	0000000000000000 ./build/rpi3/debug/bl31/psci_helpers.o
0000000000000000 l    df *ABS*	0000000000000000 ./build/rpi3/debug/bl31/context.o
0000000000000000 l    df *ABS*	0000000000000000 ./build/rpi3/debug/bl31/opteed_helpers.o
0000000000000000 l    df *ABS*	0000000000000000 ./build/rpi3/debug/bl31/debug.o
00000000100e8165 l       .rodata	0000000000000000 assert_msg1
00000000100e8173 l       .rodata	0000000000000000 assert_msg2
00000000100e5c54 l       .text	0000000000000000 _assert_loop
00000000100e5c38 l       .text	0000000000000000 dec_print_loop
00000000100e817a l       .rodata	0000000000000000 panic_msg
00000000100e5cbc l       .text	0000000000000000 panic_common
00000000100e5ce0 l       .text	0000000000000000 _panic_handler
0000000000000000 l    df *ABS*	0000000000000000 ./build/rpi3/debug/bl31/cache_helpers.o
00000000100e5d1c l       .text	0000000000000000 exit_loop_civac
00000000100e5d08 l       .text	0000000000000000 loop_civac
00000000100e5d54 l       .text	0000000000000000 exit_loop_cvac
00000000100e5d40 l       .text	0000000000000000 loop_cvac
00000000100e5d8c l       .text	0000000000000000 exit_loop_ivac
00000000100e5d78 l       .text	0000000000000000 loop_ivac
00000000100e5d90 l     F .text	000000000000007c do_dcsw_op
00000000100e5e08 l       .text	0000000000000000 exit
00000000100e5e0c l       .text	0000000000000000 dcsw_loop_table
00000000100e5da4 l       .text	0000000000000000 loop1
00000000100e5df0 l       .text	0000000000000000 level_done
00000000100e5e0c l       .text	0000000000000000 loop2_isw
00000000100e5e10 l       .text	0000000000000000 loop3_isw
00000000100e5e2c l       .text	0000000000000000 loop2_cisw
00000000100e5e30 l       .text	0000000000000000 loop3_cisw
00000000100e5e4c l       .text	0000000000000000 loop2_csw
00000000100e5e50 l       .text	0000000000000000 loop3_csw
0000000000000000 l    df *ABS*	0000000000000000 ./build/rpi3/debug/bl31/misc_helpers.o
00000000100e5e94 l     F .text	0000000000000114 zeromem_dczva
0000000000000000 l    df *ABS*	0000000000000000 ./build/rpi3/debug/bl31/platform_helpers.o
0000000000000000 l    df *ABS*	0000000000000000 ./build/rpi3/debug/bl31/16550_console.o
00000000100e6028 l       .text	0000000000000000 init_fail
00000000100e6080 l       .text	0000000000000000 register_fail
00000000100e6110 l       .text	0000000000000000 no_char
0000000000000000 l    df *ABS*	0000000000000000 ./build/rpi3/debug/bl31/enable_mmu.o
0000000000000000 l    df *ABS*	0000000000000000 assert.c
0000000000000000 l    df *ABS*	0000000000000000 memcpy.c
0000000000000000 l    df *ABS*	0000000000000000 memmove.c
0000000000000000 l    df *ABS*	0000000000000000 memset.c
0000000000000000 l    df *ABS*	0000000000000000 printf.c
00000000100e628c l     F .text	00000000000000c4 unsigned_num_print
0000000000000000 l    df *ABS*	0000000000000000 putchar.c
0000000000000000 l    df *ABS*	0000000000000000 
0000000000000000 l    df *ABS*	0000000000000000 cpu_data_array.c
00000000100e67b4 g     F .text	000000000000002c putchar
00000000100e1594 g     F .text	00000000000000e0 cm_prepare_el3_exit
00000000100e4040 g     F .text	0000000000000034 console_set_scope
00000000100e44c0 g     F .text	0000000000000020 plat_ic_get_pending_interrupt_type
00000000100e1408 g     F .text	0000000000000090 cm_el1_sysregs_context_restore
00000000100e29dc g     F .text	0000000000000028 psci_migrate_info_up_cpu
00000000100e8308 g     O .rodata	0000000000000008 __cb_func_disable_sve_hookcm_exited_normal_world
00000000100f4000 g       coherent_ram	0000000000000000 __BL31_END__
00000000100e3fc0 g     F .text	0000000000000074 console_register
00000000100e26c8 g     F .text	0000000000000124 psci_cpu_suspend
00000000100f4000 g       coherent_ram	0000000000000000 __COHERENT_RAM_END__
00000000100e5774 g     F .text	0000000000000034 reset_handler
00000000100e6160 g     F .text	000000000000001c console_16550_flush
00000000100e6e00 g     F .text	0000000000000000 sync_exception_aarch32
00000000100e5e8c g     F .text	0000000000000008 zeromem
00000000100e701e g     O .rodata	000000000000001c version_string
00000000100e82f8 g       .rodata	0000000000000000 __pubsub_psci_suspend_pwrdown_finish_end
00000000100e2324 g     F .text	00000000000000f4 psci_validate_entry_point
00000000100e04d0 g     F .text	0000000000000028 rpi3_pwr_domain_on_finish
00000000100e4f18 g     F .text	000000000000003c mmap_add_ctx
00000000100e3e78 g     F .text	0000000000000038 print_entry_point_info
00000000100e0e38 g     F .text	000000000000002c cm_get_context
00000000100e5af0 g     F .text	0000000000000048 save_gp_registers
00000000100e6760 g     F .text	0000000000000054 printf
00000000100ee878 g     O .bss	0000000000000018 mmu_cfg_params
00000000100e50fc g     F .text	0000000000000004 xlat_tables_print
00000000100e2298 g     F .text	000000000000006c psci_release_pwr_domain_locks
00000000100e1dd4 g     F .text	0000000000000040 psci_validate_power_state
00000000100e05f8 g     F .text	0000000000000034 plat_core_pos_by_mpidr
00000000100e9000 g       .rodata	0000000000000000 __RW_START__
00000000100e6084 g     F .text	000000000000004c console_16550_core_putc
00000000100e1cf8 g     F .text	00000000000000dc psci_cpu_suspend_finish
00000000100e60d0 g     F .text	000000000000001c console_16550_putc
00000000100e5bfc g     F .text	0000000000000060 asm_assert
00000000100e01c4 g     F .text	0000000000000044 bl31_plat_get_next_image_ep_info
00000000100e5e6c g     F .text	0000000000000010 dcsw_op_level1
00000000100e5ca4 g     F .text	0000000000000044 do_panic
00000000100e623c g     F .text	0000000000000034 memmove
00000000100edc08 g     O .bss	0000000000000080 rt_svc_descs_indices
00000000100e05d0 g     F .text	000000000000001c plat_setup_psci_ops
00000000100e6a00 g     F .text	0000000000000000 sync_exception_sp_elx
00000000100e46f4 g     F .text	00000000000000e0 setup_mmu_cfg
00000000100e6800 g     F .text	0000000000000000 sync_exception_sp_el0
00000000100e5978 g     F .text	0000000000000010 psci_power_down_wfi
00000000100e5944 g     F .text	0000000000000034 psci_do_pwrup_cache_maintenance
00000000100e28c8 g     F .text	0000000000000058 psci_affinity_info
00000000100e0c24 g     F .text	000000000000000c bl31_register_bl32_init
00000000100e4154  w    F .text	0000000000000030 plat_log_get_prefix
00000000100e2920 g     F .text	00000000000000a4 psci_migrate
00000000100e7000 g     O .rodata	000000000000001e build_message
00000000100e5b8c g     F .text	0000000000000024 el3_exit
00000000100e2c6c g     F .text	0000000000000378 psci_setup
00000000100e0e64 g     F .text	000000000000002c cm_set_context
00000000100e4818 g     F .text	0000000000000068 init_xlat_tables
00000000100e4184  w    F .text	0000000000000008 bl31_plat_runtime_setup
00000000100e9000 g       .data	0000000000000000 __DATA_START__
00000000100f3000 g     O coherent_ram	0000000000000008 psci_locks
00000000100e5fa8  w    F .text	0000000000000004 plat_disable_acp
00000000100e21fc g     F .text	0000000000000024 psci_find_target_suspend_lvl
00000000100e4608 g     F .text	0000000000000038 xlat_arch_regime_get_xn_desc
00000000100e2c4c g     F .text	0000000000000020 psci_arch_setup
00000000100e3040 g     F .text	000000000000005c psci_system_reset
00000000100e621c g     F .text	0000000000000020 memcpy
00000000100e2304 g     F .text	0000000000000020 psci_validate_mpidr
00000000100e27ec g     F .text	00000000000000ac psci_system_suspend
00000000100e6b80 g     F .text	0000000000000000 serror_sp_elx
00000000100e1320 g     F .text	000000000000002c cm_init_context_by_index
00000000100e6880 g     F .text	0000000000000000 irq_sp_el0
00000000100e5e94 g     F .text	0000000000000114 zero_normalmem
00000000100e1f54 g     F .text	0000000000000044 psci_get_parent_pwr_domain_nodes
00000000100e82f8 g     O .rodata	0000000000000008 __cb_func_spe_drain_buffers_hookcm_entering_secure_world
00000000100e418c  w    F .text	000000000000004c plat_ea_handler
00000000100e5b38 g     F .text	0000000000000048 restore_gp_registers
00000000100e2fe4 g     F .text	000000000000005c psci_system_off
00000000100e8300 g       .rodata	0000000000000000 __pubsub_cm_exited_secure_world_end
00000000100e4808 g     F .text	0000000000000010 mmap_add
00000000100e0104 g     F .text	000000000000007c bl31_warm_entrypoint
00000000100e44b4 g     F .text	000000000000000c plat_get_syscnt_freq2
00000000100e5fac  w    F .text	0000000000000008 plat_panic_handler
00000000100e8228 g       .rodata	0000000000000000 __RT_SVC_DESCS_START__
00000000100ed080 g       stacks	0000000000000000 __STACKS_END__
00000000100e82f8 g       .rodata	0000000000000000 __pubsub_psci_suspend_pwrdown_start_end
00000000100e43bc g     F .text	0000000000000060 rpi3_console_init
00000000100e5d20 g     F .text	0000000000000038 clean_dcache_range
00000000100e57a8 g     F .text	0000000000000038 prepare_cpu_pwr_dwn
00000000100e34dc g     F .text	00000000000000d0 opteed_init_optee_ep_state
00000000100e0738 g     F .text	0000000000000040 fdt_num_mem_rsv
00000000100e2418 g     F .text	00000000000000b4 psci_warmboot_entrypoint
00000000100e8308 g       .rodata	0000000000000000 __pubsub_cm_exited_normal_world_start
00000000100e573c  w    F .text	0000000000000010 plat_set_my_stack
00000000100e0ecc g     F .text	0000000000000040 cm_set_context_by_index
00000000100e82a8 g       .rodata	0000000000000000 __RT_SVC_DESCS_END__
00000000100e44e0 g     F .text	0000000000000044 plat_interrupt_type_to_line
00000000100e1378 g     F .text	0000000000000090 cm_el1_sysregs_context_save
00000000100e5c74 g     F .text	0000000000000030 asm_print_hex
00000000100e0304 g     F .text	0000000000000060 bl31_plat_arch_setup
00000000100e0b94 g     F .text	0000000000000090 bl31_main
00000000100edec0 g     O .bss	0000000000000040 psci_cpu_pd_nodes
00000000100e5c5c g     F .text	0000000000000018 asm_print_str
00000000100e3624 g     F .text	0000000000000064 opteed_synchronous_sp_exit
00000000100e5fb4  w    F .text	0000000000000004 bl31_plat_enable_mmu
00000000100e6134 g     F .text	000000000000002c console_16550_core_flush
00000000100e120c g     F .text	0000000000000004 cm_init
00000000100e5328 g     F .text	000000000000000c plat_crash_console_flush
00000000100e6800 g       .text	0000000000000000 runtime_exceptions
00000000100e1498 g     F .text	0000000000000038 cm_set_elr_el3
00000000100e8300 g       .rodata	0000000000000000 __pubsub_cm_exited_secure_world_start
00000000100e2524 g     F .text	000000000000004c psci_spd_migrate_info
00000000100e5760 g     F .text	0000000000000014 _cpu_data_by_index
00000000100e2570 g     F .text	00000000000000f8 psci_print_power_domain_map
00000000100e0180 g     F .text	0000000000000044 plat_get_target_pwr_state
00000000100e4074 g     F .text	0000000000000074 console_putc
00000000100e7968 g     O .rodata	0000000000000048 opteed_pm
00000000100e5fbc  w    F .text	0000000000000004 plat_handle_el3_ea
00000000100e1e40 g     F .text	0000000000000074 psci_is_last_on_cpu
00000000100e5300 g     F .text	000000000000001c plat_crash_console_init
00000000100e6e80 g     F .text	0000000000000000 irq_aarch32
00000000100e5ce8 g     F .text	0000000000000038 flush_dcache_range
00000000100e5bb0 g     F .text	0000000000000028 opteed_enter_sp
00000000100e0208 g     F .text	00000000000000fc bl31_early_platform_setup2
00000000100e60ec g     F .text	000000000000002c console_16550_core_getc
00000000100e4270 g     F .text	000000000000014c backtrace
00000000100e9078 g       stacks	0000000000000000 __RELA_END__
00000000100e9078 g       stacks	0000000000000000 __RELA_START__
00000000100e8300 g     O .rodata	0000000000000008 __cb_func_enable_sve_hookcm_entering_normal_world
00000000100e6980 g     F .text	0000000000000000 serror_sp_el0
00000000100e6350 g     F .text	0000000000000410 vprintf
00000000100e0d04 g     F .text	000000000000009c set_routing_model
00000000100e45d4 g     F .text	0000000000000034 is_dcache_enabled
00000000100e53b4 g     F .text	0000000000000028 report_unhandled_exception
00000000100e1a68 g     F .text	00000000000000e0 psci_cpu_on_finish
00000000100e2898 g     F .text	0000000000000030 psci_cpu_off
00000000100e5334 g     F .text	0000000000000014 plat_reset_handler
00000000100e617c g     F .text	0000000000000070 enable_mmu_direct_el3
00000000100e8308 g       .rodata	0000000000000000 __pubsub_cm_entering_normal_world_end
00000000100e5834 g     F .text	000000000000003c get_cpu_ops_ptr
00000000100e0000 g     F .text	0000000000000104 bl31_entrypoint
00000000100e0e90 g     F .text	000000000000003c cm_get_context_by_index
00000000100e134c g     F .text	000000000000002c cm_init_my_context
00000000100e6d80 g     F .text	0000000000000000 serror_aarch64
00000000100e441c g     F .text	0000000000000098 rpi3_setup_page_tables
00000000100e574c g     F .text	0000000000000014 init_cpu_data_ptr
00000000100e9000 g       .rodata	0000000000000000 __RODATA_END__
00000000100e5598 g     F .text	0000000000000044 enter_lower_el_sync_ea
00000000100e4640 g     F .text	0000000000000028 xlat_arch_current_el
00000000100e3378 g     F .text	0000000000000014 spe_supported
00000000100e176c g     F .text	0000000000000110 psci_do_cpu_off
00000000100edf10 g     O .bss	0000000000000004 psci_caps
00000000100e5814 g     F .text	0000000000000020 do_cpu_reg_dump
00000000100e1210 g     F .text	0000000000000110 cm_setup_context
00000000100e0000 g       .text	0000000000000000 __BL31_START__
00000000100e6a80 g     F .text	0000000000000000 irq_sp_elx
00000000100e6900 g     F .text	0000000000000000 fiq_sp_el0
00000000100e7000 g       .rodata	0000000000000000 __RODATA_START__
00000000100e9078 g       .data	0000000000000000 __DATA_END__
00000000100e82a8 g       .rodata	0000000000000000 __CPU_OPS_START__
00000000100e4524 g     F .text	000000000000006c tcr_physical_addr_size_bits
00000000100e5d58 g     F .text	0000000000000038 inv_dcache_range
00000000100e900c g     O .data	0000000000000001 console_state
00000000100e5b80 g     F .text	000000000000000c restore_gp_registers_eret
00000000100e2ae8 g     F .text	0000000000000164 psci_smc_handler
00000000100e1b48 g     F .text	00000000000001b0 psci_cpu_suspend_start
00000000100e1eb4 g     F .text	0000000000000020 psci_init_req_local_pwr_states
00000000100e8300 g       .rodata	0000000000000000 __pubsub_cm_entering_secure_world_end
00000000100e5870 g     F .text	0000000000000010 cpu_get_rev_var
00000000100e187c g     F .text	00000000000001ec psci_cpu_on_start
00000000100e21d0 g     F .text	000000000000002c psci_find_max_off_lvl
00000000100e4908 g     F .text	0000000000000104 xlat_desc
00000000100e52f0 g     F .text	0000000000000010 plat_rpi3_calc_core_pos
00000000100f3008 g     O coherent_ram	0000000000000010 psci_non_cpu_pd_nodes
00000000100e098c g     F .text	0000000000000098 fdt_add_mem_rsv
00000000100ee890 g       .bss	0000000000000000 __BSS_END__
00000000100e82f8 g       .rodata	0000000000000000 __CPU_OPS_END__
00000000100e2668 g     F .text	0000000000000004 psci_do_pwrdown_sequence
00000000100e5908 g     F .text	000000000000003c psci_do_pwrdown_cache_maintenance
00000000100e1548 g     F .text	000000000000004c cm_set_next_eret_context
00000000100e82f8 g       .rodata	0000000000000000 __pubsub_cm_entering_secure_world_start
00000000100e266c g     F .text	000000000000005c psci_cpu_on
00000000100e0acc g     F .text	00000000000000c8 bl31_prepare_next_image_entry
00000000100e2140 g     F .text	0000000000000090 psci_validate_suspend_req
00000000100f3000 g       coherent_ram	0000000000000000 __COHERENT_RAM_START__
00000000100e2a80 g     F .text	0000000000000068 psci_features
00000000100e82f8 g       .rodata	0000000000000000 __GOT_END__
00000000100e6270 g     F .text	000000000000001c memset
00000000100e6030 g     F .text	0000000000000054 console_16550_register
00000000100e16d4 g     F .text	0000000000000098 errata_print_msg
00000000100e1ed4 g     F .text	0000000000000080 psci_get_target_local_pwr_states
00000000100e14d0 g     F .text	0000000000000078 cm_write_scr_el3_bit
00000000100e8310 g       .rodata	0000000000000000 __pubsub_cm_exited_normal_world_end
00000000100edf20 g     O .bss	0000000000000008 optee_vector_table
00000000100e55dc g     F .text	0000000000000018 enter_lower_el_async_ea
00000000100edf00 g     O .bss	0000000000000008 psci_plat_pm_ops
00000000100e4590 g     F .text	0000000000000044 xlat_arch_get_max_supported_pa
00000000100e82f8 g       .rodata	0000000000000000 __pubsub_psci_suspend_pwrdown_start_start
00000000100e82f8 g       .rodata	0000000000000000 __GOT_START__
00000000100e0a9c g     F .text	0000000000000030 get_arm_std_svc_args
00000000100e8300 g       .rodata	0000000000000000 __pubsub_cm_entering_normal_world_start
00000000100e322c g     F .text	00000000000000e8 bakery_lock_get
00000000100e7000 g       .text	0000000000000000 __TEXT_END__
00000000100e3158 g     F .text	0000000000000080 psci_mem_protect
00000000100e3314 g     F .text	0000000000000064 bakery_lock_release
00000000100e0e0c g     F .text	000000000000002c get_interrupt_type_handler
00000000100e05ec g     F .text	000000000000000c plat_get_power_domain_tree_desc
00000000100e2a04 g     F .text	000000000000007c psci_node_hw_state
00000000100e5988 g     F .text	00000000000000b4 el1_sysregs_context_save
00000000100e0634 g     F .text	0000000000000088 fdt_check_header
00000000100e5e7c g     F .text	0000000000000010 dcsw_op_level2
00000000100e57e0 g     F .text	0000000000000034 init_cpu_ops
00000000100e40e8 g     F .text	000000000000006c console_flush
00000000100e6b00 g     F .text	0000000000000000 fiq_sp_elx
00000000100e6c00 g     F .text	0000000000000000 sync_exception_aarch64
00000000100e6d00 g     F .text	0000000000000000 fiq_aarch64
00000000100e4034 g     F .text	000000000000000c console_switch_state
00000000100e58a8 g     F .text	0000000000000038 print_errata_status
00000000100e5900 g     F .text	0000000000000008 spin_unlock
00000000100ed080 g       .bss	0000000000000000 __BSS_START__
00000000100e4ca0 g     F .text	0000000000000278 mmap_add_region_ctx
00000000100e33bc g     F .text	0000000000000044 spe_enable
00000000100edf28 g     O .bss	0000000000000004 opteed_rw
00000000100e531c g     F .text	000000000000000c plat_crash_console_putc
00000000100edcc0 g     O .bss	0000000000000200 percpu_data
00000000100e24cc g     F .text	0000000000000058 psci_register_spd_pm_hook
00000000100e5894 g     F .text	0000000000000014 cpu_rev_var_hs
00000000100e3400 g     F .text	0000000000000014 sve_supported
00000000100e58e0 g     F .text	0000000000000020 spin_lock
00000000100e3f78 g     F .text	0000000000000048 console_is_registered
00000000100e5bd8 g     F .text	0000000000000024 opteed_exit_sp
00000000100e1e14 g     F .text	000000000000002c psci_query_sys_suspend_pwrstate
00000000100e4668 g     F .text	000000000000008c is_mmu_enabled_ctx
00000000100e3eb0 g     F .text	00000000000000c8 tf_log
00000000100e82f8 g       .rodata	0000000000000000 __pubsub_psci_cpu_on_finish_start
00000000100e5880 g     F .text	0000000000000014 cpu_rev_var_ls
00000000100e0cb4 g     F .text	0000000000000050 get_scr_el3_from_routing_model
00000000100f4000 g       coherent_ram	0000000000000000 __RW_END__
00000000100f3018 g       coherent_ram	0000000000000000 __COHERENT_RAM_END_UNALIGNED__
00000000100e0364 g     F .text	00000000000000d0 bl31_platform_setup
00000000100e6118 g     F .text	000000000000001c console_16550_getc
00000000100e9080 g       stacks	0000000000000000 __STACKS_START__
00000000100edf30 g     O .bss	0000000000000940 opteed_sp_context
00000000100e2034 g     F .text	000000000000010c psci_do_state_coordination
00000000100e309c g     F .text	00000000000000bc psci_system_reset2
00000000100e4880 g     F .text	0000000000000048 enable_mmu_el3
00000000100e6f80 g     F .text	0000000000000000 serror_aarch32
00000000100e5fb8  w    F .text	0000000000000004 plat_handle_double_fault
00000000100e348c g     F .text	0000000000000050 sve_enable
00000000100e35ac g     F .text	0000000000000078 opteed_synchronous_sp_entry
00000000100e4f54 g     F .text	00000000000001a4 init_xlat_tables_ctx
00000000100e82f8 g       .rodata	0000000000000000 __pubsub_psci_suspend_pwrdown_finish_start
00000000100e52e8 g     F .text	0000000000000008 plat_my_core_pos
00000000100e0f0c g     F .text	0000000000000168 runtime_svc_init
00000000100e6c80 g     F .text	0000000000000000 irq_aarch64
00000000100e29c4 g     F .text	0000000000000018 psci_migrate_info_type
00000000100e61ec g     F .text	0000000000000030 __assert
00000000100e31d8 g     F .text	0000000000000054 psci_mem_chk_range
00000000100e5404 g     F .text	000000000000002c el3_panic
00000000100e0da0 g     F .text	000000000000006c register_interrupt_type_handler
00000000100e50f8 g     F .text	0000000000000004 xlat_mmap_print
00000000100e5fc0 g     F .text	0000000000000070 console_16550_core_init
00000000100e2220 g     F .text	0000000000000078 psci_acquire_pwr_domain_locks
00000000100e82f8 g       .rodata	0000000000000000 __pubsub_psci_cpu_on_finish_end
00000000100e5a3c g     F .text	00000000000000b4 el1_sysregs_context_restore
00000000100ee870 g     O .bss	0000000000000008 console_list
00000000100e1f98 g     F .text	000000000000009c psci_set_pwr_domains_to_run
00000000100e06cc g     F .text	000000000000006c fdt_get_mem_rsv
00000000100e53dc g     F .text	0000000000000028 report_unhandled_interrupt
00000000100e6f00 g     F .text	0000000000000000 fiq_aarch32
00000000100e5720  w    F .text	000000000000001c plat_get_my_stack
00000000100e47d4 g     F .text	0000000000000034 mmap_add_region
00000000100e0000 g       .text	0000000000000000 __TEXT_START__
00000000100e1674 g     F .text	0000000000000060 errata_needs_reporting
00000000100e0a24 g     F .text	0000000000000078 fdt_del_mem_rsv
00000000100edf08 g     O .bss	0000000000000008 psci_spd_pm



Disassembly of section .text:

00000000100e0000 <bl31_entrypoint>:
    100e0000:	aa0003f4 	mov	x20, x0
    100e0004:	aa0103f5 	mov	x21, x1
    100e0008:	aa0203f6 	mov	x22, x2
    100e000c:	aa0303f7 	mov	x23, x3
    100e0010:	10033f80 	adr	x0, 100e6800 <sync_exception_sp_el0>
    100e0014:	d51ec000 	msr	vbar_el3, x0
    100e0018:	d5033fdf 	isb
    100e001c:	940015d6 	bl	100e5774 <reset_handler>
    100e0020:	d2820141 	mov	x1, #0x100a                	// #4106
    100e0024:	d53e1000 	mrs	x0, sctlr_el3
    100e0028:	aa010000 	orr	x0, x0, x1
    100e002c:	d51e1000 	msr	sctlr_el3, x0
    100e0030:	d5033fdf 	isb
    100e0034:	940015c6 	bl	100e574c <init_cpu_data_ptr>
    100e0038:	d2804700 	mov	x0, #0x238                 	// #568
    100e003c:	f2a00060 	movk	x0, #0x3, lsl #16
    100e0040:	d51e1100 	msr	scr_el3, x0
    100e0044:	d2900000 	mov	x0, #0x8000                	// #32768
    100e0048:	f2a00020 	movk	x0, #0x1, lsl #16
    100e004c:	d51e1320 	msr	mdcr_el3, x0
    100e0050:	d50344ff 	msr	daifclr, #0x4
    100e0054:	d2800000 	mov	x0, #0x0                   	// #0
    100e0058:	d51e1140 	msr	cptr_el3, x0
    100e005c:	d5380400 	mrs	x0, id_aa64pfr0_el1
    100e0060:	d370cc00 	ubfx	x0, x0, #48, #4
    100e0064:	f100041f 	cmp	x0, #0x1
    100e0068:	54000061 	b.ne	100e0074 <bl31_entrypoint+0x74>  // b.any
    100e006c:	d2a02000 	mov	x0, #0x1000000             	// #16777216
    100e0070:	d51b42a0 	msr	dit, x0
    100e0074:	b0000040 	adrp	x0, 100e9000 <__RODATA_END__>
    100e0078:	91000000 	add	x0, x0, #0x0
    100e007c:	900000a1 	adrp	x1, 100f4000 <__BL31_END__>
    100e0080:	91000021 	add	x1, x1, #0x0
    100e0084:	cb000021 	sub	x1, x1, x0
    100e0088:	94001734 	bl	100e5d58 <inv_dcache_range>
    100e008c:	b0000060 	adrp	x0, 100ed000 <__STACKS_START__+0x3f80>
    100e0090:	91020000 	add	x0, x0, #0x80
    100e0094:	d0000061 	adrp	x1, 100ee000 <opteed_sp_context+0xd0>
    100e0098:	91224021 	add	x1, x1, #0x890
    100e009c:	cb000021 	sub	x1, x1, x0
    100e00a0:	9400177b 	bl	100e5e8c <zeromem>
    100e00a4:	f0000080 	adrp	x0, 100f3000 <psci_locks>
    100e00a8:	91000000 	add	x0, x0, #0x0
    100e00ac:	f0000081 	adrp	x1, 100f3000 <psci_locks>
    100e00b0:	91006021 	add	x1, x1, #0x18
    100e00b4:	cb000021 	sub	x1, x1, x0
    100e00b8:	94001775 	bl	100e5e8c <zeromem>
    100e00bc:	d50040bf 	msr	spsel, #0x0
    100e00c0:	9400159f 	bl	100e573c <plat_set_my_stack>
    100e00c4:	aa1403e0 	mov	x0, x20
    100e00c8:	aa1503e1 	mov	x1, x21
    100e00cc:	aa1603e2 	mov	x2, x22
    100e00d0:	aa1703e3 	mov	x3, x23
    100e00d4:	9400004d 	bl	100e0208 <bl31_early_platform_setup2>
    100e00d8:	9400008b 	bl	100e0304 <bl31_plat_arch_setup>
    100e00dc:	940002ae 	bl	100e0b94 <bl31_main>
    100e00e0:	10047900 	adr	x0, 100e9000 <__RODATA_END__>
    100e00e4:	10047ca1 	adr	x1, 100e9078 <__DATA_END__>
    100e00e8:	cb000021 	sub	x1, x1, x0
    100e00ec:	9400170d 	bl	100e5d20 <clean_dcache_range>
    100e00f0:	10067c80 	adr	x0, 100ed080 <__STACKS_END__>
    100e00f4:	10073ce1 	adr	x1, 100ee890 <__BSS_END__>
    100e00f8:	cb000021 	sub	x1, x1, x0
    100e00fc:	94001709 	bl	100e5d20 <clean_dcache_range>
    100e0100:	140016a3 	b	100e5b8c <el3_exit>

00000000100e0104 <bl31_warm_entrypoint>:
    100e0104:	100337e0 	adr	x0, 100e6800 <sync_exception_sp_el0>
    100e0108:	d51ec000 	msr	vbar_el3, x0
    100e010c:	d5033fdf 	isb
    100e0110:	94001599 	bl	100e5774 <reset_handler>
    100e0114:	d2820141 	mov	x1, #0x100a                	// #4106
    100e0118:	d53e1000 	mrs	x0, sctlr_el3
    100e011c:	aa010000 	orr	x0, x0, x1
    100e0120:	d51e1000 	msr	sctlr_el3, x0
    100e0124:	d5033fdf 	isb
    100e0128:	94001589 	bl	100e574c <init_cpu_data_ptr>
    100e012c:	d2804700 	mov	x0, #0x238                 	// #568
    100e0130:	f2a00060 	movk	x0, #0x3, lsl #16
    100e0134:	d51e1100 	msr	scr_el3, x0
    100e0138:	d2900000 	mov	x0, #0x8000                	// #32768
    100e013c:	f2a00020 	movk	x0, #0x1, lsl #16
    100e0140:	d51e1320 	msr	mdcr_el3, x0
    100e0144:	d50344ff 	msr	daifclr, #0x4
    100e0148:	d2800000 	mov	x0, #0x0                   	// #0
    100e014c:	d51e1140 	msr	cptr_el3, x0
    100e0150:	d5380400 	mrs	x0, id_aa64pfr0_el1
    100e0154:	d370cc00 	ubfx	x0, x0, #48, #4
    100e0158:	f100041f 	cmp	x0, #0x1
    100e015c:	54000061 	b.ne	100e0168 <bl31_warm_entrypoint+0x64>  // b.any
    100e0160:	d2a02000 	mov	x0, #0x1000000             	// #16777216
    100e0164:	d51b42a0 	msr	dit, x0
    100e0168:	d50040bf 	msr	spsel, #0x0
    100e016c:	94001574 	bl	100e573c <plat_set_my_stack>
    100e0170:	d2800020 	mov	x0, #0x1                   	// #1
    100e0174:	94001790 	bl	100e5fb4 <bl31_plat_enable_mmu>
    100e0178:	940008a8 	bl	100e2418 <psci_warmboot_entrypoint>
    100e017c:	14001684 	b	100e5b8c <el3_exit>

00000000100e0180 <plat_get_target_pwr_state>:
    100e0180:	350000e2 	cbnz	w2, 100e019c <plat_get_target_pwr_state+0x1c>
    100e0184:	a9bf7bfd 	stp	x29, x30, [sp, #-16]!
    100e0188:	f0000020 	adrp	x0, 100e7000 <__TEXT_END__>
    100e018c:	9100e800 	add	x0, x0, #0x3a
    100e0190:	910003fd 	mov	x29, sp
    100e0194:	528013a1 	mov	w1, #0x9d                  	// #157
    100e0198:	94001815 	bl	100e61ec <__assert>
    100e019c:	d2800003 	mov	x3, #0x0                   	// #0
    100e01a0:	52800040 	mov	w0, #0x2                   	// #2
    100e01a4:	38636824 	ldrb	w4, [x1, x3]
    100e01a8:	91000463 	add	x3, x3, #0x1
    100e01ac:	6b00009f 	cmp	w4, w0
    100e01b0:	1a809080 	csel	w0, w4, w0, ls  // ls = plast
    100e01b4:	6b03005f 	cmp	w2, w3
    100e01b8:	12001c00 	and	w0, w0, #0xff
    100e01bc:	54ffff41 	b.ne	100e01a4 <plat_get_target_pwr_state+0x24>  // b.any
    100e01c0:	d65f03c0 	ret

00000000100e01c4 <bl31_plat_get_next_image_ep_info>:
    100e01c4:	7100041f 	cmp	w0, #0x1
    100e01c8:	540000e9 	b.ls	100e01e4 <bl31_plat_get_next_image_ep_info+0x20>  // b.plast
    100e01cc:	a9bf7bfd 	stp	x29, x30, [sp, #-16]!
    100e01d0:	f0000020 	adrp	x0, 100e7000 <__TEXT_END__>
    100e01d4:	9101d000 	add	x0, x0, #0x74
    100e01d8:	910003fd 	mov	x29, sp
    100e01dc:	528004e1 	mov	w1, #0x27                  	// #39
    100e01e0:	94001803 	bl	100e61ec <__assert>
    100e01e4:	b0000061 	adrp	x1, 100ed000 <__STACKS_START__+0x3f80>
    100e01e8:	b0000060 	adrp	x0, 100ed000 <__STACKS_START__+0x3f80>
    100e01ec:	91020021 	add	x1, x1, #0x80
    100e01f0:	91036000 	add	x0, x0, #0xd8
    100e01f4:	9a810000 	csel	x0, x0, x1, eq  // eq = none
    100e01f8:	f9400401 	ldr	x1, [x0, #8]
    100e01fc:	f100003f 	cmp	x1, #0x0
    100e0200:	9a9f1000 	csel	x0, x0, xzr, ne  // ne = any
    100e0204:	d65f03c0 	ret

00000000100e0208 <bl31_early_platform_setup2>:
    100e0208:	a9bd7bfd 	stp	x29, x30, [sp, #-48]!
    100e020c:	910003fd 	mov	x29, sp
    100e0210:	a90153f3 	stp	x19, x20, [sp, #16]
    100e0214:	aa0003f3 	mov	x19, x0
    100e0218:	aa0103f4 	mov	x20, x1
    100e021c:	f90013f5 	str	x21, [sp, #32]
    100e0220:	94001067 	bl	100e43bc <rpi3_console_init>
    100e0224:	d28d2f00 	mov	x0, #0x6978                	// #27000
    100e0228:	f2a96b40 	movk	x0, #0x4b5a, lsl #16
    100e022c:	f2c5a780 	movk	x0, #0x2d3c, lsl #32
    100e0230:	f2e1e3c0 	movk	x0, #0xf1e, lsl #48
    100e0234:	eb00029f 	cmp	x20, x0
    100e0238:	540000a0 	b.eq	100e024c <bl31_early_platform_setup2+0x44>  // b.none
    100e023c:	528008e1 	mov	w1, #0x47                  	// #71
    100e0240:	f0000020 	adrp	x0, 100e7000 <__TEXT_END__>
    100e0244:	9101d000 	add	x0, x0, #0x74
    100e0248:	940017e9 	bl	100e61ec <__assert>
    100e024c:	b5000073 	cbnz	x19, 100e0258 <bl31_early_platform_setup2+0x50>
    100e0250:	52800981 	mov	w1, #0x4c                  	// #76
    100e0254:	17fffffb 	b	100e0240 <bl31_early_platform_setup2+0x38>
    100e0258:	39400260 	ldrb	w0, [x19]
    100e025c:	7100141f 	cmp	w0, #0x5
    100e0260:	54000060 	b.eq	100e026c <bl31_early_platform_setup2+0x64>  // b.none
    100e0264:	528009a1 	mov	w1, #0x4d                  	// #77
    100e0268:	17fffff6 	b	100e0240 <bl31_early_platform_setup2+0x38>
    100e026c:	39400660 	ldrb	w0, [x19, #1]
    100e0270:	7100041f 	cmp	w0, #0x1
    100e0274:	54000068 	b.hi	100e0280 <bl31_early_platform_setup2+0x78>  // b.pmore
    100e0278:	528009c1 	mov	w1, #0x4e                  	// #78
    100e027c:	17fffff1 	b	100e0240 <bl31_early_platform_setup2+0x38>
    100e0280:	f9400673 	ldr	x19, [x19, #8]
    100e0284:	b0000074 	adrp	x20, 100ed000 <__STACKS_START__+0x3f80>
    100e0288:	91036294 	add	x20, x20, #0xd8
    100e028c:	b0000075 	adrp	x21, 100ed000 <__STACKS_START__+0x3f80>
    100e0290:	910202b5 	add	x21, x21, #0x80
    100e0294:	b5000133 	cbnz	x19, 100e02b8 <bl31_early_platform_setup2+0xb0>
    100e0298:	b0000060 	adrp	x0, 100ed000 <__STACKS_START__+0x3f80>
    100e029c:	f9407000 	ldr	x0, [x0, #224]
    100e02a0:	b50002a0 	cbnz	x0, 100e02f4 <bl31_early_platform_setup2+0xec>
    100e02a4:	f0000020 	adrp	x0, 100e7000 <__TEXT_END__>
    100e02a8:	91016400 	add	x0, x0, #0x59
    100e02ac:	94000ff1 	bl	100e4270 <backtrace>
    100e02b0:	94000f8e 	bl	100e40e8 <console_flush>
    100e02b4:	9400167c 	bl	100e5ca4 <do_panic>
    100e02b8:	b9400260 	ldr	w0, [x19]
    100e02bc:	7100101f 	cmp	w0, #0x4
    100e02c0:	540000e1 	b.ne	100e02dc <bl31_early_platform_setup2+0xd4>  // b.any
    100e02c4:	f9400a61 	ldr	x1, [x19, #16]
    100e02c8:	aa1503e0 	mov	x0, x21
    100e02cc:	d2800b02 	mov	x2, #0x58                  	// #88
    100e02d0:	940017d3 	bl	100e621c <memcpy>
    100e02d4:	f9400e73 	ldr	x19, [x19, #24]
    100e02d8:	17ffffef 	b	100e0294 <bl31_early_platform_setup2+0x8c>
    100e02dc:	7100141f 	cmp	w0, #0x5
    100e02e0:	54ffffa1 	b.ne	100e02d4 <bl31_early_platform_setup2+0xcc>  // b.any
    100e02e4:	d2800b02 	mov	x2, #0x58                  	// #88
    100e02e8:	aa1403e0 	mov	x0, x20
    100e02ec:	f9400a61 	ldr	x1, [x19, #16]
    100e02f0:	17fffff8 	b	100e02d0 <bl31_early_platform_setup2+0xc8>
    100e02f4:	a94153f3 	ldp	x19, x20, [sp, #16]
    100e02f8:	f94013f5 	ldr	x21, [sp, #32]
    100e02fc:	a8c37bfd 	ldp	x29, x30, [sp], #48
    100e0300:	d65f03c0 	ret

00000000100e0304 <bl31_plat_arch_setup>:
    100e0304:	a9bf7bfd 	stp	x29, x30, [sp, #-16]!
    100e0308:	900000a0 	adrp	x0, 100f4000 <__BL31_END__>
    100e030c:	91000000 	add	x0, x0, #0x0
    100e0310:	910003fd 	mov	x29, sp
    100e0314:	900000a7 	adrp	x7, 100f4000 <__BL31_END__>
    100e0318:	910000e7 	add	x7, x7, #0x0
    100e031c:	f0000086 	adrp	x6, 100f3000 <psci_locks>
    100e0320:	910000c6 	add	x6, x6, #0x0
    100e0324:	b0000045 	adrp	x5, 100e9000 <__RODATA_END__>
    100e0328:	910000a5 	add	x5, x5, #0x0
    100e032c:	f0000024 	adrp	x4, 100e7000 <__TEXT_END__>
    100e0330:	91000084 	add	x4, x4, #0x0
    100e0334:	f0000023 	adrp	x3, 100e7000 <__TEXT_END__>
    100e0338:	91000063 	add	x3, x3, #0x0
    100e033c:	90000002 	adrp	x2, 100e0000 <bl31_entrypoint>
    100e0340:	91000042 	add	x2, x2, #0x0
    100e0344:	929fffe1 	mov	x1, #0xffffffffffff0000    	// #-65536
    100e0348:	f2bdfe41 	movk	x1, #0xeff2, lsl #16
    100e034c:	8b010001 	add	x1, x0, x1
    100e0350:	d2a201c0 	mov	x0, #0x100e0000            	// #269352960
    100e0354:	94001032 	bl	100e441c <rpi3_setup_page_tables>
    100e0358:	a8c17bfd 	ldp	x29, x30, [sp], #16
    100e035c:	52800000 	mov	w0, #0x0                   	// #0
    100e0360:	14001148 	b	100e4880 <enable_mmu_el3>

00000000100e0364 <bl31_platform_setup>:
    100e0364:	a9bd7bfd 	stp	x29, x30, [sp, #-48]!
    100e0368:	f0000020 	adrp	x0, 100e7000 <__TEXT_END__>
    100e036c:	91024000 	add	x0, x0, #0x90
    100e0370:	910003fd 	mov	x29, sp
    100e0374:	a90153f3 	stp	x19, x20, [sp, #16]
    100e0378:	94000ece 	bl	100e3eb0 <tf_log>
    100e037c:	d2a00020 	mov	x0, #0x10000               	// #65536
    100e0380:	940000ad 	bl	100e0634 <fdt_check_header>
    100e0384:	350004a0 	cbnz	w0, 100e0418 <bl31_platform_setup+0xb4>
    100e0388:	2a0003f3 	mov	w19, w0
    100e038c:	d2a00020 	mov	x0, #0x10000               	// #65536
    100e0390:	940000ea 	bl	100e0738 <fdt_num_mem_rsv>
    100e0394:	2a0003f4 	mov	w20, w0
    100e0398:	7100001f 	cmp	w0, #0x0
    100e039c:	540003ed 	b.le	100e0418 <bl31_platform_setup+0xb4>
    100e03a0:	9100a3e3 	add	x3, sp, #0x28
    100e03a4:	910083e2 	add	x2, sp, #0x20
    100e03a8:	2a1303e1 	mov	w1, w19
    100e03ac:	d2a00020 	mov	x0, #0x10000               	// #65536
    100e03b0:	940000c7 	bl	100e06cc <fdt_get_mem_rsv>
    100e03b4:	35000380 	cbnz	w0, 100e0424 <bl31_platform_setup+0xc0>
    100e03b8:	f94013e0 	ldr	x0, [sp, #32]
    100e03bc:	b5000340 	cbnz	x0, 100e0424 <bl31_platform_setup+0xc0>
    100e03c0:	2a1303e1 	mov	w1, w19
    100e03c4:	d2a00020 	mov	x0, #0x10000               	// #65536
    100e03c8:	94000197 	bl	100e0a24 <fdt_del_mem_rsv>
    100e03cc:	340000a0 	cbz	w0, 100e03e0 <bl31_platform_setup+0x7c>
    100e03d0:	2a0003e1 	mov	w1, w0
    100e03d4:	f0000020 	adrp	x0, 100e7000 <__TEXT_END__>
    100e03d8:	9102a000 	add	x0, x0, #0xa8
    100e03dc:	94000eb5 	bl	100e3eb0 <tf_log>
    100e03e0:	d2a00202 	mov	x2, #0x100000              	// #1048576
    100e03e4:	d2a20001 	mov	x1, #0x10000000            	// #268435456
    100e03e8:	d2a00020 	mov	x0, #0x10000               	// #65536
    100e03ec:	94000168 	bl	100e098c <fdt_add_mem_rsv>
    100e03f0:	340000a0 	cbz	w0, 100e0404 <bl31_platform_setup+0xa0>
    100e03f4:	2a0003e1 	mov	w1, w0
    100e03f8:	f0000020 	adrp	x0, 100e7000 <__TEXT_END__>
    100e03fc:	91035400 	add	x0, x0, #0xd5
    100e0400:	94000eac 	bl	100e3eb0 <tf_log>
    100e0404:	f0000020 	adrp	x0, 100e7000 <__TEXT_END__>
    100e0408:	9103fc00 	add	x0, x0, #0xff
    100e040c:	d2a20202 	mov	x2, #0x10100000            	// #269484032
    100e0410:	d2a20001 	mov	x1, #0x10000000            	// #268435456
    100e0414:	94000ea7 	bl	100e3eb0 <tf_log>
    100e0418:	a94153f3 	ldp	x19, x20, [sp, #16]
    100e041c:	a8c37bfd 	ldp	x29, x30, [sp], #48
    100e0420:	d65f03c0 	ret
    100e0424:	11000673 	add	w19, w19, #0x1
    100e0428:	6b13029f 	cmp	w20, w19
    100e042c:	54fffba1 	b.ne	100e03a0 <bl31_platform_setup+0x3c>  // b.any
    100e0430:	17ffffec 	b	100e03e0 <bl31_platform_setup+0x7c>

00000000100e0434 <rpi3_watchdog_reset>:
    100e0434:	a9bf7bfd 	stp	x29, x30, [sp, #-16]!
    100e0438:	910003fd 	mov	x29, sp
    100e043c:	94000f2b 	bl	100e40e8 <console_flush>
    100e0440:	d5033f9f 	dsb	sy
    100e0444:	d5033fdf 	isb
    100e0448:	d2800480 	mov	x0, #0x24                  	// #36
    100e044c:	f2a7e200 	movk	x0, #0x3f10, lsl #16
    100e0450:	52800141 	mov	w1, #0xa                   	// #10
    100e0454:	72ab4001 	movk	w1, #0x5a00, lsl #16
    100e0458:	b9000001 	str	w1, [x0]
    100e045c:	d2800381 	mov	x1, #0x1c                  	// #28
    100e0460:	f2a7e201 	movk	x1, #0x3f10, lsl #16
    100e0464:	52800402 	mov	w2, #0x20                  	// #32
    100e0468:	72ab4002 	movk	w2, #0x5a00, lsl #16
    100e046c:	b9400020 	ldr	w0, [x1]
    100e0470:	121a7400 	and	w0, w0, #0xffffffcf
    100e0474:	2a020000 	orr	w0, w0, w2
    100e0478:	b9000020 	str	w0, [x1]
    100e047c:	d503207f 	wfi
    100e0480:	17ffffff 	b	100e047c <rpi3_watchdog_reset+0x48>

00000000100e0484 <rpi3_system_reset>:
    100e0484:	f0000020 	adrp	x0, 100e7000 <__TEXT_END__>
    100e0488:	91087400 	add	x0, x0, #0x21d
    100e048c:	a9bf7bfd 	stp	x29, x30, [sp, #-16]!
    100e0490:	910003fd 	mov	x29, sp
    100e0494:	94000e87 	bl	100e3eb0 <tf_log>
    100e0498:	97ffffe7 	bl	100e0434 <rpi3_watchdog_reset>

00000000100e049c <rpi3_system_off>:
    100e049c:	a9bf7bfd 	stp	x29, x30, [sp, #-16]!
    100e04a0:	f0000020 	adrp	x0, 100e7000 <__TEXT_END__>
    100e04a4:	9107b000 	add	x0, x0, #0x1ec
    100e04a8:	910003fd 	mov	x29, sp
    100e04ac:	94000e81 	bl	100e3eb0 <tf_log>
    100e04b0:	d2800401 	mov	x1, #0x20                  	// #32
    100e04b4:	f2a7e201 	movk	x1, #0x3f10, lsl #16
    100e04b8:	5280aaa2 	mov	w2, #0x555                 	// #1365
    100e04bc:	72ab4002 	movk	w2, #0x5a00, lsl #16
    100e04c0:	b9400020 	ldr	w0, [x1]
    100e04c4:	2a020000 	orr	w0, w0, w2
    100e04c8:	b9000020 	str	w0, [x1]
    100e04cc:	97ffffda 	bl	100e0434 <rpi3_watchdog_reset>

00000000100e04d0 <rpi3_pwr_domain_on_finish>:
    100e04d0:	39400000 	ldrb	w0, [x0]
    100e04d4:	7100081f 	cmp	w0, #0x2
    100e04d8:	540000e0 	b.eq	100e04f4 <rpi3_pwr_domain_on_finish+0x24>  // b.none
    100e04dc:	a9bf7bfd 	stp	x29, x30, [sp, #-16]!
    100e04e0:	f0000020 	adrp	x0, 100e7000 <__TEXT_END__>
    100e04e4:	91076000 	add	x0, x0, #0x1d8
    100e04e8:	910003fd 	mov	x29, sp
    100e04ec:	52801241 	mov	w1, #0x92                  	// #146
    100e04f0:	9400173f 	bl	100e61ec <__assert>
    100e04f4:	d65f03c0 	ret

00000000100e04f8 <rpi3_validate_power_state>:
    100e04f8:	b40000e1 	cbz	x1, 100e0514 <rpi3_validate_power_state+0x1c>
    100e04fc:	f0000022 	adrp	x2, 100e7000 <__TEXT_END__>
    100e0500:	91072042 	add	x2, x2, #0x1c8
    100e0504:	b9400043 	ldr	w3, [x2]
    100e0508:	35000123 	cbnz	w3, 100e052c <rpi3_validate_power_state+0x34>
    100e050c:	12800020 	mov	w0, #0xfffffffe            	// #-2
    100e0510:	d65f03c0 	ret
    100e0514:	a9bf7bfd 	stp	x29, x30, [sp, #-16]!
    100e0518:	f0000020 	adrp	x0, 100e7000 <__TEXT_END__>
    100e051c:	91076000 	add	x0, x0, #0x1d8
    100e0520:	910003fd 	mov	x29, sp
    100e0524:	528008a1 	mov	w1, #0x45                  	// #69
    100e0528:	94001731 	bl	100e61ec <__assert>
    100e052c:	91001042 	add	x2, x2, #0x4
    100e0530:	6b00007f 	cmp	w3, w0
    100e0534:	54fffe81 	b.ne	100e0504 <rpi3_validate_power_state+0xc>  // b.any
    100e0538:	12003c00 	and	w0, w0, #0xffff
    100e053c:	14000004 	b	100e054c <rpi3_validate_power_state+0x54>
    100e0540:	12000c02 	and	w2, w0, #0xf
    100e0544:	53047c00 	lsr	w0, w0, #4
    100e0548:	38001422 	strb	w2, [x1], #1
    100e054c:	35ffffa0 	cbnz	w0, 100e0540 <rpi3_validate_power_state+0x48>
    100e0550:	d65f03c0 	ret

00000000100e0554 <rpi3_cpu_standby>:
    100e0554:	12001c00 	and	w0, w0, #0xff
    100e0558:	7100041f 	cmp	w0, #0x1
    100e055c:	540000e0 	b.eq	100e0578 <rpi3_cpu_standby+0x24>  // b.none
    100e0560:	a9bf7bfd 	stp	x29, x30, [sp, #-16]!
    100e0564:	f0000020 	adrp	x0, 100e7000 <__TEXT_END__>
    100e0568:	91076000 	add	x0, x0, #0x1d8
    100e056c:	910003fd 	mov	x29, sp
    100e0570:	52800d21 	mov	w1, #0x69                  	// #105
    100e0574:	9400171e 	bl	100e61ec <__assert>
    100e0578:	d5033f9f 	dsb	sy
    100e057c:	d503207f 	wfi
    100e0580:	d65f03c0 	ret

00000000100e0584 <rpi3_pwr_domain_on>:
    100e0584:	a9bf7bfd 	stp	x29, x30, [sp, #-16]!
    100e0588:	910003fd 	mov	x29, sp
    100e058c:	9400001b 	bl	100e05f8 <plat_core_pos_by_mpidr>
    100e0590:	71000c1f 	cmp	w0, #0x3
    100e0594:	540000a9 	b.ls	100e05a8 <rpi3_pwr_domain_on+0x24>  // b.plast
    100e0598:	f0000020 	adrp	x0, 100e7000 <__TEXT_END__>
    100e059c:	91076000 	add	x0, x0, #0x1d8
    100e05a0:	52800fa1 	mov	w1, #0x7d                  	// #125
    100e05a4:	94001712 	bl	100e61ec <__assert>
    100e05a8:	d2a20001 	mov	x1, #0x10000000            	// #268435456
    100e05ac:	8b204c20 	add	x0, x1, w0, uxtw #3
    100e05b0:	d2800021 	mov	x1, #0x1                   	// #1
    100e05b4:	f9000401 	str	x1, [x0, #8]
    100e05b8:	d5033f9f 	dsb	sy
    100e05bc:	d5033fdf 	isb
    100e05c0:	d503209f 	sev
    100e05c4:	52800000 	mov	w0, #0x0                   	// #0
    100e05c8:	a8c17bfd 	ldp	x29, x30, [sp], #16
    100e05cc:	d65f03c0 	ret

00000000100e05d0 <plat_setup_psci_ops>:
    100e05d0:	d2a20002 	mov	x2, #0x10000000            	// #268435456
    100e05d4:	f9000040 	str	x0, [x2]
    100e05d8:	f0000020 	adrp	x0, 100e7000 <__TEXT_END__>
    100e05dc:	9104a000 	add	x0, x0, #0x128
    100e05e0:	f9000020 	str	x0, [x1]
    100e05e4:	52800000 	mov	w0, #0x0                   	// #0
    100e05e8:	d65f03c0 	ret

00000000100e05ec <plat_get_power_domain_tree_desc>:
    100e05ec:	b0000040 	adrp	x0, 100e9000 <__RODATA_END__>
    100e05f0:	91000000 	add	x0, x0, #0x0
    100e05f4:	d65f03c0 	ret

00000000100e05f8 <plat_core_pos_by_mpidr>:
    100e05f8:	aa0003e1 	mov	x1, x0
    100e05fc:	92409c00 	and	x0, x0, #0xffffffffff
    100e0600:	92705c21 	and	x1, x1, #0xffffff0000
    100e0604:	9260dc00 	and	x0, x0, #0xffffffff00ffffff
    100e0608:	9260dc21 	and	x1, x1, #0xffffffff00ffffff
    100e060c:	b50000c1 	cbnz	x1, 100e0624 <plat_core_pos_by_mpidr+0x2c>
    100e0610:	53083c01 	ubfx	w1, w0, #8, #8
    100e0614:	121e1402 	and	w2, w0, #0xfc
    100e0618:	2a020021 	orr	w1, w1, w2
    100e061c:	35000041 	cbnz	w1, 100e0624 <plat_core_pos_by_mpidr+0x2c>
    100e0620:	14001334 	b	100e52f0 <plat_rpi3_calc_core_pos>
    100e0624:	12800000 	mov	w0, #0xffffffff            	// #-1
    100e0628:	d65f03c0 	ret

00000000100e062c <fdt32_to_cpu>:
    100e062c:	5ac00800 	rev	w0, w0
    100e0630:	d65f03c0 	ret

00000000100e0634 <fdt_check_header>:
    100e0634:	a9bf7bfd 	stp	x29, x30, [sp, #-16]!
    100e0638:	aa0003e1 	mov	x1, x0
    100e063c:	910003fd 	mov	x29, sp
    100e0640:	b9400000 	ldr	w0, [x0]
    100e0644:	97fffffa 	bl	100e062c <fdt32_to_cpu>
    100e0648:	529fdda2 	mov	w2, #0xfeed                	// #65261
    100e064c:	72ba01a2 	movk	w2, #0xd00d, lsl #16
    100e0650:	6b02001f 	cmp	w0, w2
    100e0654:	54000181 	b.ne	100e0684 <fdt_check_header+0x50>  // b.any
    100e0658:	b9401420 	ldr	w0, [x1, #20]
    100e065c:	97fffff4 	bl	100e062c <fdt32_to_cpu>
    100e0660:	7100041f 	cmp	w0, #0x1
    100e0664:	54000249 	b.ls	100e06ac <fdt_check_header+0x78>  // b.plast
    100e0668:	b9401820 	ldr	w0, [x1, #24]
    100e066c:	97fffff0 	bl	100e062c <fdt32_to_cpu>
    100e0670:	7100441f 	cmp	w0, #0x11
    100e0674:	12800120 	mov	w0, #0xfffffff6            	// #-10
    100e0678:	1a8093e0 	csel	w0, wzr, w0, ls  // ls = plast
    100e067c:	a8c17bfd 	ldp	x29, x30, [sp], #16
    100e0680:	d65f03c0 	ret
    100e0684:	52802242 	mov	w2, #0x112                 	// #274
    100e0688:	72a5fe42 	movk	w2, #0x2ff2, lsl #16
    100e068c:	6b02001f 	cmp	w0, w2
    100e0690:	54000121 	b.ne	100e06b4 <fdt_check_header+0x80>  // b.any
    100e0694:	b9402420 	ldr	w0, [x1, #36]
    100e0698:	97ffffe5 	bl	100e062c <fdt32_to_cpu>
    100e069c:	7100001f 	cmp	w0, #0x0
    100e06a0:	128000c0 	mov	w0, #0xfffffff9            	// #-7
    100e06a4:	1a8013e0 	csel	w0, wzr, w0, ne  // ne = any
    100e06a8:	17fffff5 	b	100e067c <fdt_check_header+0x48>
    100e06ac:	12800120 	mov	w0, #0xfffffff6            	// #-10
    100e06b0:	17fffff3 	b	100e067c <fdt_check_header+0x48>
    100e06b4:	12800100 	mov	w0, #0xfffffff7            	// #-9
    100e06b8:	17fffff1 	b	100e067c <fdt_check_header+0x48>

00000000100e06bc <fdt32_to_cpu>:
    100e06bc:	5ac00800 	rev	w0, w0
    100e06c0:	d65f03c0 	ret

00000000100e06c4 <fdt64_to_cpu>:
    100e06c4:	dac00c00 	rev	x0, x0
    100e06c8:	d65f03c0 	ret

00000000100e06cc <fdt_get_mem_rsv>:
    100e06cc:	a9bd7bfd 	stp	x29, x30, [sp, #-48]!
    100e06d0:	910003fd 	mov	x29, sp
    100e06d4:	a90153f3 	stp	x19, x20, [sp, #16]
    100e06d8:	2a0103f3 	mov	w19, w1
    100e06dc:	aa0003f4 	mov	x20, x0
    100e06e0:	a9025bf5 	stp	x21, x22, [sp, #32]
    100e06e4:	aa0203f6 	mov	x22, x2
    100e06e8:	aa0303f5 	mov	x21, x3
    100e06ec:	97ffffd2 	bl	100e0634 <fdt_check_header>
    100e06f0:	2a0003e1 	mov	w1, w0
    100e06f4:	35000180 	cbnz	w0, 100e0724 <fdt_get_mem_rsv+0x58>
    100e06f8:	b9401280 	ldr	w0, [x20, #16]
    100e06fc:	97fffff0 	bl	100e06bc <fdt32_to_cpu>
    100e0700:	2a0003e0 	mov	w0, w0
    100e0704:	8b33d000 	add	x0, x0, w19, sxtw #4
    100e0708:	8b000282 	add	x2, x20, x0
    100e070c:	f8606a80 	ldr	x0, [x20, x0]
    100e0710:	97ffffed 	bl	100e06c4 <fdt64_to_cpu>
    100e0714:	f90002c0 	str	x0, [x22]
    100e0718:	f9400440 	ldr	x0, [x2, #8]
    100e071c:	97ffffea 	bl	100e06c4 <fdt64_to_cpu>
    100e0720:	f90002a0 	str	x0, [x21]
    100e0724:	2a0103e0 	mov	w0, w1
    100e0728:	a94153f3 	ldp	x19, x20, [sp, #16]
    100e072c:	a9425bf5 	ldp	x21, x22, [sp, #32]
    100e0730:	a8c37bfd 	ldp	x29, x30, [sp], #48
    100e0734:	d65f03c0 	ret

00000000100e0738 <fdt_num_mem_rsv>:
    100e0738:	a9bf7bfd 	stp	x29, x30, [sp, #-16]!
    100e073c:	aa0003e1 	mov	x1, x0
    100e0740:	910003fd 	mov	x29, sp
    100e0744:	b9401000 	ldr	w0, [x0, #16]
    100e0748:	97ffffdd 	bl	100e06bc <fdt32_to_cpu>
    100e074c:	8b204021 	add	x1, x1, w0, uxtw
    100e0750:	52800002 	mov	w2, #0x0                   	// #0
    100e0754:	f9400420 	ldr	x0, [x1, #8]
    100e0758:	97ffffdb 	bl	100e06c4 <fdt64_to_cpu>
    100e075c:	91004021 	add	x1, x1, #0x10
    100e0760:	b5000080 	cbnz	x0, 100e0770 <fdt_num_mem_rsv+0x38>
    100e0764:	2a0203e0 	mov	w0, w2
    100e0768:	a8c17bfd 	ldp	x29, x30, [sp], #16
    100e076c:	d65f03c0 	ret
    100e0770:	11000442 	add	w2, w2, #0x1
    100e0774:	17fffff8 	b	100e0754 <fdt_num_mem_rsv+0x1c>

00000000100e0778 <cpu_to_fdt32>:
    100e0778:	5ac00800 	rev	w0, w0
    100e077c:	d65f03c0 	ret

00000000100e0780 <cpu_to_fdt64>:
    100e0780:	dac00c00 	rev	x0, x0
    100e0784:	d65f03c0 	ret

00000000100e0788 <fdt_blocks_misordered_>:
    100e0788:	a9bf7bfd 	stp	x29, x30, [sp, #-16]!
    100e078c:	aa0003e3 	mov	x3, x0
    100e0790:	910003fd 	mov	x29, sp
    100e0794:	b9401000 	ldr	w0, [x0, #16]
    100e0798:	97fffff8 	bl	100e0778 <cpu_to_fdt32>
    100e079c:	71009c1f 	cmp	w0, #0x27
    100e07a0:	54000309 	b.ls	100e0800 <fdt_blocks_misordered_+0x78>  // b.plast
    100e07a4:	2a0003e5 	mov	w5, w0
    100e07a8:	b9400860 	ldr	w0, [x3, #8]
    100e07ac:	97fffff3 	bl	100e0778 <cpu_to_fdt32>
    100e07b0:	0b050021 	add	w1, w1, w5
    100e07b4:	2a0003e4 	mov	w4, w0
    100e07b8:	6b01001f 	cmp	w0, w1
    100e07bc:	54000223 	b.cc	100e0800 <fdt_blocks_misordered_+0x78>  // b.lo, b.ul, b.last
    100e07c0:	b9400c60 	ldr	w0, [x3, #12]
    100e07c4:	97ffffed 	bl	100e0778 <cpu_to_fdt32>
    100e07c8:	0b040042 	add	w2, w2, w4
    100e07cc:	2a0003e1 	mov	w1, w0
    100e07d0:	6b02001f 	cmp	w0, w2
    100e07d4:	54000163 	b.cc	100e0800 <fdt_blocks_misordered_+0x78>  // b.lo, b.ul, b.last
    100e07d8:	b9400460 	ldr	w0, [x3, #4]
    100e07dc:	97ffffe7 	bl	100e0778 <cpu_to_fdt32>
    100e07e0:	2a0003e2 	mov	w2, w0
    100e07e4:	b9402060 	ldr	w0, [x3, #32]
    100e07e8:	97ffffe4 	bl	100e0778 <cpu_to_fdt32>
    100e07ec:	0b000020 	add	w0, w1, w0
    100e07f0:	6b00005f 	cmp	w2, w0
    100e07f4:	1a9f27e0 	cset	w0, cc  // cc = lo, ul, last
    100e07f8:	a8c17bfd 	ldp	x29, x30, [sp], #16
    100e07fc:	d65f03c0 	ret
    100e0800:	52800020 	mov	w0, #0x1                   	// #1
    100e0804:	17fffffd 	b	100e07f8 <fdt_blocks_misordered_+0x70>

00000000100e0808 <fdt_rw_check_header_>:
    100e0808:	a9be7bfd 	stp	x29, x30, [sp, #-32]!
    100e080c:	910003fd 	mov	x29, sp
    100e0810:	f9000bf3 	str	x19, [sp, #16]
    100e0814:	aa0003f3 	mov	x19, x0
    100e0818:	97ffff87 	bl	100e0634 <fdt_check_header>
    100e081c:	35000220 	cbnz	w0, 100e0860 <fdt_rw_check_header_+0x58>
    100e0820:	b9401660 	ldr	w0, [x19, #20]
    100e0824:	97ffffd5 	bl	100e0778 <cpu_to_fdt32>
    100e0828:	2a0003e6 	mov	w6, w0
    100e082c:	7100401f 	cmp	w0, #0x10
    100e0830:	540001e9 	b.ls	100e086c <fdt_rw_check_header_+0x64>  // b.plast
    100e0834:	b9402660 	ldr	w0, [x19, #36]
    100e0838:	97ffffd0 	bl	100e0778 <cpu_to_fdt32>
    100e083c:	2a0003e2 	mov	w2, w0
    100e0840:	52800201 	mov	w1, #0x10                  	// #16
    100e0844:	aa1303e0 	mov	x0, x19
    100e0848:	97ffffd0 	bl	100e0788 <fdt_blocks_misordered_>
    100e084c:	35000140 	cbnz	w0, 100e0874 <fdt_rw_check_header_+0x6c>
    100e0850:	710044df 	cmp	w6, #0x11
    100e0854:	54000060 	b.eq	100e0860 <fdt_rw_check_header_+0x58>  // b.none
    100e0858:	52a22001 	mov	w1, #0x11000000            	// #285212672
    100e085c:	b9001661 	str	w1, [x19, #20]
    100e0860:	f9400bf3 	ldr	x19, [sp, #16]
    100e0864:	a8c27bfd 	ldp	x29, x30, [sp], #32
    100e0868:	d65f03c0 	ret
    100e086c:	12800120 	mov	w0, #0xfffffff6            	// #-10
    100e0870:	17fffffc 	b	100e0860 <fdt_rw_check_header_+0x58>
    100e0874:	12800160 	mov	w0, #0xfffffff4            	// #-12
    100e0878:	17fffffa 	b	100e0860 <fdt_rw_check_header_+0x58>

00000000100e087c <fdt_splice_>:
    100e087c:	a9bf7bfd 	stp	x29, x30, [sp, #-16]!
    100e0880:	aa0003e5 	mov	x5, x0
    100e0884:	910003fd 	mov	x29, sp
    100e0888:	b9400c00 	ldr	w0, [x0, #12]
    100e088c:	97ffffbb 	bl	100e0778 <cpu_to_fdt32>
    100e0890:	2a0003e4 	mov	w4, w0
    100e0894:	b94020a0 	ldr	w0, [x5, #32]
    100e0898:	97ffffb8 	bl	100e0778 <cpu_to_fdt32>
    100e089c:	0b000084 	add	w4, w4, w0
    100e08a0:	8b24c0a4 	add	x4, x5, w4, sxtw
    100e08a4:	37f80322 	tbnz	w2, #31, 100e0908 <fdt_splice_+0x8c>
    100e08a8:	93407c42 	sxtw	x2, w2
    100e08ac:	aa0103e6 	mov	x6, x1
    100e08b0:	8b020021 	add	x1, x1, x2
    100e08b4:	eb04003f 	cmp	x1, x4
    100e08b8:	54000288 	b.hi	100e0908 <fdt_splice_+0x8c>  // b.pmore
    100e08bc:	eb0500df 	cmp	x6, x5
    100e08c0:	54000243 	b.cc	100e0908 <fdt_splice_+0x8c>  // b.lo, b.ul, b.last
    100e08c4:	93407c63 	sxtw	x3, w3
    100e08c8:	cb020067 	sub	x7, x3, x2
    100e08cc:	8b070087 	add	x7, x4, x7
    100e08d0:	eb0500ff 	cmp	x7, x5
    100e08d4:	540001a3 	b.cc	100e0908 <fdt_splice_+0x8c>  // b.lo, b.ul, b.last
    100e08d8:	b94004a0 	ldr	w0, [x5, #4]
    100e08dc:	97ffffa7 	bl	100e0778 <cpu_to_fdt32>
    100e08e0:	8b2040a0 	add	x0, x5, w0, uxtw
    100e08e4:	eb0000ff 	cmp	x7, x0
    100e08e8:	54000148 	b.hi	100e0910 <fdt_splice_+0x94>  // b.pmore
    100e08ec:	cb060084 	sub	x4, x4, x6
    100e08f0:	8b0300c0 	add	x0, x6, x3
    100e08f4:	cb020082 	sub	x2, x4, x2
    100e08f8:	94001651 	bl	100e623c <memmove>
    100e08fc:	52800000 	mov	w0, #0x0                   	// #0
    100e0900:	a8c17bfd 	ldp	x29, x30, [sp], #16
    100e0904:	d65f03c0 	ret
    100e0908:	12800060 	mov	w0, #0xfffffffc            	// #-4
    100e090c:	17fffffd 	b	100e0900 <fdt_splice_+0x84>
    100e0910:	12800040 	mov	w0, #0xfffffffd            	// #-3
    100e0914:	17fffffb 	b	100e0900 <fdt_splice_+0x84>

00000000100e0918 <fdt_splice_mem_rsv_>:
    100e0918:	a9bd7bfd 	stp	x29, x30, [sp, #-48]!
    100e091c:	910003fd 	mov	x29, sp
    100e0920:	a90153f3 	stp	x19, x20, [sp, #16]
    100e0924:	aa0003f4 	mov	x20, x0
    100e0928:	2a0303f3 	mov	w19, w3
    100e092c:	531c6c63 	lsl	w3, w3, #4
    100e0930:	f90013f5 	str	x21, [sp, #32]
    100e0934:	2a0203f5 	mov	w21, w2
    100e0938:	531c6c42 	lsl	w2, w2, #4
    100e093c:	97ffffd0 	bl	100e087c <fdt_splice_>
    100e0940:	2a0003e1 	mov	w1, w0
    100e0944:	350001a0 	cbnz	w0, 100e0978 <fdt_splice_mem_rsv_+0x60>
    100e0948:	b9400a80 	ldr	w0, [x20, #8]
    100e094c:	4b150273 	sub	w19, w19, w21
    100e0950:	531c6e73 	lsl	w19, w19, #4
    100e0954:	97ffff89 	bl	100e0778 <cpu_to_fdt32>
    100e0958:	0b000260 	add	w0, w19, w0
    100e095c:	97ffff87 	bl	100e0778 <cpu_to_fdt32>
    100e0960:	b9000a80 	str	w0, [x20, #8]
    100e0964:	b9400e80 	ldr	w0, [x20, #12]
    100e0968:	97ffff84 	bl	100e0778 <cpu_to_fdt32>
    100e096c:	0b000260 	add	w0, w19, w0
    100e0970:	97ffff82 	bl	100e0778 <cpu_to_fdt32>
    100e0974:	b9000e80 	str	w0, [x20, #12]
    100e0978:	2a0103e0 	mov	w0, w1
    100e097c:	a94153f3 	ldp	x19, x20, [sp, #16]
    100e0980:	f94013f5 	ldr	x21, [sp, #32]
    100e0984:	a8c37bfd 	ldp	x29, x30, [sp], #48
    100e0988:	d65f03c0 	ret

00000000100e098c <fdt_add_mem_rsv>:
    100e098c:	a9bc7bfd 	stp	x29, x30, [sp, #-64]!
    100e0990:	910003fd 	mov	x29, sp
    100e0994:	a90153f3 	stp	x19, x20, [sp, #16]
    100e0998:	aa0003f3 	mov	x19, x0
    100e099c:	a9025bf5 	stp	x21, x22, [sp, #32]
    100e09a0:	aa0203f6 	mov	x22, x2
    100e09a4:	f9001bf7 	str	x23, [sp, #48]
    100e09a8:	aa0103f7 	mov	x23, x1
    100e09ac:	97ffff97 	bl	100e0808 <fdt_rw_check_header_>
    100e09b0:	2a0003e1 	mov	w1, w0
    100e09b4:	350002c0 	cbnz	w0, 100e0a0c <fdt_add_mem_rsv+0x80>
    100e09b8:	aa1303e0 	mov	x0, x19
    100e09bc:	97ffff5f 	bl	100e0738 <fdt_num_mem_rsv>
    100e09c0:	2a0003f4 	mov	w20, w0
    100e09c4:	b9401260 	ldr	w0, [x19, #16]
    100e09c8:	97ffff6c 	bl	100e0778 <cpu_to_fdt32>
    100e09cc:	2a0003e0 	mov	w0, w0
    100e09d0:	8b34d014 	add	x20, x0, w20, sxtw #4
    100e09d4:	52800023 	mov	w3, #0x1                   	// #1
    100e09d8:	8b140275 	add	x21, x19, x20
    100e09dc:	52800002 	mov	w2, #0x0                   	// #0
    100e09e0:	aa1503e1 	mov	x1, x21
    100e09e4:	aa1303e0 	mov	x0, x19
    100e09e8:	97ffffcc 	bl	100e0918 <fdt_splice_mem_rsv_>
    100e09ec:	2a0003e1 	mov	w1, w0
    100e09f0:	350000e0 	cbnz	w0, 100e0a0c <fdt_add_mem_rsv+0x80>
    100e09f4:	aa1703e0 	mov	x0, x23
    100e09f8:	97ffff62 	bl	100e0780 <cpu_to_fdt64>
    100e09fc:	f8346a60 	str	x0, [x19, x20]
    100e0a00:	aa1603e0 	mov	x0, x22
    100e0a04:	97ffff5f 	bl	100e0780 <cpu_to_fdt64>
    100e0a08:	f90006a0 	str	x0, [x21, #8]
    100e0a0c:	2a0103e0 	mov	w0, w1
    100e0a10:	a94153f3 	ldp	x19, x20, [sp, #16]
    100e0a14:	a9425bf5 	ldp	x21, x22, [sp, #32]
    100e0a18:	f9401bf7 	ldr	x23, [sp, #48]
    100e0a1c:	a8c47bfd 	ldp	x29, x30, [sp], #64
    100e0a20:	d65f03c0 	ret

00000000100e0a24 <fdt_del_mem_rsv>:
    100e0a24:	a9bd7bfd 	stp	x29, x30, [sp, #-48]!
    100e0a28:	910003fd 	mov	x29, sp
    100e0a2c:	a90153f3 	stp	x19, x20, [sp, #16]
    100e0a30:	aa0003f3 	mov	x19, x0
    100e0a34:	2a0103f4 	mov	w20, w1
    100e0a38:	f90013f5 	str	x21, [sp, #32]
    100e0a3c:	b9401015 	ldr	w21, [x0, #16]
    100e0a40:	97ffff72 	bl	100e0808 <fdt_rw_check_header_>
    100e0a44:	35000240 	cbnz	w0, 100e0a8c <fdt_del_mem_rsv+0x68>
    100e0a48:	aa1303e0 	mov	x0, x19
    100e0a4c:	97ffff3b 	bl	100e0738 <fdt_num_mem_rsv>
    100e0a50:	6b14001f 	cmp	w0, w20
    100e0a54:	540001ad 	b.le	100e0a88 <fdt_del_mem_rsv+0x64>
    100e0a58:	2a1503e0 	mov	w0, w21
    100e0a5c:	97ffff47 	bl	100e0778 <cpu_to_fdt32>
    100e0a60:	2a0003e0 	mov	w0, w0
    100e0a64:	52800003 	mov	w3, #0x0                   	// #0
    100e0a68:	8b34d001 	add	x1, x0, w20, sxtw #4
    100e0a6c:	aa1303e0 	mov	x0, x19
    100e0a70:	8b010261 	add	x1, x19, x1
    100e0a74:	52800022 	mov	w2, #0x1                   	// #1
    100e0a78:	a94153f3 	ldp	x19, x20, [sp, #16]
    100e0a7c:	f94013f5 	ldr	x21, [sp, #32]
    100e0a80:	a8c37bfd 	ldp	x29, x30, [sp], #48
    100e0a84:	17ffffa5 	b	100e0918 <fdt_splice_mem_rsv_>
    100e0a88:	12800000 	mov	w0, #0xffffffff            	// #-1
    100e0a8c:	a94153f3 	ldp	x19, x20, [sp, #16]
    100e0a90:	f94013f5 	ldr	x21, [sp, #32]
    100e0a94:	a8c37bfd 	ldp	x29, x30, [sp], #48
    100e0a98:	d65f03c0 	ret

00000000100e0a9c <get_arm_std_svc_args>:
    100e0a9c:	529ffc01 	mov	w1, #0xffe0                	// #65504
    100e0aa0:	6b01001f 	cmp	w0, w1
    100e0aa4:	540000e0 	b.eq	100e0ac0 <get_arm_std_svc_args+0x24>  // b.none
    100e0aa8:	a9bf7bfd 	stp	x29, x30, [sp, #-16]!
    100e0aac:	f0000020 	adrp	x0, 100e7000 <__TEXT_END__>
    100e0ab0:	910d9400 	add	x0, x0, #0x365
    100e0ab4:	910003fd 	mov	x29, sp
    100e0ab8:	528006a1 	mov	w1, #0x35                  	// #53
    100e0abc:	940015cc 	bl	100e61ec <__assert>
    100e0ac0:	f0000020 	adrp	x0, 100e7000 <__TEXT_END__>
    100e0ac4:	910de000 	add	x0, x0, #0x378
    100e0ac8:	d65f03c0 	ret

00000000100e0acc <bl31_prepare_next_image_entry>:
    100e0acc:	a9bd7bfd 	stp	x29, x30, [sp, #-48]!
    100e0ad0:	910003fd 	mov	x29, sp
    100e0ad4:	a90153f3 	stp	x19, x20, [sp, #16]
    100e0ad8:	f90013f5 	str	x21, [sp, #32]
    100e0adc:	d5380400 	mrs	x0, id_aa64pfr0_el1
    100e0ae0:	d3441c00 	ubfx	x0, x0, #4, #4
    100e0ae4:	f100041f 	cmp	x0, #0x1
    100e0ae8:	54000121 	b.ne	100e0b0c <bl31_prepare_next_image_entry+0x40>  // b.any
    100e0aec:	f0000020 	adrp	x0, 100e7000 <__TEXT_END__>
    100e0af0:	910ba800 	add	x0, x0, #0x2ea
    100e0af4:	94000cef 	bl	100e3eb0 <tf_log>
    100e0af8:	f0000020 	adrp	x0, 100e7000 <__TEXT_END__>
    100e0afc:	91094000 	add	x0, x0, #0x250
    100e0b00:	94000ddc 	bl	100e4270 <backtrace>
    100e0b04:	94000d79 	bl	100e40e8 <console_flush>
    100e0b08:	94001467 	bl	100e5ca4 <do_panic>
    100e0b0c:	b0000040 	adrp	x0, 100e9000 <__RODATA_END__>
    100e0b10:	b9400415 	ldr	w21, [x0, #4]
    100e0b14:	2a1503e0 	mov	w0, w21
    100e0b18:	97fffdab 	bl	100e01c4 <bl31_plat_get_next_image_ep_info>
    100e0b1c:	aa0003f4 	mov	x20, x0
    100e0b20:	b50000a0 	cbnz	x0, 100e0b34 <bl31_prepare_next_image_entry+0x68>
    100e0b24:	528015e1 	mov	w1, #0xaf                  	// #175
    100e0b28:	f0000020 	adrp	x0, 100e7000 <__TEXT_END__>
    100e0b2c:	910d9400 	add	x0, x0, #0x365
    100e0b30:	940015af 	bl	100e61ec <__assert>
    100e0b34:	b9400413 	ldr	w19, [x0, #4]
    100e0b38:	12000273 	and	w19, w19, #0x1
    100e0b3c:	6b15027f 	cmp	w19, w21
    100e0b40:	54000060 	b.eq	100e0b4c <bl31_prepare_next_image_entry+0x80>  // b.none
    100e0b44:	52801601 	mov	w1, #0xb0                  	// #176
    100e0b48:	17fffff8 	b	100e0b28 <bl31_prepare_next_image_entry+0x5c>
    100e0b4c:	7100027f 	cmp	w19, #0x0
    100e0b50:	f0000020 	adrp	x0, 100e7000 <__TEXT_END__>
    100e0b54:	f0000021 	adrp	x1, 100e7000 <__TEXT_END__>
    100e0b58:	910b8c00 	add	x0, x0, #0x2e3
    100e0b5c:	910b7021 	add	x1, x1, #0x2dc
    100e0b60:	9a800021 	csel	x1, x1, x0, eq  // eq = none
    100e0b64:	f0000020 	adrp	x0, 100e7000 <__TEXT_END__>
    100e0b68:	910ce800 	add	x0, x0, #0x33a
    100e0b6c:	94000cd1 	bl	100e3eb0 <tf_log>
    100e0b70:	aa1403e0 	mov	x0, x20
    100e0b74:	94000cc1 	bl	100e3e78 <print_entry_point_info>
    100e0b78:	aa1403e0 	mov	x0, x20
    100e0b7c:	940001f4 	bl	100e134c <cm_init_my_context>
    100e0b80:	2a1303e0 	mov	w0, w19
    100e0b84:	a94153f3 	ldp	x19, x20, [sp, #16]
    100e0b88:	f94013f5 	ldr	x21, [sp, #32]
    100e0b8c:	a8c37bfd 	ldp	x29, x30, [sp], #48
    100e0b90:	14000281 	b	100e1594 <cm_prepare_el3_exit>

00000000100e0b94 <bl31_main>:
    100e0b94:	a9be7bfd 	stp	x29, x30, [sp, #-32]!
    100e0b98:	f0000021 	adrp	x1, 100e7000 <__TEXT_END__>
    100e0b9c:	91007821 	add	x1, x1, #0x1e
    100e0ba0:	910003fd 	mov	x29, sp
    100e0ba4:	f9000bf3 	str	x19, [sp, #16]
    100e0ba8:	f0000033 	adrp	x19, 100e7000 <__TEXT_END__>
    100e0bac:	9109ba73 	add	x19, x19, #0x26e
    100e0bb0:	aa1303e0 	mov	x0, x19
    100e0bb4:	94000cbf 	bl	100e3eb0 <tf_log>
    100e0bb8:	aa1303e0 	mov	x0, x19
    100e0bbc:	f0000021 	adrp	x1, 100e7000 <__TEXT_END__>
    100e0bc0:	91000021 	add	x1, x1, #0x0
    100e0bc4:	94000cbb 	bl	100e3eb0 <tf_log>
    100e0bc8:	97fffde7 	bl	100e0364 <bl31_platform_setup>
    100e0bcc:	94000190 	bl	100e120c <cm_init>
    100e0bd0:	f0000020 	adrp	x0, 100e7000 <__TEXT_END__>
    100e0bd4:	9109e400 	add	x0, x0, #0x279
    100e0bd8:	94000cb6 	bl	100e3eb0 <tf_log>
    100e0bdc:	940000cc 	bl	100e0f0c <runtime_svc_init>
    100e0be0:	b0000073 	adrp	x19, 100ed000 <__STACKS_START__+0x3f80>
    100e0be4:	f9409a60 	ldr	x0, [x19, #304]
    100e0be8:	b4000140 	cbz	x0, 100e0c10 <bl31_main+0x7c>
    100e0bec:	f0000020 	adrp	x0, 100e7000 <__TEXT_END__>
    100e0bf0:	910a7c00 	add	x0, x0, #0x29f
    100e0bf4:	94000caf 	bl	100e3eb0 <tf_log>
    100e0bf8:	f9409a60 	ldr	x0, [x19, #304]
    100e0bfc:	d63f0000 	blr	x0
    100e0c00:	35000080 	cbnz	w0, 100e0c10 <bl31_main+0x7c>
    100e0c04:	f0000020 	adrp	x0, 100e7000 <__TEXT_END__>
    100e0c08:	910ae400 	add	x0, x0, #0x2b9
    100e0c0c:	94000ca9 	bl	100e3eb0 <tf_log>
    100e0c10:	97ffffaf 	bl	100e0acc <bl31_prepare_next_image_entry>
    100e0c14:	94000d35 	bl	100e40e8 <console_flush>
    100e0c18:	f9400bf3 	ldr	x19, [sp, #16]
    100e0c1c:	a8c27bfd 	ldp	x29, x30, [sp], #32
    100e0c20:	14000d59 	b	100e4184 <bl31_plat_runtime_setup>

00000000100e0c24 <bl31_register_bl32_init>:
    100e0c24:	b0000061 	adrp	x1, 100ed000 <__STACKS_START__+0x3f80>
    100e0c28:	f9009820 	str	x0, [x1, #304]
    100e0c2c:	d65f03c0 	ret

00000000100e0c30 <set_scr_el3_from_rm>:
    100e0c30:	a9bd7bfd 	stp	x29, x30, [sp, #-48]!
    100e0c34:	1ac22421 	lsr	w1, w1, w2
    100e0c38:	910003fd 	mov	x29, sp
    100e0c3c:	a90153f3 	stp	x19, x20, [sp, #16]
    100e0c40:	2a0203f4 	mov	w20, w2
    100e0c44:	2a0003f3 	mov	w19, w0
    100e0c48:	a9025bf5 	stp	x21, x22, [sp, #32]
    100e0c4c:	12000035 	and	w21, w1, #0x1
    100e0c50:	2a0203e1 	mov	w1, w2
    100e0c54:	94000e23 	bl	100e44e0 <plat_interrupt_type_to_line>
    100e0c58:	2a0003f6 	mov	w22, w0
    100e0c5c:	d28000c0 	mov	x0, #0x6                   	// #6
    100e0c60:	9b007e73 	mul	x19, x19, x0
    100e0c64:	b0000060 	adrp	x0, 100ed000 <__STACKS_START__+0x3f80>
    100e0c68:	9104e000 	add	x0, x0, #0x138
    100e0c6c:	8b344273 	add	x19, x19, w20, uxtw
    100e0c70:	8b130813 	add	x19, x0, x19, lsl #2
    100e0c74:	1ad622a0 	lsl	w0, w21, w22
    100e0c78:	b9000e60 	str	w0, [x19, #12]
    100e0c7c:	2a1403e0 	mov	w0, w20
    100e0c80:	9400006e 	bl	100e0e38 <cm_get_context>
    100e0c84:	b4000100 	cbz	x0, 100e0ca4 <set_scr_el3_from_rm+0x74>
    100e0c88:	2a1503e2 	mov	w2, w21
    100e0c8c:	2a1603e1 	mov	w1, w22
    100e0c90:	2a1403e0 	mov	w0, w20
    100e0c94:	a94153f3 	ldp	x19, x20, [sp, #16]
    100e0c98:	a9425bf5 	ldp	x21, x22, [sp, #32]
    100e0c9c:	a8c37bfd 	ldp	x29, x30, [sp], #48
    100e0ca0:	1400020c 	b	100e14d0 <cm_write_scr_el3_bit>
    100e0ca4:	a94153f3 	ldp	x19, x20, [sp, #16]
    100e0ca8:	a9425bf5 	ldp	x21, x22, [sp, #32]
    100e0cac:	a8c37bfd 	ldp	x29, x30, [sp], #48
    100e0cb0:	d65f03c0 	ret

00000000100e0cb4 <get_scr_el3_from_routing_model>:
    100e0cb4:	7100041f 	cmp	w0, #0x1
    100e0cb8:	540000e9 	b.ls	100e0cd4 <get_scr_el3_from_routing_model+0x20>  // b.plast
    100e0cbc:	a9bf7bfd 	stp	x29, x30, [sp, #-16]!
    100e0cc0:	f0000020 	adrp	x0, 100e7000 <__TEXT_END__>
    100e0cc4:	910e2000 	add	x0, x0, #0x388
    100e0cc8:	910003fd 	mov	x29, sp
    100e0ccc:	52800aa1 	mov	w1, #0x55                  	// #85
    100e0cd0:	94001547 	bl	100e61ec <__assert>
    100e0cd4:	b0000061 	adrp	x1, 100ed000 <__STACKS_START__+0x3f80>
    100e0cd8:	9104e022 	add	x2, x1, #0x138
    100e0cdc:	2a0003e1 	mov	w1, w0
    100e0ce0:	8b010840 	add	x0, x2, x1, lsl #2
    100e0ce4:	8b010843 	add	x3, x2, x1, lsl #2
    100e0ce8:	8b010841 	add	x1, x2, x1, lsl #2
    100e0cec:	b9403c00 	ldr	w0, [x0, #60]
    100e0cf0:	b9400c63 	ldr	w3, [x3, #12]
    100e0cf4:	b9402421 	ldr	w1, [x1, #36]
    100e0cf8:	2a030000 	orr	w0, w0, w3
    100e0cfc:	2a010000 	orr	w0, w0, w1
    100e0d00:	d65f03c0 	ret

00000000100e0d04 <set_routing_model>:
    100e0d04:	721e7803 	ands	w3, w0, #0xfffffffd
    100e0d08:	54000060 	b.eq	100e0d14 <set_routing_model+0x10>  // b.none
    100e0d0c:	7100041f 	cmp	w0, #0x1
    100e0d10:	540003e1 	b.ne	100e0d8c <set_routing_model+0x88>  // b.any
    100e0d14:	12000422 	and	w2, w1, #0x3
    100e0d18:	35000360 	cbnz	w0, 100e0d84 <set_routing_model+0x80>
    100e0d1c:	51000842 	sub	w2, w2, #0x2
    100e0d20:	7100045f 	cmp	w2, #0x1
    100e0d24:	54000348 	b.hi	100e0d8c <set_routing_model+0x88>  // b.pmore
    100e0d28:	a9be7bfd 	stp	x29, x30, [sp, #-32]!
    100e0d2c:	2a0003e0 	mov	w0, w0
    100e0d30:	d2800302 	mov	x2, #0x18                  	// #24
    100e0d34:	910003fd 	mov	x29, sp
    100e0d38:	a90153f3 	stp	x19, x20, [sp, #16]
    100e0d3c:	2a0103f4 	mov	w20, w1
    100e0d40:	b0000061 	adrp	x1, 100ed000 <__STACKS_START__+0x3f80>
    100e0d44:	9104e021 	add	x1, x1, #0x138
    100e0d48:	aa0003f3 	mov	x19, x0
    100e0d4c:	9b020400 	madd	x0, x0, x2, x1
    100e0d50:	2a1403e1 	mov	w1, w20
    100e0d54:	52800002 	mov	w2, #0x0                   	// #0
    100e0d58:	b9000814 	str	w20, [x0, #8]
    100e0d5c:	2a1303e0 	mov	w0, w19
    100e0d60:	97ffffb4 	bl	100e0c30 <set_scr_el3_from_rm>
    100e0d64:	2a1403e1 	mov	w1, w20
    100e0d68:	2a1303e0 	mov	w0, w19
    100e0d6c:	52800022 	mov	w2, #0x1                   	// #1
    100e0d70:	97ffffb0 	bl	100e0c30 <set_scr_el3_from_rm>
    100e0d74:	52800000 	mov	w0, #0x0                   	// #0
    100e0d78:	a94153f3 	ldp	x19, x20, [sp, #16]
    100e0d7c:	a8c27bfd 	ldp	x29, x30, [sp], #32
    100e0d80:	d65f03c0 	ret
    100e0d84:	35000083 	cbnz	w3, 100e0d94 <set_routing_model+0x90>
    100e0d88:	360ffd01 	tbz	w1, #1, 100e0d28 <set_routing_model+0x24>
    100e0d8c:	128002a0 	mov	w0, #0xffffffea            	// #-22
    100e0d90:	d65f03c0 	ret
    100e0d94:	7100041f 	cmp	w0, #0x1
    100e0d98:	54fffc20 	b.eq	100e0d1c <set_routing_model+0x18>  // b.none
    100e0d9c:	17fffffc 	b	100e0d8c <set_routing_model+0x88>

00000000100e0da0 <register_interrupt_type_handler>:
    100e0da0:	b40002e1 	cbz	x1, 100e0dfc <register_interrupt_type_handler+0x5c>
    100e0da4:	721e745f 	tst	w2, #0xfffffffc
    100e0da8:	540002a1 	b.ne	100e0dfc <register_interrupt_type_handler+0x5c>  // b.any
    100e0dac:	a9bd7bfd 	stp	x29, x30, [sp, #-48]!
    100e0db0:	910003fd 	mov	x29, sp
    100e0db4:	a90153f3 	stp	x19, x20, [sp, #16]
    100e0db8:	2a0003f3 	mov	w19, w0
    100e0dbc:	b0000074 	adrp	x20, 100ed000 <__STACKS_START__+0x3f80>
    100e0dc0:	9104e294 	add	x20, x20, #0x138
    100e0dc4:	f90013f5 	str	x21, [sp, #32]
    100e0dc8:	aa0103f5 	mov	x21, x1
    100e0dcc:	d2800301 	mov	x1, #0x18                  	// #24
    100e0dd0:	9b017e73 	mul	x19, x19, x1
    100e0dd4:	f8736a81 	ldr	x1, [x20, x19]
    100e0dd8:	b5000161 	cbnz	x1, 100e0e04 <register_interrupt_type_handler+0x64>
    100e0ddc:	2a0203e1 	mov	w1, w2
    100e0de0:	97ffffc9 	bl	100e0d04 <set_routing_model>
    100e0de4:	35000040 	cbnz	w0, 100e0dec <register_interrupt_type_handler+0x4c>
    100e0de8:	f8336a95 	str	x21, [x20, x19]
    100e0dec:	a94153f3 	ldp	x19, x20, [sp, #16]
    100e0df0:	f94013f5 	ldr	x21, [sp, #32]
    100e0df4:	a8c37bfd 	ldp	x29, x30, [sp], #48
    100e0df8:	d65f03c0 	ret
    100e0dfc:	128002a0 	mov	w0, #0xffffffea            	// #-22
    100e0e00:	d65f03c0 	ret
    100e0e04:	12800480 	mov	w0, #0xffffffdb            	// #-37
    100e0e08:	17fffff9 	b	100e0dec <register_interrupt_type_handler+0x4c>

00000000100e0e0c <get_interrupt_type_handler>:
    100e0e0c:	7100081f 	cmp	w0, #0x2
    100e0e10:	54000108 	b.hi	100e0e30 <get_interrupt_type_handler+0x24>  // b.pmore
    100e0e14:	2a0003e0 	mov	w0, w0
    100e0e18:	d2800301 	mov	x1, #0x18                  	// #24
    100e0e1c:	9b017c00 	mul	x0, x0, x1
    100e0e20:	b0000061 	adrp	x1, 100ed000 <__STACKS_START__+0x3f80>
    100e0e24:	9104e021 	add	x1, x1, #0x138
    100e0e28:	f8606820 	ldr	x0, [x1, x0]
    100e0e2c:	d65f03c0 	ret
    100e0e30:	d2800000 	mov	x0, #0x0                   	// #0
    100e0e34:	17fffffe 	b	100e0e2c <get_interrupt_type_handler+0x20>

00000000100e0e38 <cm_get_context>:
    100e0e38:	7100041f 	cmp	w0, #0x1
    100e0e3c:	540000e9 	b.ls	100e0e58 <cm_get_context+0x20>  // b.plast
    100e0e40:	a9bf7bfd 	stp	x29, x30, [sp, #-16]!
    100e0e44:	f0000020 	adrp	x0, 100e7000 <__TEXT_END__>
    100e0e48:	910e7800 	add	x0, x0, #0x39e
    100e0e4c:	910003fd 	mov	x29, sp
    100e0e50:	528002e1 	mov	w1, #0x17                  	// #23
    100e0e54:	940014e6 	bl	100e61ec <__assert>
    100e0e58:	d53ed041 	mrs	x1, tpidr_el3
    100e0e5c:	f8605820 	ldr	x0, [x1, w0, uxtw #3]
    100e0e60:	d65f03c0 	ret

00000000100e0e64 <cm_set_context>:
    100e0e64:	7100043f 	cmp	w1, #0x1
    100e0e68:	540000e9 	b.ls	100e0e84 <cm_set_context+0x20>  // b.plast
    100e0e6c:	a9bf7bfd 	stp	x29, x30, [sp, #-16]!
    100e0e70:	f0000020 	adrp	x0, 100e7000 <__TEXT_END__>
    100e0e74:	910e7800 	add	x0, x0, #0x39e
    100e0e78:	910003fd 	mov	x29, sp
    100e0e7c:	52800441 	mov	w1, #0x22                  	// #34
    100e0e80:	940014db 	bl	100e61ec <__assert>
    100e0e84:	d53ed042 	mrs	x2, tpidr_el3
    100e0e88:	f8215840 	str	x0, [x2, w1, uxtw #3]
    100e0e8c:	d65f03c0 	ret

00000000100e0e90 <cm_get_context_by_index>:
    100e0e90:	a9be7bfd 	stp	x29, x30, [sp, #-32]!
    100e0e94:	7100043f 	cmp	w1, #0x1
    100e0e98:	910003fd 	mov	x29, sp
    100e0e9c:	f9000bf3 	str	x19, [sp, #16]
    100e0ea0:	540000a9 	b.ls	100e0eb4 <cm_get_context_by_index+0x24>  // b.plast
    100e0ea4:	f0000020 	adrp	x0, 100e7000 <__TEXT_END__>
    100e0ea8:	910e7800 	add	x0, x0, #0x39e
    100e0eac:	52800601 	mov	w1, #0x30                  	// #48
    100e0eb0:	940014cf 	bl	100e61ec <__assert>
    100e0eb4:	2a0103f3 	mov	w19, w1
    100e0eb8:	9400122a 	bl	100e5760 <_cpu_data_by_index>
    100e0ebc:	f8735800 	ldr	x0, [x0, w19, uxtw #3]
    100e0ec0:	f9400bf3 	ldr	x19, [sp, #16]
    100e0ec4:	a8c27bfd 	ldp	x29, x30, [sp], #32
    100e0ec8:	d65f03c0 	ret

00000000100e0ecc <cm_set_context_by_index>:
    100e0ecc:	a9be7bfd 	stp	x29, x30, [sp, #-32]!
    100e0ed0:	7100045f 	cmp	w2, #0x1
    100e0ed4:	910003fd 	mov	x29, sp
    100e0ed8:	a90153f3 	stp	x19, x20, [sp, #16]
    100e0edc:	540000a9 	b.ls	100e0ef0 <cm_set_context_by_index+0x24>  // b.plast
    100e0ee0:	f0000020 	adrp	x0, 100e7000 <__TEXT_END__>
    100e0ee4:	910e7800 	add	x0, x0, #0x39e
    100e0ee8:	52800781 	mov	w1, #0x3c                  	// #60
    100e0eec:	940014c0 	bl	100e61ec <__assert>
    100e0ef0:	2a0203f3 	mov	w19, w2
    100e0ef4:	aa0103f4 	mov	x20, x1
    100e0ef8:	9400121a 	bl	100e5760 <_cpu_data_by_index>
    100e0efc:	f8335814 	str	x20, [x0, w19, uxtw #3]
    100e0f00:	a94153f3 	ldp	x19, x20, [sp, #16]
    100e0f04:	a8c27bfd 	ldp	x29, x30, [sp], #32
    100e0f08:	d65f03c0 	ret

00000000100e0f0c <runtime_svc_init>:
    100e0f0c:	a9bb7bfd 	stp	x29, x30, [sp, #-80]!
    100e0f10:	910003fd 	mov	x29, sp
    100e0f14:	a90153f3 	stp	x19, x20, [sp, #16]
    100e0f18:	90000054 	adrp	x20, 100e8000 <non_el3_sys_regs+0xa6>
    100e0f1c:	910aa294 	add	x20, x20, #0x2a8
    100e0f20:	a9025bf5 	stp	x21, x22, [sp, #32]
    100e0f24:	90000053 	adrp	x19, 100e8000 <non_el3_sys_regs+0xa6>
    100e0f28:	9108a273 	add	x19, x19, #0x228
    100e0f2c:	a90363f7 	stp	x23, x24, [sp, #48]
    100e0f30:	eb13029f 	cmp	x20, x19
    100e0f34:	f90023f9 	str	x25, [sp, #64]
    100e0f38:	54000083 	b.cc	100e0f48 <runtime_svc_init+0x3c>  // b.lo, b.ul, b.last
    100e0f3c:	cb130294 	sub	x20, x20, x19
    100e0f40:	f13ffe9f 	cmp	x20, #0xfff
    100e0f44:	540000a9 	b.ls	100e0f58 <runtime_svc_init+0x4c>  // b.plast
    100e0f48:	52800d21 	mov	w1, #0x69                  	// #105
    100e0f4c:	f0000020 	adrp	x0, 100e7000 <__TEXT_END__>
    100e0f50:	910f2000 	add	x0, x0, #0x3c8
    100e0f54:	940014a6 	bl	100e61ec <__assert>
    100e0f58:	f1007e9f 	cmp	x20, #0x1f
    100e0f5c:	540001a9 	b.ls	100e0f90 <runtime_svc_init+0x84>  // b.plast
    100e0f60:	f0000038 	adrp	x24, 100e7000 <__TEXT_END__>
    100e0f64:	91101718 	add	x24, x24, #0x405
    100e0f68:	d345fe95 	lsr	x21, x20, #5
    100e0f6c:	52800016 	mov	w22, #0x0                   	// #0
    100e0f70:	b0000077 	adrp	x23, 100ed000 <__STACKS_START__+0x3f80>
    100e0f74:	913022f7 	add	x23, x23, #0xc08
    100e0f78:	d2801002 	mov	x2, #0x80                  	// #128
    100e0f7c:	12800001 	mov	w1, #0xffffffff            	// #-1
    100e0f80:	aa1703e0 	mov	x0, x23
    100e0f84:	940014bb 	bl	100e6270 <memset>
    100e0f88:	eb3602bf 	cmp	x21, w22, uxtb
    100e0f8c:	540000e8 	b.hi	100e0fa8 <runtime_svc_init+0x9c>  // b.pmore
    100e0f90:	a94153f3 	ldp	x19, x20, [sp, #16]
    100e0f94:	a9425bf5 	ldp	x21, x22, [sp, #32]
    100e0f98:	a94363f7 	ldp	x23, x24, [sp, #48]
    100e0f9c:	f94023f9 	ldr	x25, [sp, #64]
    100e0fa0:	a8c57bfd 	ldp	x29, x30, [sp], #80
    100e0fa4:	d65f03c0 	ret
    100e0fa8:	d37b1ed9 	ubfiz	x25, x22, #5, #8
    100e0fac:	ab190274 	adds	x20, x19, x25
    100e0fb0:	540001c0 	b.eq	100e0fe8 <runtime_svc_init+0xdc>  // b.none
    100e0fb4:	39400680 	ldrb	w0, [x20, #1]
    100e0fb8:	38796a61 	ldrb	w1, [x19, x25]
    100e0fbc:	6b00003f 	cmp	w1, w0
    100e0fc0:	54000148 	b.hi	100e0fe8 <runtime_svc_init+0xdc>  // b.pmore
    100e0fc4:	7100fc1f 	cmp	w0, #0x3f
    100e0fc8:	54000108 	b.hi	100e0fe8 <runtime_svc_init+0xdc>  // b.pmore
    100e0fcc:	39400a80 	ldrb	w0, [x20, #2]
    100e0fd0:	7100041f 	cmp	w0, #0x1
    100e0fd4:	540000a8 	b.hi	100e0fe8 <runtime_svc_init+0xdc>  // b.pmore
    100e0fd8:	f9400a80 	ldr	x0, [x20, #16]
    100e0fdc:	b5000180 	cbnz	x0, 100e100c <runtime_svc_init+0x100>
    100e0fe0:	f9400e80 	ldr	x0, [x20, #24]
    100e0fe4:	b5000240 	cbnz	x0, 100e102c <runtime_svc_init+0x120>
    100e0fe8:	aa1403e1 	mov	x1, x20
    100e0fec:	f0000020 	adrp	x0, 100e7000 <__TEXT_END__>
    100e0ff0:	910f7400 	add	x0, x0, #0x3dd
    100e0ff4:	94000baf 	bl	100e3eb0 <tf_log>
    100e0ff8:	f0000020 	adrp	x0, 100e7000 <__TEXT_END__>
    100e0ffc:	910edc00 	add	x0, x0, #0x3b7
    100e1000:	94000c9c 	bl	100e4270 <backtrace>
    100e1004:	94000c39 	bl	100e40e8 <console_flush>
    100e1008:	94001327 	bl	100e5ca4 <do_panic>
    100e100c:	d63f0000 	blr	x0
    100e1010:	340000e0 	cbz	w0, 100e102c <runtime_svc_init+0x120>
    100e1014:	f9400681 	ldr	x1, [x20, #8]
    100e1018:	aa1803e0 	mov	x0, x24
    100e101c:	94000ba5 	bl	100e3eb0 <tf_log>
    100e1020:	110006d6 	add	w22, w22, #0x1
    100e1024:	12001ed6 	and	w22, w22, #0xff
    100e1028:	17ffffd8 	b	100e0f88 <runtime_svc_init+0x7c>
    100e102c:	39400a81 	ldrb	w1, [x20, #2]
    100e1030:	38796a60 	ldrb	w0, [x19, x25]
    100e1034:	531a0022 	ubfiz	w2, w1, #6, #1
    100e1038:	39400681 	ldrb	w1, [x20, #1]
    100e103c:	12001400 	and	w0, w0, #0x3f
    100e1040:	12001421 	and	w1, w1, #0x3f
    100e1044:	2a020000 	orr	w0, w0, w2
    100e1048:	2a020021 	orr	w1, w1, w2
    100e104c:	6b01001f 	cmp	w0, w1
    100e1050:	54000069 	b.ls	100e105c <runtime_svc_init+0x150>  // b.plast
    100e1054:	52801461 	mov	w1, #0xa3                  	// #163
    100e1058:	17ffffbd 	b	100e0f4c <runtime_svc_init+0x40>
    100e105c:	92401c00 	and	x0, x0, #0xff
    100e1060:	38206af6 	strb	w22, [x23, x0]
    100e1064:	91000400 	add	x0, x0, #0x1
    100e1068:	6b20003f 	cmp	w1, w0, uxtb
    100e106c:	54ffffa2 	b.cs	100e1060 <runtime_svc_init+0x154>  // b.hs, b.nlast
    100e1070:	17ffffec 	b	100e1020 <runtime_svc_init+0x114>

00000000100e1074 <arm_arch_svc_smc_handler>:
    100e1074:	a9be7bfd 	stp	x29, x30, [sp, #-32]!
    100e1078:	320107e2 	mov	w2, #0x80000001            	// #-2147483647
    100e107c:	6b02001f 	cmp	w0, w2
    100e1080:	910003fd 	mov	x29, sp
    100e1084:	f9000bf3 	str	x19, [sp, #16]
    100e1088:	aa0603f3 	mov	x19, x6
    100e108c:	540001a0 	b.eq	100e10c0 <arm_arch_svc_smc_handler+0x4c>  // b.none
    100e1090:	32013fe1 	mov	w1, #0x80007fff            	// #-2147450881
    100e1094:	6b01001f 	cmp	w0, w1
    100e1098:	540000c0 	b.eq	100e10b0 <arm_arch_svc_smc_handler+0x3c>  // b.none
    100e109c:	52b00001 	mov	w1, #0x80000000            	// #-2147483648
    100e10a0:	6b01001f 	cmp	w0, w1
    100e10a4:	540002e1 	b.ne	100e1100 <arm_arch_svc_smc_handler+0x8c>  // b.any
    100e10a8:	320083e0 	mov	w0, #0x10001               	// #65537
    100e10ac:	f9000260 	str	x0, [x19]
    100e10b0:	aa1303e0 	mov	x0, x19
    100e10b4:	f9400bf3 	ldr	x19, [sp, #16]
    100e10b8:	a8c27bfd 	ldp	x29, x30, [sp], #32
    100e10bc:	d65f03c0 	ret
    100e10c0:	d2b00000 	mov	x0, #0x80000000            	// #2147483648
    100e10c4:	eb00003f 	cmp	x1, x0
    100e10c8:	54000143 	b.cc	100e10f0 <arm_arch_svc_smc_handler+0x7c>  // b.lo, b.ul, b.last
    100e10cc:	320107e0 	mov	w0, #0x80000001            	// #-2147483647
    100e10d0:	eb00003f 	cmp	x1, x0
    100e10d4:	54000129 	b.ls	100e10f8 <arm_arch_svc_smc_handler+0x84>  // b.plast
    100e10d8:	32013fe0 	mov	w0, #0x80007fff            	// #-2147450881
    100e10dc:	eb00003f 	cmp	x1, x0
    100e10e0:	1a9f07e0 	cset	w0, ne  // ne = any
    100e10e4:	51000800 	sub	w0, w0, #0x2
    100e10e8:	93407c00 	sxtw	x0, w0
    100e10ec:	17fffff0 	b	100e10ac <arm_arch_svc_smc_handler+0x38>
    100e10f0:	12800000 	mov	w0, #0xffffffff            	// #-1
    100e10f4:	17fffffd 	b	100e10e8 <arm_arch_svc_smc_handler+0x74>
    100e10f8:	52800000 	mov	w0, #0x0                   	// #0
    100e10fc:	17fffffb 	b	100e10e8 <arm_arch_svc_smc_handler+0x74>
    100e1100:	2a0003e1 	mov	w1, w0
    100e1104:	d0000020 	adrp	x0, 100e7000 <__TEXT_END__>
    100e1108:	9110b400 	add	x0, x0, #0x42d
    100e110c:	94000b69 	bl	100e3eb0 <tf_log>
    100e1110:	92800000 	mov	x0, #0xffffffffffffffff    	// #-1
    100e1114:	17ffffe6 	b	100e10ac <arm_arch_svc_smc_handler+0x38>

00000000100e1118 <std_svc_smc_handler>:
    100e1118:	a9be7bfd 	stp	x29, x30, [sp, #-32]!
    100e111c:	721b281f 	tst	w0, #0xffe0
    100e1120:	910003fd 	mov	x29, sp
    100e1124:	f9000bf3 	str	x19, [sp, #16]
    100e1128:	aa0603f3 	mov	x19, x6
    100e112c:	54000081 	b.ne	100e113c <std_svc_smc_handler+0x24>  // b.any
    100e1130:	9400066e 	bl	100e2ae8 <psci_smc_handler>
    100e1134:	f9000260 	str	x0, [x19]
    100e1138:	1400001d 	b	100e11ac <std_svc_smc_handler+0x94>
    100e113c:	2a0003e8 	mov	w8, w0
    100e1140:	529fe020 	mov	w0, #0xff01                	// #65281
    100e1144:	72b08000 	movk	w0, #0x8400, lsl #16
    100e1148:	6b00011f 	cmp	w8, w0
    100e114c:	54000140 	b.eq	100e1174 <std_svc_smc_handler+0x5c>  // b.none
    100e1150:	11000800 	add	w0, w0, #0x2
    100e1154:	6b00011f 	cmp	w8, w0
    100e1158:	54000260 	b.eq	100e11a4 <std_svc_smc_handler+0x8c>  // b.none
    100e115c:	529fe000 	mov	w0, #0xff00                	// #65280
    100e1160:	72b08000 	movk	w0, #0x8400, lsl #16
    100e1164:	6b00011f 	cmp	w8, w0
    100e1168:	540002a1 	b.ne	100e11bc <std_svc_smc_handler+0xa4>  // b.any
    100e116c:	d2800240 	mov	x0, #0x12                  	// #18
    100e1170:	17fffff1 	b	100e1134 <std_svc_smc_handler+0x1c>
    100e1174:	d2882ac0 	mov	x0, #0x4156                	// #16726
    100e1178:	f2bc5ec0 	movk	x0, #0xe2f6, lsl #16
    100e117c:	f9000cc0 	str	x0, [x6, #24]
    100e1180:	d285b5c0 	mov	x0, #0x2dae                	// #11694
    100e1184:	f2bf7800 	movk	x0, #0xfbc0, lsl #16
    100e1188:	f90008c0 	str	x0, [x6, #16]
    100e118c:	d29f0c60 	mov	x0, #0xf863                	// #63587
    100e1190:	f2a8fd00 	movk	x0, #0x47e8, lsl #16
    100e1194:	f90004c0 	str	x0, [x6, #8]
    100e1198:	d2920b60 	mov	x0, #0x905b                	// #36955
    100e119c:	f2a211a0 	movk	x0, #0x108d, lsl #16
    100e11a0:	17ffffe5 	b	100e1134 <std_svc_smc_handler+0x1c>
    100e11a4:	d2800020 	mov	x0, #0x1                   	// #1
    100e11a8:	a90000df 	stp	xzr, x0, [x6]
    100e11ac:	aa1303e0 	mov	x0, x19
    100e11b0:	f9400bf3 	ldr	x19, [sp, #16]
    100e11b4:	a8c27bfd 	ldp	x29, x30, [sp], #32
    100e11b8:	d65f03c0 	ret
    100e11bc:	2a0803e1 	mov	w1, w8
    100e11c0:	d0000020 	adrp	x0, 100e7000 <__TEXT_END__>
    100e11c4:	91124000 	add	x0, x0, #0x490
    100e11c8:	94000b3a 	bl	100e3eb0 <tf_log>
    100e11cc:	92800000 	mov	x0, #0xffffffffffffffff    	// #-1
    100e11d0:	17ffffd9 	b	100e1134 <std_svc_smc_handler+0x1c>

00000000100e11d4 <std_svc_setup>:
    100e11d4:	a9bf7bfd 	stp	x29, x30, [sp, #-16]!
    100e11d8:	529ffc00 	mov	w0, #0xffe0                	// #65504
    100e11dc:	910003fd 	mov	x29, sp
    100e11e0:	97fffe2f 	bl	100e0a9c <get_arm_std_svc_args>
    100e11e4:	b50000a0 	cbnz	x0, 100e11f8 <std_svc_setup+0x24>
    100e11e8:	d0000020 	adrp	x0, 100e7000 <__TEXT_END__>
    100e11ec:	9111bc00 	add	x0, x0, #0x46f
    100e11f0:	528004c1 	mov	w1, #0x26                  	// #38
    100e11f4:	940013fe 	bl	100e61ec <__assert>
    100e11f8:	9400069d 	bl	100e2c6c <psci_setup>
    100e11fc:	7100001f 	cmp	w0, #0x0
    100e1200:	1a9f07e0 	cset	w0, ne  // ne = any
    100e1204:	a8c17bfd 	ldp	x29, x30, [sp], #16
    100e1208:	d65f03c0 	ret

00000000100e120c <cm_init>:
    100e120c:	d65f03c0 	ret

00000000100e1210 <cm_setup_context>:
    100e1210:	a9bd7bfd 	stp	x29, x30, [sp, #-48]!
    100e1214:	910003fd 	mov	x29, sp
    100e1218:	a90153f3 	stp	x19, x20, [sp, #16]
    100e121c:	a9025bf5 	stp	x21, x22, [sp, #32]
    100e1220:	b50000a0 	cbnz	x0, 100e1234 <cm_setup_context+0x24>
    100e1224:	d0000020 	adrp	x0, 100e7000 <__TEXT_END__>
    100e1228:	9113b000 	add	x0, x0, #0x4ec
    100e122c:	52800921 	mov	w1, #0x49                  	// #73
    100e1230:	940013ef 	bl	100e61ec <__assert>
    100e1234:	aa0103f5 	mov	x21, x1
    100e1238:	aa0003f4 	mov	x20, x0
    100e123c:	d2804601 	mov	x1, #0x230                 	// #560
    100e1240:	b94006b6 	ldr	w22, [x21, #4]
    100e1244:	94001312 	bl	100e5e8c <zeromem>
    100e1248:	120002d6 	and	w22, w22, #0x1
    100e124c:	d53e1101 	mrs	x1, scr_el3
    100e1250:	1281a0e0 	mov	w0, #0xfffff2f8            	// #-3336
    100e1254:	0a010000 	and	w0, w0, w1
    100e1258:	34000056 	cbz	w22, 100e1260 <cm_setup_context+0x50>
    100e125c:	32000000 	orr	w0, w0, #0x1
    100e1260:	b94012a1 	ldr	w1, [x21, #16]
    100e1264:	37200041 	tbnz	w1, #4, 100e126c <cm_setup_context+0x5c>
    100e1268:	32160000 	orr	w0, w0, #0x400
    100e126c:	b94006a1 	ldr	w1, [x21, #4]
    100e1270:	36100041 	tbz	w1, #2, 100e1278 <cm_setup_context+0x68>
    100e1274:	32150000 	orr	w0, w0, #0x800
    100e1278:	121c7813 	and	w19, w0, #0xfffffff7
    100e127c:	2a1603e0 	mov	w0, w22
    100e1280:	97fffe8d 	bl	100e0cb4 <get_scr_el3_from_routing_model>
    100e1284:	2a000260 	orr	w0, w19, w0
    100e1288:	b94012a2 	ldr	w2, [x21, #16]
    100e128c:	d3441044 	ubfx	x4, x2, #4, #1
    100e1290:	35000424 	cbnz	w4, 100e1314 <cm_setup_context+0x104>
    100e1294:	d3420c41 	ubfx	x1, x2, #2, #2
    100e1298:	7100083f 	cmp	w1, #0x2
    100e129c:	54000041 	b.ne	100e12a4 <cm_setup_context+0x94>  // b.any
    100e12a0:	32180000 	orr	w0, w0, #0x100
    100e12a4:	b94006a1 	ldr	w1, [x21, #4]
    100e12a8:	7100009f 	cmp	w4, #0x0
    100e12ac:	d2810003 	mov	x3, #0x800                 	// #2048
    100e12b0:	f2a61a03 	movk	x3, #0x30d0, lsl #16
    100e12b4:	d2810705 	mov	x5, #0x838                 	// #2104
    100e12b8:	f2a018a5 	movk	x5, #0xc5, lsl #16
    100e12bc:	d3689c21 	lsl	x1, x1, #24
    100e12c0:	92670021 	and	x1, x1, #0x2000000
    100e12c4:	aa030023 	orr	x3, x1, x3
    100e12c8:	aa050021 	orr	x1, x1, x5
    100e12cc:	9a831021 	csel	x1, x1, x3, ne  // ne = any
    100e12d0:	f900a281 	str	x1, [x20, #320]
    100e12d4:	d5381021 	mrs	x1, actlr_el1
    100e12d8:	f900a681 	str	x1, [x20, #328]
    100e12dc:	35000076 	cbnz	w22, 100e12e8 <cm_setup_context+0xd8>
    100e12e0:	d2800c01 	mov	x1, #0x60                  	// #96
    100e12e4:	f900f281 	str	x1, [x20, #480]
    100e12e8:	f9008280 	str	x0, [x20, #256]
    100e12ec:	2a0203e2 	mov	w2, w2
    100e12f0:	f94006a0 	ldr	x0, [x21, #8]
    100e12f4:	910062a1 	add	x1, x21, #0x18
    100e12f8:	a9425bf5 	ldp	x21, x22, [sp, #32]
    100e12fc:	a9118282 	stp	x2, x0, [x20, #280]
    100e1300:	aa1403e0 	mov	x0, x20
    100e1304:	a94153f3 	ldp	x19, x20, [sp, #16]
    100e1308:	d2800802 	mov	x2, #0x40                  	// #64
    100e130c:	a8c37bfd 	ldp	x29, x30, [sp], #48
    100e1310:	140013c3 	b	100e621c <memcpy>
    100e1314:	12000c41 	and	w1, w2, #0xf
    100e1318:	7100283f 	cmp	w1, #0xa
    100e131c:	17ffffe0 	b	100e129c <cm_setup_context+0x8c>

00000000100e1320 <cm_init_context_by_index>:
    100e1320:	a9be7bfd 	stp	x29, x30, [sp, #-32]!
    100e1324:	910003fd 	mov	x29, sp
    100e1328:	f9000bf3 	str	x19, [sp, #16]
    100e132c:	aa0103f3 	mov	x19, x1
    100e1330:	b9400421 	ldr	w1, [x1, #4]
    100e1334:	12000021 	and	w1, w1, #0x1
    100e1338:	97fffed6 	bl	100e0e90 <cm_get_context_by_index>
    100e133c:	aa1303e1 	mov	x1, x19
    100e1340:	f9400bf3 	ldr	x19, [sp, #16]
    100e1344:	a8c27bfd 	ldp	x29, x30, [sp], #32
    100e1348:	17ffffb2 	b	100e1210 <cm_setup_context>

00000000100e134c <cm_init_my_context>:
    100e134c:	a9be7bfd 	stp	x29, x30, [sp, #-32]!
    100e1350:	910003fd 	mov	x29, sp
    100e1354:	f9000bf3 	str	x19, [sp, #16]
    100e1358:	aa0003f3 	mov	x19, x0
    100e135c:	b9400400 	ldr	w0, [x0, #4]
    100e1360:	12000000 	and	w0, w0, #0x1
    100e1364:	97fffeb5 	bl	100e0e38 <cm_get_context>
    100e1368:	aa1303e1 	mov	x1, x19
    100e136c:	f9400bf3 	ldr	x19, [sp, #16]
    100e1370:	a8c27bfd 	ldp	x29, x30, [sp], #32
    100e1374:	17ffffa7 	b	100e1210 <cm_setup_context>

00000000100e1378 <cm_el1_sysregs_context_save>:
    100e1378:	a9be7bfd 	stp	x29, x30, [sp, #-32]!
    100e137c:	910003fd 	mov	x29, sp
    100e1380:	a90153f3 	stp	x19, x20, [sp, #16]
    100e1384:	2a0003f3 	mov	w19, w0
    100e1388:	97fffeac 	bl	100e0e38 <cm_get_context>
    100e138c:	b50000a0 	cbnz	x0, 100e13a0 <cm_el1_sysregs_context_save+0x28>
    100e1390:	d0000020 	adrp	x0, 100e7000 <__TEXT_END__>
    100e1394:	9113b000 	add	x0, x0, #0x4ec
    100e1398:	52803b61 	mov	w1, #0x1db                 	// #475
    100e139c:	94001394 	bl	100e61ec <__assert>
    100e13a0:	9104c000 	add	x0, x0, #0x130
    100e13a4:	94001179 	bl	100e5988 <el1_sysregs_context_save>
    100e13a8:	34000273 	cbz	w19, 100e13f4 <cm_el1_sysregs_context_save+0x7c>
    100e13ac:	f0000033 	adrp	x19, 100e8000 <non_el3_sys_regs+0xa6>
    100e13b0:	910c2273 	add	x19, x19, #0x308
    100e13b4:	f0000034 	adrp	x20, 100e8000 <non_el3_sys_regs+0xa6>
    100e13b8:	910c4294 	add	x20, x20, #0x310
    100e13bc:	eb14027f 	cmp	x19, x20
    100e13c0:	54000142 	b.cs	100e13e8 <cm_el1_sysregs_context_save+0x70>  // b.hs, b.nlast
    100e13c4:	f8408661 	ldr	x1, [x19], #8
    100e13c8:	d2800000 	mov	x0, #0x0                   	// #0
    100e13cc:	d63f0020 	blr	x1
    100e13d0:	17fffffb 	b	100e13bc <cm_el1_sysregs_context_save+0x44>
    100e13d4:	f8408661 	ldr	x1, [x19], #8
    100e13d8:	d2800000 	mov	x0, #0x0                   	// #0
    100e13dc:	d63f0020 	blr	x1
    100e13e0:	eb14027f 	cmp	x19, x20
    100e13e4:	54ffff83 	b.cc	100e13d4 <cm_el1_sysregs_context_save+0x5c>  // b.lo, b.ul, b.last
    100e13e8:	a94153f3 	ldp	x19, x20, [sp, #16]
    100e13ec:	a8c27bfd 	ldp	x29, x30, [sp], #32
    100e13f0:	d65f03c0 	ret
    100e13f4:	f0000033 	adrp	x19, 100e8000 <non_el3_sys_regs+0xa6>
    100e13f8:	910c0273 	add	x19, x19, #0x300
    100e13fc:	f0000034 	adrp	x20, 100e8000 <non_el3_sys_regs+0xa6>
    100e1400:	910c0294 	add	x20, x20, #0x300
    100e1404:	17fffff7 	b	100e13e0 <cm_el1_sysregs_context_save+0x68>

00000000100e1408 <cm_el1_sysregs_context_restore>:
    100e1408:	a9be7bfd 	stp	x29, x30, [sp, #-32]!
    100e140c:	910003fd 	mov	x29, sp
    100e1410:	a90153f3 	stp	x19, x20, [sp, #16]
    100e1414:	2a0003f3 	mov	w19, w0
    100e1418:	97fffe88 	bl	100e0e38 <cm_get_context>
    100e141c:	b50000a0 	cbnz	x0, 100e1430 <cm_el1_sysregs_context_restore+0x28>
    100e1420:	d0000020 	adrp	x0, 100e7000 <__TEXT_END__>
    100e1424:	9113b000 	add	x0, x0, #0x4ec
    100e1428:	52803d81 	mov	w1, #0x1ec                 	// #492
    100e142c:	94001370 	bl	100e61ec <__assert>
    100e1430:	9104c000 	add	x0, x0, #0x130
    100e1434:	94001182 	bl	100e5a3c <el1_sysregs_context_restore>
    100e1438:	34000273 	cbz	w19, 100e1484 <cm_el1_sysregs_context_restore+0x7c>
    100e143c:	f0000033 	adrp	x19, 100e8000 <non_el3_sys_regs+0xa6>
    100e1440:	910c0273 	add	x19, x19, #0x300
    100e1444:	f0000034 	adrp	x20, 100e8000 <non_el3_sys_regs+0xa6>
    100e1448:	910c2294 	add	x20, x20, #0x308
    100e144c:	eb14027f 	cmp	x19, x20
    100e1450:	54000142 	b.cs	100e1478 <cm_el1_sysregs_context_restore+0x70>  // b.hs, b.nlast
    100e1454:	f8408661 	ldr	x1, [x19], #8
    100e1458:	d2800000 	mov	x0, #0x0                   	// #0
    100e145c:	d63f0020 	blr	x1
    100e1460:	17fffffb 	b	100e144c <cm_el1_sysregs_context_restore+0x44>
    100e1464:	f8408661 	ldr	x1, [x19], #8
    100e1468:	d2800000 	mov	x0, #0x0                   	// #0
    100e146c:	d63f0020 	blr	x1
    100e1470:	eb14027f 	cmp	x19, x20
    100e1474:	54ffff83 	b.cc	100e1464 <cm_el1_sysregs_context_restore+0x5c>  // b.lo, b.ul, b.last
    100e1478:	a94153f3 	ldp	x19, x20, [sp, #16]
    100e147c:	a8c27bfd 	ldp	x29, x30, [sp], #32
    100e1480:	d65f03c0 	ret
    100e1484:	f0000033 	adrp	x19, 100e8000 <non_el3_sys_regs+0xa6>
    100e1488:	910be273 	add	x19, x19, #0x2f8
    100e148c:	f0000034 	adrp	x20, 100e8000 <non_el3_sys_regs+0xa6>
    100e1490:	910c0294 	add	x20, x20, #0x300
    100e1494:	17fffff7 	b	100e1470 <cm_el1_sysregs_context_restore+0x68>

00000000100e1498 <cm_set_elr_el3>:
    100e1498:	a9be7bfd 	stp	x29, x30, [sp, #-32]!
    100e149c:	910003fd 	mov	x29, sp
    100e14a0:	f9000bf3 	str	x19, [sp, #16]
    100e14a4:	aa0103f3 	mov	x19, x1
    100e14a8:	97fffe64 	bl	100e0e38 <cm_get_context>
    100e14ac:	b50000a0 	cbnz	x0, 100e14c0 <cm_set_elr_el3+0x28>
    100e14b0:	d0000020 	adrp	x0, 100e7000 <__TEXT_END__>
    100e14b4:	9113b000 	add	x0, x0, #0x4ec
    100e14b8:	52804041 	mov	w1, #0x202                 	// #514
    100e14bc:	9400134c 	bl	100e61ec <__assert>
    100e14c0:	f9009013 	str	x19, [x0, #288]
    100e14c4:	f9400bf3 	ldr	x19, [sp, #16]
    100e14c8:	a8c27bfd 	ldp	x29, x30, [sp], #32
    100e14cc:	d65f03c0 	ret

00000000100e14d0 <cm_write_scr_el3_bit>:
    100e14d0:	a9be7bfd 	stp	x29, x30, [sp, #-32]!
    100e14d4:	910003fd 	mov	x29, sp
    100e14d8:	a90153f3 	stp	x19, x20, [sp, #16]
    100e14dc:	2a0103f4 	mov	w20, w1
    100e14e0:	2a0203f3 	mov	w19, w2
    100e14e4:	97fffe55 	bl	100e0e38 <cm_get_context>
    100e14e8:	b50000a0 	cbnz	x0, 100e14fc <cm_write_scr_el3_bit+0x2c>
    100e14ec:	52804541 	mov	w1, #0x22a                 	// #554
    100e14f0:	d0000020 	adrp	x0, 100e7000 <__TEXT_END__>
    100e14f4:	9113b000 	add	x0, x0, #0x4ec
    100e14f8:	9400133d 	bl	100e61ec <__assert>
    100e14fc:	5285f1e1 	mov	w1, #0x2f8f                	// #12175
    100e1500:	1ad42421 	lsr	w1, w1, w20
    100e1504:	37000061 	tbnz	w1, #0, 100e1510 <cm_write_scr_el3_bit+0x40>
    100e1508:	528045a1 	mov	w1, #0x22d                 	// #557
    100e150c:	17fffff9 	b	100e14f0 <cm_write_scr_el3_bit+0x20>
    100e1510:	7100067f 	cmp	w19, #0x1
    100e1514:	54000069 	b.ls	100e1520 <cm_write_scr_el3_bit+0x50>  // b.plast
    100e1518:	52804601 	mov	w1, #0x230                 	// #560
    100e151c:	17fffff5 	b	100e14f0 <cm_write_scr_el3_bit+0x20>
    100e1520:	f9408001 	ldr	x1, [x0, #256]
    100e1524:	52800022 	mov	w2, #0x1                   	// #1
    100e1528:	1ad42042 	lsl	w2, w2, w20
    100e152c:	0a220022 	bic	w2, w1, w2
    100e1530:	1ad42273 	lsl	w19, w19, w20
    100e1534:	2a020273 	orr	w19, w19, w2
    100e1538:	f9008013 	str	x19, [x0, #256]
    100e153c:	a94153f3 	ldp	x19, x20, [sp, #16]
    100e1540:	a8c27bfd 	ldp	x29, x30, [sp], #32
    100e1544:	d65f03c0 	ret

00000000100e1548 <cm_set_next_eret_context>:
    100e1548:	a9bf7bfd 	stp	x29, x30, [sp, #-16]!
    100e154c:	910003fd 	mov	x29, sp
    100e1550:	97fffe3a 	bl	100e0e38 <cm_get_context>
    100e1554:	b50000a0 	cbnz	x0, 100e1568 <cm_set_next_eret_context+0x20>
    100e1558:	d0000020 	adrp	x0, 100e7000 <__TEXT_END__>
    100e155c:	9113b000 	add	x0, x0, #0x4ec
    100e1560:	52804b01 	mov	w1, #0x258                 	// #600
    100e1564:	94001322 	bl	100e61ec <__assert>
    100e1568:	d5384201 	mrs	x1, spsel
    100e156c:	b40000a1 	cbz	x1, 100e1580 <cm_set_next_eret_context+0x38>
    100e1570:	d0000020 	adrp	x0, 100e7000 <__TEXT_END__>
    100e1574:	91131400 	add	x0, x0, #0x4c5
    100e1578:	528008a1 	mov	w1, #0x45                  	// #69
    100e157c:	17fffffa 	b	100e1564 <cm_set_next_eret_context+0x1c>
    100e1580:	d50041bf 	msr	spsel, #0x1
    100e1584:	9100001f 	mov	sp, x0
    100e1588:	d50040bf 	msr	spsel, #0x0
    100e158c:	a8c17bfd 	ldp	x29, x30, [sp], #16
    100e1590:	d65f03c0 	ret

00000000100e1594 <cm_prepare_el3_exit>:
    100e1594:	a9be7bfd 	stp	x29, x30, [sp, #-32]!
    100e1598:	910003fd 	mov	x29, sp
    100e159c:	a90153f3 	stp	x19, x20, [sp, #16]
    100e15a0:	2a0003f3 	mov	w19, w0
    100e15a4:	97fffe25 	bl	100e0e38 <cm_get_context>
    100e15a8:	b50000a0 	cbnz	x0, 100e15bc <cm_prepare_el3_exit+0x28>
    100e15ac:	d0000020 	adrp	x0, 100e7000 <__TEXT_END__>
    100e15b0:	9113b000 	add	x0, x0, #0x4ec
    100e15b4:	52802521 	mov	w1, #0x129                 	// #297
    100e15b8:	9400130d 	bl	100e61ec <__assert>
    100e15bc:	7100067f 	cmp	w19, #0x1
    100e15c0:	540004e1 	b.ne	100e165c <cm_prepare_el3_exit+0xc8>  // b.any
    100e15c4:	f9408001 	ldr	x1, [x0, #256]
    100e15c8:	36400121 	tbz	w1, #8, 100e15ec <cm_prepare_el3_exit+0x58>
    100e15cc:	f940a000 	ldr	x0, [x0, #320]
    100e15d0:	52810601 	mov	w1, #0x830                 	// #2096
    100e15d4:	72a618a1 	movk	w1, #0x30c5, lsl #16
    100e15d8:	12070000 	and	w0, w0, #0x2000000
    100e15dc:	2a010000 	orr	w0, w0, w1
    100e15e0:	d51c1000 	msr	sctlr_el2, x0
    100e15e4:	52800014 	mov	w20, #0x0                   	// #0
    100e15e8:	14000019 	b	100e164c <cm_prepare_el3_exit+0xb8>
    100e15ec:	d5380400 	mrs	x0, id_aa64pfr0_el1
    100e15f0:	f2780c1f 	tst	x0, #0xf00
    100e15f4:	54ffff80 	b.eq	100e15e4 <cm_prepare_el3_exit+0x50>  // b.none
    100e15f8:	d34a2820 	ubfx	x0, x1, #10, #1
    100e15fc:	d3618000 	lsl	x0, x0, #31
    100e1600:	b2580400 	orr	x0, x0, #0x30000000000
    100e1604:	d51c1100 	msr	hcr_el2, x0
    100e1608:	d2867fe0 	mov	x0, #0x33ff                	// #13311
    100e160c:	d51c1140 	msr	cptr_el2, x0
    100e1610:	d2800060 	mov	x0, #0x3                   	// #3
    100e1614:	d51ce100 	msr	cnthctl_el2, x0
    100e1618:	d2800000 	mov	x0, #0x0                   	// #0
    100e161c:	d51ce060 	msr	cntvoff_el2, x0
    100e1620:	d5380001 	mrs	x1, midr_el1
    100e1624:	d51c0001 	msr	vpidr_el2, x1
    100e1628:	d53800a1 	mrs	x1, mpidr_el1
    100e162c:	d51c00a1 	msr	vmpidr_el2, x1
    100e1630:	d51c2100 	msr	vttbr_el2, x0
    100e1634:	d53b9c01 	mrs	x1, pmcr_el0
    100e1638:	d34b3c21 	ubfx	x1, x1, #11, #5
    100e163c:	d51c1121 	msr	mdcr_el2, x1
    100e1640:	d51c1160 	msr	hstr_el2, x0
    100e1644:	d51ce220 	msr	cnthp_ctl_el2, x0
    100e1648:	2a1303f4 	mov	w20, w19
    100e164c:	2a1403e0 	mov	w0, w20
    100e1650:	9400075b 	bl	100e33bc <spe_enable>
    100e1654:	2a1403e0 	mov	w0, w20
    100e1658:	9400078d 	bl	100e348c <sve_enable>
    100e165c:	2a1303e0 	mov	w0, w19
    100e1660:	97ffff6a 	bl	100e1408 <cm_el1_sysregs_context_restore>
    100e1664:	2a1303e0 	mov	w0, w19
    100e1668:	a94153f3 	ldp	x19, x20, [sp, #16]
    100e166c:	a8c27bfd 	ldp	x29, x30, [sp], #32
    100e1670:	17ffffb6 	b	100e1548 <cm_set_next_eret_context>

00000000100e1674 <errata_needs_reporting>:
    100e1674:	b9400022 	ldr	w2, [x1]
    100e1678:	350002a2 	cbnz	w2, 100e16cc <errata_needs_reporting+0x58>
    100e167c:	a9bd7bfd 	stp	x29, x30, [sp, #-48]!
    100e1680:	910003fd 	mov	x29, sp
    100e1684:	a90153f3 	stp	x19, x20, [sp, #16]
    100e1688:	aa0103f3 	mov	x19, x1
    100e168c:	f90013f5 	str	x21, [sp, #32]
    100e1690:	aa0003f5 	mov	x21, x0
    100e1694:	94001093 	bl	100e58e0 <spin_lock>
    100e1698:	b9400260 	ldr	w0, [x19]
    100e169c:	7100001f 	cmp	w0, #0x0
    100e16a0:	1a9f17f4 	cset	w20, eq  // eq = none
    100e16a4:	35000060 	cbnz	w0, 100e16b0 <errata_needs_reporting+0x3c>
    100e16a8:	52800020 	mov	w0, #0x1                   	// #1
    100e16ac:	b9000260 	str	w0, [x19]
    100e16b0:	aa1503e0 	mov	x0, x21
    100e16b4:	94001093 	bl	100e5900 <spin_unlock>
    100e16b8:	2a1403e0 	mov	w0, w20
    100e16bc:	a94153f3 	ldp	x19, x20, [sp, #16]
    100e16c0:	f94013f5 	ldr	x21, [sp, #32]
    100e16c4:	a8c37bfd 	ldp	x29, x30, [sp], #48
    100e16c8:	d65f03c0 	ret
    100e16cc:	52800000 	mov	w0, #0x0                   	// #0
    100e16d0:	d65f03c0 	ret

00000000100e16d4 <errata_print_msg>:
    100e16d4:	a9bf7bfd 	stp	x29, x30, [sp, #-16]!
    100e16d8:	7100081f 	cmp	w0, #0x2
    100e16dc:	910003fd 	mov	x29, sp
    100e16e0:	540000a9 	b.ls	100e16f4 <errata_print_msg+0x20>  // b.plast
    100e16e4:	528009e1 	mov	w1, #0x4f                  	// #79
    100e16e8:	d0000020 	adrp	x0, 100e7000 <__TEXT_END__>
    100e16ec:	91144c00 	add	x0, x0, #0x513
    100e16f0:	940012bf 	bl	100e61ec <__assert>
    100e16f4:	b5000061 	cbnz	x1, 100e1700 <errata_print_msg+0x2c>
    100e16f8:	52800a01 	mov	w1, #0x50                  	// #80
    100e16fc:	17fffffb 	b	100e16e8 <errata_print_msg+0x14>
    100e1700:	aa0203e3 	mov	x3, x2
    100e1704:	b5000062 	cbnz	x2, 100e1710 <errata_print_msg+0x3c>
    100e1708:	52800a21 	mov	w1, #0x51                  	// #81
    100e170c:	17fffff7 	b	100e16e8 <errata_print_msg+0x14>
    100e1710:	7100041f 	cmp	w0, #0x1
    100e1714:	540000a0 	b.eq	100e1728 <errata_print_msg+0x54>  // b.none
    100e1718:	7100081f 	cmp	w0, #0x2
    100e171c:	54000180 	b.eq	100e174c <errata_print_msg+0x78>  // b.none
    100e1720:	a8c17bfd 	ldp	x29, x30, [sp], #16
    100e1724:	d65f03c0 	ret
    100e1728:	d0000024 	adrp	x4, 100e7000 <__TEXT_END__>
    100e172c:	9114b084 	add	x4, x4, #0x52c
    100e1730:	aa0103e2 	mov	x2, x1
    100e1734:	d0000020 	adrp	x0, 100e7000 <__TEXT_END__>
    100e1738:	9114e400 	add	x0, x0, #0x539
    100e173c:	d0000021 	adrp	x1, 100e7000 <__TEXT_END__>
    100e1740:	9114d021 	add	x1, x1, #0x534
    100e1744:	a8c17bfd 	ldp	x29, x30, [sp], #16
    100e1748:	140009da 	b	100e3eb0 <tf_log>
    100e174c:	d0000024 	adrp	x4, 100e7000 <__TEXT_END__>
    100e1750:	91158084 	add	x4, x4, #0x560
    100e1754:	aa0103e2 	mov	x2, x1
    100e1758:	d0000020 	adrp	x0, 100e7000 <__TEXT_END__>
    100e175c:	9115a400 	add	x0, x0, #0x569
    100e1760:	d0000021 	adrp	x1, 100e7000 <__TEXT_END__>
    100e1764:	9114d021 	add	x1, x1, #0x534
    100e1768:	17fffff7 	b	100e1744 <errata_print_msg+0x70>

00000000100e176c <psci_do_cpu_off>:
    100e176c:	a9bc7bfd 	stp	x29, x30, [sp, #-64]!
    100e1770:	910003fd 	mov	x29, sp
    100e1774:	a90153f3 	stp	x19, x20, [sp, #16]
    100e1778:	a9025bf5 	stp	x21, x22, [sp, #32]
    100e177c:	2a0003f5 	mov	w21, w0
    100e1780:	94000eda 	bl	100e52e8 <plat_my_core_pos>
    100e1784:	2a0003f6 	mov	w22, w0
    100e1788:	90000073 	adrp	x19, 100ed000 <__STACKS_START__+0x3f80>
    100e178c:	f9478260 	ldr	x0, [x19, #3840]
    100e1790:	f9400800 	ldr	x0, [x0, #16]
    100e1794:	b4000520 	cbz	x0, 100e1838 <psci_do_cpu_off+0xcc>
    100e1798:	52804040 	mov	w0, #0x202                 	// #514
    100e179c:	2a1603e1 	mov	w1, w22
    100e17a0:	790073e0 	strh	w0, [sp, #56]
    100e17a4:	2a1503e0 	mov	w0, w21
    100e17a8:	9400029e 	bl	100e2220 <psci_acquire_pwr_domain_locks>
    100e17ac:	90000060 	adrp	x0, 100ed000 <__STACKS_START__+0x3f80>
    100e17b0:	f9478400 	ldr	x0, [x0, #3848]
    100e17b4:	b50004a0 	cbnz	x0, 100e1848 <psci_do_cpu_off+0xdc>
    100e17b8:	9100e3e1 	add	x1, sp, #0x38
    100e17bc:	2a1503e0 	mov	w0, w21
    100e17c0:	9400021d 	bl	100e2034 <psci_do_state_coordination>
    100e17c4:	52800014 	mov	w20, #0x0                   	// #0
    100e17c8:	9100e3e0 	add	x0, sp, #0x38
    100e17cc:	94000281 	bl	100e21d0 <psci_find_max_off_lvl>
    100e17d0:	940003a6 	bl	100e2668 <psci_do_pwrdown_sequence>
    100e17d4:	f9478260 	ldr	x0, [x19, #3840]
    100e17d8:	f9400801 	ldr	x1, [x0, #16]
    100e17dc:	9100e3e0 	add	x0, sp, #0x38
    100e17e0:	d63f0020 	blr	x1
    100e17e4:	2a1603e1 	mov	w1, w22
    100e17e8:	2a1503e0 	mov	w0, w21
    100e17ec:	940002ab 	bl	100e2298 <psci_release_pwr_domain_locks>
    100e17f0:	350003d4 	cbnz	w20, 100e1868 <psci_do_cpu_off+0xfc>
    100e17f4:	d53ed040 	mrs	x0, tpidr_el3
    100e17f8:	d2800081 	mov	x1, #0x4                   	// #4
    100e17fc:	91016000 	add	x0, x0, #0x58
    100e1800:	9400113a 	bl	100e5ce8 <flush_dcache_range>
    100e1804:	d53ed040 	mrs	x0, tpidr_el3
    100e1808:	52800021 	mov	w1, #0x1                   	// #1
    100e180c:	b9005801 	str	w1, [x0, #88]
    100e1810:	d5033b9f 	dsb	ish
    100e1814:	d53ed040 	mrs	x0, tpidr_el3
    100e1818:	d2800081 	mov	x1, #0x4                   	// #4
    100e181c:	91016000 	add	x0, x0, #0x58
    100e1820:	9400114e 	bl	100e5d58 <inv_dcache_range>
    100e1824:	f9478260 	ldr	x0, [x19, #3840]
    100e1828:	f9401c01 	ldr	x1, [x0, #56]
    100e182c:	b40001c1 	cbz	x1, 100e1864 <psci_do_cpu_off+0xf8>
    100e1830:	9100e3e0 	add	x0, sp, #0x38
    100e1834:	d63f0020 	blr	x1
    100e1838:	d0000020 	adrp	x0, 100e7000 <__TEXT_END__>
    100e183c:	91164000 	add	x0, x0, #0x590
    100e1840:	528006a1 	mov	w1, #0x35                  	// #53
    100e1844:	9400126a 	bl	100e61ec <__assert>
    100e1848:	f9400401 	ldr	x1, [x0, #8]
    100e184c:	b4fffb61 	cbz	x1, 100e17b8 <psci_do_cpu_off+0x4c>
    100e1850:	d2800000 	mov	x0, #0x0                   	// #0
    100e1854:	d63f0020 	blr	x1
    100e1858:	2a0003f4 	mov	w20, w0
    100e185c:	34fffae0 	cbz	w0, 100e17b8 <psci_do_cpu_off+0x4c>
    100e1860:	17ffffe1 	b	100e17e4 <psci_do_cpu_off+0x78>
    100e1864:	94001045 	bl	100e5978 <psci_power_down_wfi>
    100e1868:	2a1403e0 	mov	w0, w20
    100e186c:	a94153f3 	ldp	x19, x20, [sp, #16]
    100e1870:	a9425bf5 	ldp	x21, x22, [sp, #32]
    100e1874:	a8c47bfd 	ldp	x29, x30, [sp], #64
    100e1878:	d65f03c0 	ret

00000000100e187c <psci_cpu_on_start>:
    100e187c:	a9bc7bfd 	stp	x29, x30, [sp, #-64]!
    100e1880:	910003fd 	mov	x29, sp
    100e1884:	a90153f3 	stp	x19, x20, [sp, #16]
    100e1888:	a9025bf5 	stp	x21, x22, [sp, #32]
    100e188c:	aa0103f6 	mov	x22, x1
    100e1890:	a90363f7 	stp	x23, x24, [sp, #48]
    100e1894:	aa0003f7 	mov	x23, x0
    100e1898:	97fffb58 	bl	100e05f8 <plat_core_pos_by_mpidr>
    100e189c:	36f800a0 	tbz	w0, #31, 100e18b0 <psci_cpu_on_start+0x34>
    100e18a0:	52800861 	mov	w1, #0x43                  	// #67
    100e18a4:	d0000020 	adrp	x0, 100e7000 <__TEXT_END__>
    100e18a8:	91169000 	add	x0, x0, #0x5a4
    100e18ac:	94001250 	bl	100e61ec <__assert>
    100e18b0:	b5000076 	cbnz	x22, 100e18bc <psci_cpu_on_start+0x40>
    100e18b4:	52800881 	mov	w1, #0x44                  	// #68
    100e18b8:	17fffffb 	b	100e18a4 <psci_cpu_on_start+0x28>
    100e18bc:	2a0003f3 	mov	w19, w0
    100e18c0:	90000074 	adrp	x20, 100ed000 <__STACKS_START__+0x3f80>
    100e18c4:	f9478280 	ldr	x0, [x20, #3840]
    100e18c8:	f9400401 	ldr	x1, [x0, #8]
    100e18cc:	b4000061 	cbz	x1, 100e18d8 <psci_cpu_on_start+0x5c>
    100e18d0:	f9401400 	ldr	x0, [x0, #40]
    100e18d4:	b5000060 	cbnz	x0, 100e18e0 <psci_cpu_on_start+0x64>
    100e18d8:	52800961 	mov	w1, #0x4b                  	// #75
    100e18dc:	17fffff2 	b	100e18a4 <psci_cpu_on_start+0x28>
    100e18e0:	d2800195 	mov	x21, #0xc                   	// #12
    100e18e4:	90000060 	adrp	x0, 100ed000 <__STACKS_START__+0x3f80>
    100e18e8:	913b0000 	add	x0, x0, #0xec0
    100e18ec:	8b33d2b5 	add	x21, x21, w19, sxtw #4
    100e18f0:	8b0002b5 	add	x21, x21, x0
    100e18f4:	aa1503e0 	mov	x0, x21
    100e18f8:	94000ffa 	bl	100e58e0 <spin_lock>
    100e18fc:	2a1303e0 	mov	w0, w19
    100e1900:	94000f98 	bl	100e5760 <_cpu_data_by_index>
    100e1904:	d2800081 	mov	x1, #0x4                   	// #4
    100e1908:	91016000 	add	x0, x0, #0x58
    100e190c:	940010f7 	bl	100e5ce8 <flush_dcache_range>
    100e1910:	2a1303e0 	mov	w0, w19
    100e1914:	94000f93 	bl	100e5760 <_cpu_data_by_index>
    100e1918:	b9405800 	ldr	w0, [x0, #88]
    100e191c:	340009e0 	cbz	w0, 100e1a58 <psci_cpu_on_start+0x1dc>
    100e1920:	7100081f 	cmp	w0, #0x2
    100e1924:	540009e0 	b.eq	100e1a60 <psci_cpu_on_start+0x1e4>  // b.none
    100e1928:	7100041f 	cmp	w0, #0x1
    100e192c:	54000060 	b.eq	100e1938 <psci_cpu_on_start+0xbc>  // b.none
    100e1930:	528005a1 	mov	w1, #0x2d                  	// #45
    100e1934:	17ffffdc 	b	100e18a4 <psci_cpu_on_start+0x28>
    100e1938:	90000060 	adrp	x0, 100ed000 <__STACKS_START__+0x3f80>
    100e193c:	f9478400 	ldr	x0, [x0, #3848]
    100e1940:	b40000a0 	cbz	x0, 100e1954 <psci_cpu_on_start+0xd8>
    100e1944:	f9400001 	ldr	x1, [x0]
    100e1948:	b4000061 	cbz	x1, 100e1954 <psci_cpu_on_start+0xd8>
    100e194c:	aa1703e0 	mov	x0, x23
    100e1950:	d63f0020 	blr	x1
    100e1954:	52800058 	mov	w24, #0x2                   	// #2
    100e1958:	2a1303e0 	mov	w0, w19
    100e195c:	94000f81 	bl	100e5760 <_cpu_data_by_index>
    100e1960:	b9005818 	str	w24, [x0, #88]
    100e1964:	2a1303e0 	mov	w0, w19
    100e1968:	94000f7e 	bl	100e5760 <_cpu_data_by_index>
    100e196c:	91016000 	add	x0, x0, #0x58
    100e1970:	d2800081 	mov	x1, #0x4                   	// #4
    100e1974:	940010dd 	bl	100e5ce8 <flush_dcache_range>
    100e1978:	2a1303e0 	mov	w0, w19
    100e197c:	94000f79 	bl	100e5760 <_cpu_data_by_index>
    100e1980:	b9405800 	ldr	w0, [x0, #88]
    100e1984:	6b18001f 	cmp	w0, w24
    100e1988:	54000280 	b.eq	100e19d8 <psci_cpu_on_start+0x15c>  // b.none
    100e198c:	7100041f 	cmp	w0, #0x1
    100e1990:	54000060 	b.eq	100e199c <psci_cpu_on_start+0x120>  // b.none
    100e1994:	52800fe1 	mov	w1, #0x7f                  	// #127
    100e1998:	17ffffc3 	b	100e18a4 <psci_cpu_on_start+0x28>
    100e199c:	2a1303e0 	mov	w0, w19
    100e19a0:	94000f70 	bl	100e5760 <_cpu_data_by_index>
    100e19a4:	b9005818 	str	w24, [x0, #88]
    100e19a8:	2a1303e0 	mov	w0, w19
    100e19ac:	94000f6d 	bl	100e5760 <_cpu_data_by_index>
    100e19b0:	91016000 	add	x0, x0, #0x58
    100e19b4:	d2800081 	mov	x1, #0x4                   	// #4
    100e19b8:	940010cc 	bl	100e5ce8 <flush_dcache_range>
    100e19bc:	2a1303e0 	mov	w0, w19
    100e19c0:	94000f68 	bl	100e5760 <_cpu_data_by_index>
    100e19c4:	b9405800 	ldr	w0, [x0, #88]
    100e19c8:	7100081f 	cmp	w0, #0x2
    100e19cc:	54000060 	b.eq	100e19d8 <psci_cpu_on_start+0x15c>  // b.none
    100e19d0:	528010a1 	mov	w1, #0x85                  	// #133
    100e19d4:	17ffffb4 	b	100e18a4 <psci_cpu_on_start+0x28>
    100e19d8:	f9478280 	ldr	x0, [x20, #3840]
    100e19dc:	f9400401 	ldr	x1, [x0, #8]
    100e19e0:	aa1703e0 	mov	x0, x23
    100e19e4:	d63f0020 	blr	x1
    100e19e8:	7100001f 	cmp	w0, #0x0
    100e19ec:	2a0003f4 	mov	w20, w0
    100e19f0:	3a461804 	ccmn	w0, #0x6, #0x4, ne  // ne = any
    100e19f4:	54000060 	b.eq	100e1a00 <psci_cpu_on_start+0x184>  // b.none
    100e19f8:	52801221 	mov	w1, #0x91                  	// #145
    100e19fc:	17ffffaa 	b	100e18a4 <psci_cpu_on_start+0x28>
    100e1a00:	35000180 	cbnz	w0, 100e1a30 <psci_cpu_on_start+0x1b4>
    100e1a04:	aa1603e1 	mov	x1, x22
    100e1a08:	2a1303e0 	mov	w0, w19
    100e1a0c:	97fffe45 	bl	100e1320 <cm_init_context_by_index>
    100e1a10:	aa1503e0 	mov	x0, x21
    100e1a14:	94000fbb 	bl	100e5900 <spin_unlock>
    100e1a18:	2a1403e0 	mov	w0, w20
    100e1a1c:	a94153f3 	ldp	x19, x20, [sp, #16]
    100e1a20:	a9425bf5 	ldp	x21, x22, [sp, #32]
    100e1a24:	a94363f7 	ldp	x23, x24, [sp, #48]
    100e1a28:	a8c47bfd 	ldp	x29, x30, [sp], #64
    100e1a2c:	d65f03c0 	ret
    100e1a30:	2a1303e0 	mov	w0, w19
    100e1a34:	94000f4b 	bl	100e5760 <_cpu_data_by_index>
    100e1a38:	52800021 	mov	w1, #0x1                   	// #1
    100e1a3c:	b9005801 	str	w1, [x0, #88]
    100e1a40:	2a1303e0 	mov	w0, w19
    100e1a44:	94000f47 	bl	100e5760 <_cpu_data_by_index>
    100e1a48:	91016000 	add	x0, x0, #0x58
    100e1a4c:	d2800081 	mov	x1, #0x4                   	// #4
    100e1a50:	940010a6 	bl	100e5ce8 <flush_dcache_range>
    100e1a54:	17ffffef 	b	100e1a10 <psci_cpu_on_start+0x194>
    100e1a58:	12800074 	mov	w20, #0xfffffffc            	// #-4
    100e1a5c:	17ffffed 	b	100e1a10 <psci_cpu_on_start+0x194>
    100e1a60:	12800094 	mov	w20, #0xfffffffb            	// #-5
    100e1a64:	17ffffeb 	b	100e1a10 <psci_cpu_on_start+0x194>

00000000100e1a68 <psci_cpu_on_finish>:
    100e1a68:	a9bd7bfd 	stp	x29, x30, [sp, #-48]!
    100e1a6c:	910003fd 	mov	x29, sp
    100e1a70:	a90153f3 	stp	x19, x20, [sp, #16]
    100e1a74:	2a0003f4 	mov	w20, w0
    100e1a78:	90000060 	adrp	x0, 100ed000 <__STACKS_START__+0x3f80>
    100e1a7c:	f9478000 	ldr	x0, [x0, #3840]
    100e1a80:	d2800193 	mov	x19, #0xc                   	// #12
    100e1a84:	a9025bf5 	stp	x21, x22, [sp, #32]
    100e1a88:	8b34d273 	add	x19, x19, w20, sxtw #4
    100e1a8c:	90000075 	adrp	x21, 100ed000 <__STACKS_START__+0x3f80>
    100e1a90:	913b02b5 	add	x21, x21, #0xec0
    100e1a94:	f9401402 	ldr	x2, [x0, #40]
    100e1a98:	aa0103e0 	mov	x0, x1
    100e1a9c:	8b150273 	add	x19, x19, x21
    100e1aa0:	d63f0040 	blr	x2
    100e1aa4:	94000fa8 	bl	100e5944 <psci_do_pwrup_cache_maintenance>
    100e1aa8:	94000469 	bl	100e2c4c <psci_arch_setup>
    100e1aac:	aa1303e0 	mov	x0, x19
    100e1ab0:	94000f8c 	bl	100e58e0 <spin_lock>
    100e1ab4:	aa1303e0 	mov	x0, x19
    100e1ab8:	94000f92 	bl	100e5900 <spin_unlock>
    100e1abc:	d53ed040 	mrs	x0, tpidr_el3
    100e1ac0:	b9405800 	ldr	w0, [x0, #88]
    100e1ac4:	7100081f 	cmp	w0, #0x2
    100e1ac8:	540000a0 	b.eq	100e1adc <psci_cpu_on_finish+0x74>  // b.none
    100e1acc:	d0000020 	adrp	x0, 100e7000 <__TEXT_END__>
    100e1ad0:	91169000 	add	x0, x0, #0x5a4
    100e1ad4:	52801921 	mov	w1, #0xc9                  	// #201
    100e1ad8:	940011c5 	bl	100e61ec <__assert>
    100e1adc:	90000060 	adrp	x0, 100ed000 <__STACKS_START__+0x3f80>
    100e1ae0:	f9478400 	ldr	x0, [x0, #3848]
    100e1ae4:	b40000a0 	cbz	x0, 100e1af8 <psci_cpu_on_finish+0x90>
    100e1ae8:	f9400c01 	ldr	x1, [x0, #24]
    100e1aec:	b4000061 	cbz	x1, 100e1af8 <psci_cpu_on_finish+0x90>
    100e1af0:	d2800000 	mov	x0, #0x0                   	// #0
    100e1af4:	d63f0020 	blr	x1
    100e1af8:	f0000033 	adrp	x19, 100e8000 <non_el3_sys_regs+0xa6>
    100e1afc:	910be273 	add	x19, x19, #0x2f8
    100e1b00:	f0000036 	adrp	x22, 100e8000 <non_el3_sys_regs+0xa6>
    100e1b04:	910be2d6 	add	x22, x22, #0x2f8
    100e1b08:	eb16027f 	cmp	x19, x22
    100e1b0c:	54000163 	b.cc	100e1b38 <psci_cpu_on_finish+0xd0>  // b.lo, b.ul, b.last
    100e1b10:	d53800a1 	mrs	x1, mpidr_el1
    100e1b14:	937c7e94 	sbfiz	x20, x20, #4, #32
    100e1b18:	92409c21 	and	x1, x1, #0xffffffffff
    100e1b1c:	9260dc21 	and	x1, x1, #0xffffffff00ffffff
    100e1b20:	52800020 	mov	w0, #0x1                   	// #1
    100e1b24:	f8346aa1 	str	x1, [x21, x20]
    100e1b28:	a94153f3 	ldp	x19, x20, [sp, #16]
    100e1b2c:	a9425bf5 	ldp	x21, x22, [sp, #32]
    100e1b30:	a8c37bfd 	ldp	x29, x30, [sp], #48
    100e1b34:	17fffe98 	b	100e1594 <cm_prepare_el3_exit>
    100e1b38:	f8408661 	ldr	x1, [x19], #8
    100e1b3c:	d2800000 	mov	x0, #0x0                   	// #0
    100e1b40:	d63f0020 	blr	x1
    100e1b44:	17fffff1 	b	100e1b08 <psci_cpu_on_finish+0xa0>

00000000100e1b48 <psci_cpu_suspend_start>:
    100e1b48:	a9b97bfd 	stp	x29, x30, [sp, #-112]!
    100e1b4c:	910003fd 	mov	x29, sp
    100e1b50:	a90153f3 	stp	x19, x20, [sp, #16]
    100e1b54:	2a0103f3 	mov	w19, w1
    100e1b58:	a9025bf5 	stp	x21, x22, [sp, #32]
    100e1b5c:	aa0203f5 	mov	x21, x2
    100e1b60:	a90363f7 	stp	x23, x24, [sp, #48]
    100e1b64:	a9046bf9 	stp	x25, x26, [sp, #64]
    100e1b68:	2a0303f9 	mov	w25, w3
    100e1b6c:	f9002bfb 	str	x27, [sp, #80]
    100e1b70:	aa0003fb 	mov	x27, x0
    100e1b74:	94000ddd 	bl	100e52e8 <plat_my_core_pos>
    100e1b78:	2a0003f7 	mov	w23, w0
    100e1b7c:	90000074 	adrp	x20, 100ed000 <__STACKS_START__+0x3f80>
    100e1b80:	f9478280 	ldr	x0, [x20, #3840]
    100e1b84:	f9401001 	ldr	x1, [x0, #32]
    100e1b88:	b4000061 	cbz	x1, 100e1b94 <psci_cpu_suspend_start+0x4c>
    100e1b8c:	f9401800 	ldr	x0, [x0, #48]
    100e1b90:	b50000a0 	cbnz	x0, 100e1ba4 <psci_cpu_suspend_start+0x5c>
    100e1b94:	d0000020 	adrp	x0, 100e7000 <__TEXT_END__>
    100e1b98:	9116dc00 	add	x0, x0, #0x5b7
    100e1b9c:	528014a1 	mov	w1, #0xa5                  	// #165
    100e1ba0:	94001193 	bl	100e61ec <__assert>
    100e1ba4:	2a1703e1 	mov	w1, w23
    100e1ba8:	2a1303e0 	mov	w0, w19
    100e1bac:	9400019d 	bl	100e2220 <psci_acquire_pwr_domain_locks>
    100e1bb0:	d538c100 	mrs	x0, isr_el1
    100e1bb4:	b50006e0 	cbnz	x0, 100e1c90 <psci_cpu_suspend_start+0x148>
    100e1bb8:	aa1503e1 	mov	x1, x21
    100e1bbc:	2a1303e0 	mov	w0, w19
    100e1bc0:	9400011d 	bl	100e2034 <psci_do_state_coordination>
    100e1bc4:	34000419 	cbz	w25, 100e1c44 <psci_cpu_suspend_start+0xfc>
    100e1bc8:	aa1503e0 	mov	x0, x21
    100e1bcc:	f0000036 	adrp	x22, 100e8000 <non_el3_sys_regs+0xa6>
    100e1bd0:	910be2d6 	add	x22, x22, #0x2f8
    100e1bd4:	9400017f 	bl	100e21d0 <psci_find_max_off_lvl>
    100e1bd8:	f0000038 	adrp	x24, 100e8000 <non_el3_sys_regs+0xa6>
    100e1bdc:	910be318 	add	x24, x24, #0x2f8
    100e1be0:	2a0003fa 	mov	w26, w0
    100e1be4:	eb1802df 	cmp	x22, x24
    100e1be8:	540004c3 	b.cc	100e1c80 <psci_cpu_suspend_start+0x138>  // b.lo, b.ul, b.last
    100e1bec:	d53ed040 	mrs	x0, tpidr_el3
    100e1bf0:	b9005c13 	str	w19, [x0, #92]
    100e1bf4:	d53ed040 	mrs	x0, tpidr_el3
    100e1bf8:	d2800081 	mov	x1, #0x4                   	// #4
    100e1bfc:	91017000 	add	x0, x0, #0x5c
    100e1c00:	9400103a 	bl	100e5ce8 <flush_dcache_range>
    100e1c04:	90000060 	adrp	x0, 100ed000 <__STACKS_START__+0x3f80>
    100e1c08:	f9478400 	ldr	x0, [x0, #3848]
    100e1c0c:	b40000a0 	cbz	x0, 100e1c20 <psci_cpu_suspend_start+0xd8>
    100e1c10:	f9400801 	ldr	x1, [x0, #16]
    100e1c14:	b4000061 	cbz	x1, 100e1c20 <psci_cpu_suspend_start+0xd8>
    100e1c18:	2a1a03e0 	mov	w0, w26
    100e1c1c:	d63f0020 	blr	x1
    100e1c20:	f9478280 	ldr	x0, [x20, #3840]
    100e1c24:	f9400c01 	ldr	x1, [x0, #24]
    100e1c28:	b4000061 	cbz	x1, 100e1c34 <psci_cpu_suspend_start+0xec>
    100e1c2c:	aa1503e0 	mov	x0, x21
    100e1c30:	d63f0020 	blr	x1
    100e1c34:	aa1b03e0 	mov	x0, x27
    100e1c38:	97fffdc5 	bl	100e134c <cm_init_my_context>
    100e1c3c:	2a1a03e0 	mov	w0, w26
    100e1c40:	9400028a 	bl	100e2668 <psci_do_pwrdown_sequence>
    100e1c44:	f9478280 	ldr	x0, [x20, #3840]
    100e1c48:	52800016 	mov	w22, #0x0                   	// #0
    100e1c4c:	f9401001 	ldr	x1, [x0, #32]
    100e1c50:	aa1503e0 	mov	x0, x21
    100e1c54:	d63f0020 	blr	x1
    100e1c58:	2a1703e1 	mov	w1, w23
    100e1c5c:	2a1303e0 	mov	w0, w19
    100e1c60:	9400018e 	bl	100e2298 <psci_release_pwr_domain_locks>
    100e1c64:	350003d6 	cbnz	w22, 100e1cdc <psci_cpu_suspend_start+0x194>
    100e1c68:	340001b9 	cbz	w25, 100e1c9c <psci_cpu_suspend_start+0x154>
    100e1c6c:	f9478280 	ldr	x0, [x20, #3840]
    100e1c70:	f9401c01 	ldr	x1, [x0, #56]
    100e1c74:	b4000121 	cbz	x1, 100e1c98 <psci_cpu_suspend_start+0x150>
    100e1c78:	aa1503e0 	mov	x0, x21
    100e1c7c:	d63f0020 	blr	x1
    100e1c80:	f84086c1 	ldr	x1, [x22], #8
    100e1c84:	d2800000 	mov	x0, #0x0                   	// #0
    100e1c88:	d63f0020 	blr	x1
    100e1c8c:	17ffffd6 	b	100e1be4 <psci_cpu_suspend_start+0x9c>
    100e1c90:	52800036 	mov	w22, #0x1                   	// #1
    100e1c94:	17fffff1 	b	100e1c58 <psci_cpu_suspend_start+0x110>
    100e1c98:	94000f38 	bl	100e5978 <psci_power_down_wfi>
    100e1c9c:	d503207f 	wfi
    100e1ca0:	2a1703e1 	mov	w1, w23
    100e1ca4:	2a1303e0 	mov	w0, w19
    100e1ca8:	9400015e 	bl	100e2220 <psci_acquire_pwr_domain_locks>
    100e1cac:	9101a3e1 	add	x1, sp, #0x68
    100e1cb0:	2a1303e0 	mov	w0, w19
    100e1cb4:	94000088 	bl	100e1ed4 <psci_get_target_local_pwr_states>
    100e1cb8:	f9478280 	ldr	x0, [x20, #3840]
    100e1cbc:	f9401801 	ldr	x1, [x0, #48]
    100e1cc0:	9101a3e0 	add	x0, sp, #0x68
    100e1cc4:	d63f0020 	blr	x1
    100e1cc8:	2a1303e0 	mov	w0, w19
    100e1ccc:	940000b3 	bl	100e1f98 <psci_set_pwr_domains_to_run>
    100e1cd0:	2a1703e1 	mov	w1, w23
    100e1cd4:	2a1303e0 	mov	w0, w19
    100e1cd8:	94000170 	bl	100e2298 <psci_release_pwr_domain_locks>
    100e1cdc:	a94153f3 	ldp	x19, x20, [sp, #16]
    100e1ce0:	a9425bf5 	ldp	x21, x22, [sp, #32]
    100e1ce4:	a94363f7 	ldp	x23, x24, [sp, #48]
    100e1ce8:	a9446bf9 	ldp	x25, x26, [sp, #64]
    100e1cec:	f9402bfb 	ldr	x27, [sp, #80]
    100e1cf0:	a8c77bfd 	ldp	x29, x30, [sp], #112
    100e1cf4:	d65f03c0 	ret

00000000100e1cf8 <psci_cpu_suspend_finish>:
    100e1cf8:	a9be7bfd 	stp	x29, x30, [sp, #-32]!
    100e1cfc:	910003fd 	mov	x29, sp
    100e1d00:	a90153f3 	stp	x19, x20, [sp, #16]
    100e1d04:	d53ed040 	mrs	x0, tpidr_el3
    100e1d08:	b9405800 	ldr	w0, [x0, #88]
    100e1d0c:	350000a0 	cbnz	w0, 100e1d20 <psci_cpu_suspend_finish+0x28>
    100e1d10:	39400020 	ldrb	w0, [x1]
    100e1d14:	aa0103f3 	mov	x19, x1
    100e1d18:	7100081f 	cmp	w0, #0x2
    100e1d1c:	540000a0 	b.eq	100e1d30 <psci_cpu_suspend_finish+0x38>  // b.none
    100e1d20:	52802341 	mov	w1, #0x11a                 	// #282
    100e1d24:	d0000020 	adrp	x0, 100e7000 <__TEXT_END__>
    100e1d28:	9116dc00 	add	x0, x0, #0x5b7
    100e1d2c:	94001130 	bl	100e61ec <__assert>
    100e1d30:	90000060 	adrp	x0, 100ed000 <__STACKS_START__+0x3f80>
    100e1d34:	f9478000 	ldr	x0, [x0, #3840]
    100e1d38:	f9401801 	ldr	x1, [x0, #48]
    100e1d3c:	aa1303e0 	mov	x0, x19
    100e1d40:	d63f0020 	blr	x1
    100e1d44:	94000f00 	bl	100e5944 <psci_do_pwrup_cache_maintenance>
    100e1d48:	940009db 	bl	100e44b4 <plat_get_syscnt_freq2>
    100e1d4c:	2a0003e0 	mov	w0, w0
    100e1d50:	d51be000 	msr	cntfrq_el0, x0
    100e1d54:	90000074 	adrp	x20, 100ed000 <__STACKS_START__+0x3f80>
    100e1d58:	f9478680 	ldr	x0, [x20, #3848]
    100e1d5c:	b40001a0 	cbz	x0, 100e1d90 <psci_cpu_suspend_finish+0x98>
    100e1d60:	f9401000 	ldr	x0, [x0, #32]
    100e1d64:	b4000160 	cbz	x0, 100e1d90 <psci_cpu_suspend_finish+0x98>
    100e1d68:	aa1303e0 	mov	x0, x19
    100e1d6c:	94000119 	bl	100e21d0 <psci_find_max_off_lvl>
    100e1d70:	7100081f 	cmp	w0, #0x2
    100e1d74:	54000061 	b.ne	100e1d80 <psci_cpu_suspend_finish+0x88>  // b.any
    100e1d78:	528026a1 	mov	w1, #0x135                 	// #309
    100e1d7c:	17ffffea 	b	100e1d24 <psci_cpu_suspend_finish+0x2c>
    100e1d80:	f9478681 	ldr	x1, [x20, #3848]
    100e1d84:	2a0003e0 	mov	w0, w0
    100e1d88:	f9401021 	ldr	x1, [x1, #32]
    100e1d8c:	d63f0020 	blr	x1
    100e1d90:	d53ed040 	mrs	x0, tpidr_el3
    100e1d94:	f0000033 	adrp	x19, 100e8000 <non_el3_sys_regs+0xa6>
    100e1d98:	910be273 	add	x19, x19, #0x2f8
    100e1d9c:	f0000034 	adrp	x20, 100e8000 <non_el3_sys_regs+0xa6>
    100e1da0:	910be294 	add	x20, x20, #0x2f8
    100e1da4:	52800041 	mov	w1, #0x2                   	// #2
    100e1da8:	b9005c01 	str	w1, [x0, #92]
    100e1dac:	eb14027f 	cmp	x19, x20
    100e1db0:	540000a3 	b.cc	100e1dc4 <psci_cpu_suspend_finish+0xcc>  // b.lo, b.ul, b.last
    100e1db4:	a94153f3 	ldp	x19, x20, [sp, #16]
    100e1db8:	52800020 	mov	w0, #0x1                   	// #1
    100e1dbc:	a8c27bfd 	ldp	x29, x30, [sp], #32
    100e1dc0:	17fffdf5 	b	100e1594 <cm_prepare_el3_exit>
    100e1dc4:	f8408661 	ldr	x1, [x19], #8
    100e1dc8:	d2800000 	mov	x0, #0x0                   	// #0
    100e1dcc:	d63f0020 	blr	x1
    100e1dd0:	17fffff7 	b	100e1dac <psci_cpu_suspend_finish+0xb4>

00000000100e1dd4 <psci_validate_power_state>:
    100e1dd4:	52bf9fc2 	mov	w2, #0xfcfe0000            	// #-50462720
    100e1dd8:	6a02001f 	tst	w0, w2
    100e1ddc:	54000181 	b.ne	100e1e0c <psci_validate_power_state+0x38>  // b.any
    100e1de0:	90000062 	adrp	x2, 100ed000 <__STACKS_START__+0x3f80>
    100e1de4:	f9478042 	ldr	x2, [x2, #3840]
    100e1de8:	f9402842 	ldr	x2, [x2, #80]
    100e1dec:	b50000e2 	cbnz	x2, 100e1e08 <psci_validate_power_state+0x34>
    100e1df0:	a9bf7bfd 	stp	x29, x30, [sp, #-16]!
    100e1df4:	d0000020 	adrp	x0, 100e7000 <__TEXT_END__>
    100e1df8:	911a6000 	add	x0, x0, #0x698
    100e1dfc:	910003fd 	mov	x29, sp
    100e1e00:	52801041 	mov	w1, #0x82                  	// #130
    100e1e04:	940010fa 	bl	100e61ec <__assert>
    100e1e08:	d61f0040 	br	x2
    100e1e0c:	12800020 	mov	w0, #0xfffffffe            	// #-2
    100e1e10:	d65f03c0 	ret

00000000100e1e14 <psci_query_sys_suspend_pwrstate>:
    100e1e14:	90000061 	adrp	x1, 100ed000 <__STACKS_START__+0x3f80>
    100e1e18:	f9478021 	ldr	x1, [x1, #3840]
    100e1e1c:	f9403021 	ldr	x1, [x1, #96]
    100e1e20:	b50000e1 	cbnz	x1, 100e1e3c <psci_query_sys_suspend_pwrstate+0x28>
    100e1e24:	a9bf7bfd 	stp	x29, x30, [sp, #-16]!
    100e1e28:	d0000020 	adrp	x0, 100e7000 <__TEXT_END__>
    100e1e2c:	911a6000 	add	x0, x0, #0x698
    100e1e30:	910003fd 	mov	x29, sp
    100e1e34:	52801241 	mov	w1, #0x92                  	// #146
    100e1e38:	940010ed 	bl	100e61ec <__assert>
    100e1e3c:	d61f0020 	br	x1

00000000100e1e40 <psci_is_last_on_cpu>:
    100e1e40:	a9be7bfd 	stp	x29, x30, [sp, #-32]!
    100e1e44:	910003fd 	mov	x29, sp
    100e1e48:	a90153f3 	stp	x19, x20, [sp, #16]
    100e1e4c:	94000d27 	bl	100e52e8 <plat_my_core_pos>
    100e1e50:	2a0003f4 	mov	w20, w0
    100e1e54:	52800013 	mov	w19, #0x0                   	// #0
    100e1e58:	6b13029f 	cmp	w20, w19
    100e1e5c:	540001e1 	b.ne	100e1e98 <psci_is_last_on_cpu+0x58>  // b.any
    100e1e60:	d53ed040 	mrs	x0, tpidr_el3
    100e1e64:	b9405800 	ldr	w0, [x0, #88]
    100e1e68:	35000100 	cbnz	w0, 100e1e88 <psci_is_last_on_cpu+0x48>
    100e1e6c:	11000673 	add	w19, w19, #0x1
    100e1e70:	7100127f 	cmp	w19, #0x4
    100e1e74:	54ffff21 	b.ne	100e1e58 <psci_is_last_on_cpu+0x18>  // b.any
    100e1e78:	52800020 	mov	w0, #0x1                   	// #1
    100e1e7c:	a94153f3 	ldp	x19, x20, [sp, #16]
    100e1e80:	a8c27bfd 	ldp	x29, x30, [sp], #32
    100e1e84:	d65f03c0 	ret
    100e1e88:	d0000020 	adrp	x0, 100e7000 <__TEXT_END__>
    100e1e8c:	911a6000 	add	x0, x0, #0x698
    100e1e90:	528014c1 	mov	w1, #0xa6                  	// #166
    100e1e94:	940010d6 	bl	100e61ec <__assert>
    100e1e98:	2a1303e0 	mov	w0, w19
    100e1e9c:	94000e31 	bl	100e5760 <_cpu_data_by_index>
    100e1ea0:	b9405800 	ldr	w0, [x0, #88]
    100e1ea4:	7100041f 	cmp	w0, #0x1
    100e1ea8:	54fffe20 	b.eq	100e1e6c <psci_is_last_on_cpu+0x2c>  // b.none
    100e1eac:	52800000 	mov	w0, #0x0                   	// #0
    100e1eb0:	17fffff3 	b	100e1e7c <psci_is_last_on_cpu+0x3c>

00000000100e1eb4 <psci_init_req_local_pwr_states>:
    100e1eb4:	90000062 	adrp	x2, 100ed000 <__STACKS_START__+0x3f80>
    100e1eb8:	91060041 	add	x1, x2, #0x180
    100e1ebc:	52800040 	mov	w0, #0x2                   	// #2
    100e1ec0:	39060040 	strb	w0, [x2, #384]
    100e1ec4:	39000420 	strb	w0, [x1, #1]
    100e1ec8:	39000820 	strb	w0, [x1, #2]
    100e1ecc:	39000c20 	strb	w0, [x1, #3]
    100e1ed0:	d65f03c0 	ret

00000000100e1ed4 <psci_get_target_local_pwr_states>:
    100e1ed4:	a9be7bfd 	stp	x29, x30, [sp, #-32]!
    100e1ed8:	910003fd 	mov	x29, sp
    100e1edc:	a90153f3 	stp	x19, x20, [sp, #16]
    100e1ee0:	2a0003f4 	mov	w20, w0
    100e1ee4:	aa0103f3 	mov	x19, x1
    100e1ee8:	d53ed040 	mrs	x0, tpidr_el3
    100e1eec:	39418000 	ldrb	w0, [x0, #96]
    100e1ef0:	39000020 	strb	w0, [x1]
    100e1ef4:	94000cfd 	bl	100e52e8 <plat_my_core_pos>
    100e1ef8:	d37c7c00 	ubfiz	x0, x0, #4, #32
    100e1efc:	90000062 	adrp	x2, 100ed000 <__STACKS_START__+0x3f80>
    100e1f00:	913b0042 	add	x2, x2, #0xec0
    100e1f04:	8b000042 	add	x2, x2, x0
    100e1f08:	d0000081 	adrp	x1, 100f3000 <psci_locks>
    100e1f0c:	91002021 	add	x1, x1, #0x8
    100e1f10:	b9400840 	ldr	w0, [x2, #8]
    100e1f14:	52800022 	mov	w2, #0x1                   	// #1
    100e1f18:	6b14005f 	cmp	w2, w20
    100e1f1c:	540000e9 	b.ls	100e1f38 <psci_get_target_local_pwr_states+0x64>  // b.plast
    100e1f20:	7100045f 	cmp	w2, #0x1
    100e1f24:	54000048 	b.hi	100e1f2c <psci_get_target_local_pwr_states+0x58>  // b.pmore
    100e1f28:	38224a7f 	strb	wzr, [x19, w2, uxtw]
    100e1f2c:	a94153f3 	ldp	x19, x20, [sp, #16]
    100e1f30:	a8c27bfd 	ldp	x29, x30, [sp], #32
    100e1f34:	d65f03c0 	ret
    100e1f38:	d37c7c00 	ubfiz	x0, x0, #4, #32
    100e1f3c:	8b000020 	add	x0, x1, x0
    100e1f40:	39403003 	ldrb	w3, [x0, #12]
    100e1f44:	38224a63 	strb	w3, [x19, w2, uxtw]
    100e1f48:	11000442 	add	w2, w2, #0x1
    100e1f4c:	b9400800 	ldr	w0, [x0, #8]
    100e1f50:	17fffff2 	b	100e1f18 <psci_get_target_local_pwr_states+0x44>

00000000100e1f54 <psci_get_parent_pwr_domain_nodes>:
    100e1f54:	90000063 	adrp	x3, 100ed000 <__STACKS_START__+0x3f80>
    100e1f58:	913b0063 	add	x3, x3, #0xec0
    100e1f5c:	8b20d060 	add	x0, x3, w0, sxtw #4
    100e1f60:	d0000084 	adrp	x4, 100f3000 <psci_locks>
    100e1f64:	91002084 	add	x4, x4, #0x8
    100e1f68:	d1001042 	sub	x2, x2, #0x4
    100e1f6c:	d2800003 	mov	x3, #0x0                   	// #0
    100e1f70:	b9400800 	ldr	w0, [x0, #8]
    100e1f74:	91000463 	add	x3, x3, #0x1
    100e1f78:	6b03003f 	cmp	w1, w3
    100e1f7c:	54000042 	b.cs	100e1f84 <psci_get_parent_pwr_domain_nodes+0x30>  // b.hs, b.nlast
    100e1f80:	d65f03c0 	ret
    100e1f84:	b8237840 	str	w0, [x2, x3, lsl #2]
    100e1f88:	d37c7c00 	ubfiz	x0, x0, #4, #32
    100e1f8c:	8b000080 	add	x0, x4, x0
    100e1f90:	b9400800 	ldr	w0, [x0, #8]
    100e1f94:	17fffff8 	b	100e1f74 <psci_get_parent_pwr_domain_nodes+0x20>

00000000100e1f98 <psci_set_pwr_domains_to_run>:
    100e1f98:	a9be7bfd 	stp	x29, x30, [sp, #-32]!
    100e1f9c:	910003fd 	mov	x29, sp
    100e1fa0:	f9000bf3 	str	x19, [sp, #16]
    100e1fa4:	2a0003f3 	mov	w19, w0
    100e1fa8:	94000cd0 	bl	100e52e8 <plat_my_core_pos>
    100e1fac:	2a0003e0 	mov	w0, w0
    100e1fb0:	90000061 	adrp	x1, 100ed000 <__STACKS_START__+0x3f80>
    100e1fb4:	913b0021 	add	x1, x1, #0xec0
    100e1fb8:	8b001021 	add	x1, x1, x0, lsl #4
    100e1fbc:	b9400822 	ldr	w2, [x1, #8]
    100e1fc0:	34000273 	cbz	w19, 100e200c <psci_set_pwr_domains_to_run+0x74>
    100e1fc4:	d0000081 	adrp	x1, 100f3000 <psci_locks>
    100e1fc8:	91002021 	add	x1, x1, #0x8
    100e1fcc:	d37c7c42 	ubfiz	x2, x2, #4, #32
    100e1fd0:	90000063 	adrp	x3, 100ed000 <__STACKS_START__+0x3f80>
    100e1fd4:	91060063 	add	x3, x3, #0x180
    100e1fd8:	8b020022 	add	x2, x1, x2
    100e1fdc:	7100067f 	cmp	w19, #0x1
    100e1fe0:	3820687f 	strb	wzr, [x3, x0]
    100e1fe4:	3900305f 	strb	wzr, [x2, #12]
    100e1fe8:	b9400840 	ldr	w0, [x2, #8]
    100e1fec:	54000109 	b.ls	100e200c <psci_set_pwr_domains_to_run+0x74>  // b.plast
    100e1ff0:	d37c7c00 	ubfiz	x0, x0, #4, #32
    100e1ff4:	8b000021 	add	x1, x1, x0
    100e1ff8:	d0000020 	adrp	x0, 100e7000 <__TEXT_END__>
    100e1ffc:	911a6000 	add	x0, x0, #0x698
    100e2000:	3900303f 	strb	wzr, [x1, #12]
    100e2004:	52801a61 	mov	w1, #0xd3                  	// #211
    100e2008:	94001079 	bl	100e61ec <__assert>
    100e200c:	d53ed040 	mrs	x0, tpidr_el3
    100e2010:	b900581f 	str	wzr, [x0, #88]
    100e2014:	d53ed040 	mrs	x0, tpidr_el3
    100e2018:	3901801f 	strb	wzr, [x0, #96]
    100e201c:	d53ed040 	mrs	x0, tpidr_el3
    100e2020:	f9400bf3 	ldr	x19, [sp, #16]
    100e2024:	d2800181 	mov	x1, #0xc                   	// #12
    100e2028:	a8c27bfd 	ldp	x29, x30, [sp], #32
    100e202c:	91016000 	add	x0, x0, #0x58
    100e2030:	14000f2e 	b	100e5ce8 <flush_dcache_range>

00000000100e2034 <psci_do_state_coordination>:
    100e2034:	a9bb7bfd 	stp	x29, x30, [sp, #-80]!
    100e2038:	910003fd 	mov	x29, sp
    100e203c:	a90153f3 	stp	x19, x20, [sp, #16]
    100e2040:	aa0103f3 	mov	x19, x1
    100e2044:	a9025bf5 	stp	x21, x22, [sp, #32]
    100e2048:	a90363f7 	stp	x23, x24, [sp, #48]
    100e204c:	2a0003f8 	mov	w24, w0
    100e2050:	f90023f9 	str	x25, [sp, #64]
    100e2054:	94000ca5 	bl	100e52e8 <plat_my_core_pos>
    100e2058:	7100071f 	cmp	w24, #0x1
    100e205c:	540000a9 	b.ls	100e2070 <psci_do_state_coordination+0x3c>  // b.plast
    100e2060:	b0000020 	adrp	x0, 100e7000 <__TEXT_END__>
    100e2064:	911a6000 	add	x0, x0, #0x698
    100e2068:	52803501 	mov	w1, #0x1a8                 	// #424
    100e206c:	94001060 	bl	100e61ec <__assert>
    100e2070:	2a0003f5 	mov	w21, w0
    100e2074:	f0000054 	adrp	x20, 100ed000 <__STACKS_START__+0x3f80>
    100e2078:	913b0294 	add	x20, x20, #0xec0
    100e207c:	f0000056 	adrp	x22, 100ed000 <__STACKS_START__+0x3f80>
    100e2080:	910602d6 	add	x22, x22, #0x180
    100e2084:	8b151280 	add	x0, x20, x21, lsl #4
    100e2088:	b0000097 	adrp	x23, 100f3000 <psci_locks>
    100e208c:	910022f7 	add	x23, x23, #0x8
    100e2090:	b9400801 	ldr	w1, [x0, #8]
    100e2094:	52800020 	mov	w0, #0x1                   	// #1
    100e2098:	6b18001f 	cmp	w0, w24
    100e209c:	540001a8 	b.hi	100e20d0 <psci_do_state_coordination+0x9c>  // b.pmore
    100e20a0:	d37c7c21 	ubfiz	x1, x1, #4, #32
    100e20a4:	39400660 	ldrb	w0, [x19, #1]
    100e20a8:	8b0102f9 	add	x25, x23, x1
    100e20ac:	38356ac0 	strb	w0, [x22, x21]
    100e20b0:	52800020 	mov	w0, #0x1                   	// #1
    100e20b4:	b8a16ae1 	ldrsw	x1, [x23, x1]
    100e20b8:	b9400722 	ldr	w2, [x25, #4]
    100e20bc:	8b0102c1 	add	x1, x22, x1
    100e20c0:	97fff830 	bl	100e0180 <plat_get_target_pwr_state>
    100e20c4:	39000660 	strb	w0, [x19, #1]
    100e20c8:	72001c1f 	tst	w0, #0xff
    100e20cc:	54000261 	b.ne	100e2118 <psci_do_state_coordination+0xe4>  // b.any
    100e20d0:	39400261 	ldrb	w1, [x19]
    100e20d4:	d53ed040 	mrs	x0, tpidr_el3
    100e20d8:	39018001 	strb	w1, [x0, #96]
    100e20dc:	d53ed040 	mrs	x0, tpidr_el3
    100e20e0:	91018000 	add	x0, x0, #0x60
    100e20e4:	d2800021 	mov	x1, #0x1                   	// #1
    100e20e8:	94000f00 	bl	100e5ce8 <flush_dcache_range>
    100e20ec:	94000c7f 	bl	100e52e8 <plat_my_core_pos>
    100e20f0:	d37c7c00 	ubfiz	x0, x0, #4, #32
    100e20f4:	8b000294 	add	x20, x20, x0
    100e20f8:	b9400a80 	ldr	w0, [x20, #8]
    100e20fc:	35000158 	cbnz	w24, 100e2124 <psci_do_state_coordination+0xf0>
    100e2100:	a94153f3 	ldp	x19, x20, [sp, #16]
    100e2104:	a9425bf5 	ldp	x21, x22, [sp, #32]
    100e2108:	a94363f7 	ldp	x23, x24, [sp, #48]
    100e210c:	f94023f9 	ldr	x25, [sp, #64]
    100e2110:	a8c57bfd 	ldp	x29, x30, [sp], #80
    100e2114:	d65f03c0 	ret
    100e2118:	52800040 	mov	w0, #0x2                   	// #2
    100e211c:	b9400b21 	ldr	w1, [x25, #8]
    100e2120:	17ffffde 	b	100e2098 <psci_do_state_coordination+0x64>
    100e2124:	d37c7c01 	ubfiz	x1, x0, #4, #32
    100e2128:	b0000080 	adrp	x0, 100f3000 <psci_locks>
    100e212c:	91002000 	add	x0, x0, #0x8
    100e2130:	39400662 	ldrb	w2, [x19, #1]
    100e2134:	8b010000 	add	x0, x0, x1
    100e2138:	39003002 	strb	w2, [x0, #12]
    100e213c:	17fffff1 	b	100e2100 <psci_do_state_coordination+0xcc>

00000000100e2140 <psci_validate_suspend_req>:
    100e2140:	39400404 	ldrb	w4, [x0, #1]
    100e2144:	aa0003e3 	mov	x3, x0
    100e2148:	350001e4 	cbnz	w4, 100e2184 <psci_validate_suspend_req+0x44>
    100e214c:	39400002 	ldrb	w2, [x0]
    100e2150:	12800020 	mov	w0, #0xfffffffe            	// #-2
    100e2154:	340003c2 	cbz	w2, 100e21cc <psci_validate_suspend_req+0x8c>
    100e2158:	d2800002 	mov	x2, #0x0                   	// #0
    100e215c:	52800005 	mov	w5, #0x0                   	// #0
    100e2160:	38626860 	ldrb	w0, [x3, x2]
    100e2164:	34000140 	cbz	w0, 100e218c <psci_validate_suspend_req+0x4c>
    100e2168:	7100041f 	cmp	w0, #0x1
    100e216c:	54000148 	b.hi	100e2194 <psci_validate_suspend_req+0x54>  // b.pmore
    100e2170:	52800020 	mov	w0, #0x1                   	// #1
    100e2174:	6b0000bf 	cmp	w5, w0
    100e2178:	54000109 	b.ls	100e2198 <psci_validate_suspend_req+0x58>  // b.plast
    100e217c:	12800020 	mov	w0, #0xfffffffe            	// #-2
    100e2180:	14000013 	b	100e21cc <psci_validate_suspend_req+0x8c>
    100e2184:	d2800022 	mov	x2, #0x1                   	// #1
    100e2188:	17fffff5 	b	100e215c <psci_validate_suspend_req+0x1c>
    100e218c:	52800000 	mov	w0, #0x0                   	// #0
    100e2190:	17fffff9 	b	100e2174 <psci_validate_suspend_req+0x34>
    100e2194:	52800040 	mov	w0, #0x2                   	// #2
    100e2198:	d1000442 	sub	x2, x2, #0x1
    100e219c:	2a0003e5 	mov	w5, w0
    100e21a0:	3100045f 	cmn	w2, #0x1
    100e21a4:	54fffde1 	b.ne	100e2160 <psci_validate_suspend_req+0x20>  // b.any
    100e21a8:	7100089f 	cmp	w4, #0x2
    100e21ac:	540000a0 	b.eq	100e21c0 <psci_validate_suspend_req+0x80>  // b.none
    100e21b0:	39400062 	ldrb	w2, [x3]
    100e21b4:	52800000 	mov	w0, #0x0                   	// #0
    100e21b8:	7100085f 	cmp	w2, #0x2
    100e21bc:	54000081 	b.ne	100e21cc <psci_validate_suspend_req+0x8c>  // b.any
    100e21c0:	7100003f 	cmp	w1, #0x0
    100e21c4:	12800020 	mov	w0, #0xfffffffe            	// #-2
    100e21c8:	1a8013e0 	csel	w0, wzr, w0, ne  // ne = any
    100e21cc:	d65f03c0 	ret

00000000100e21d0 <psci_find_max_off_lvl>:
    100e21d0:	39400401 	ldrb	w1, [x0, #1]
    100e21d4:	7100083f 	cmp	w1, #0x2
    100e21d8:	540000e0 	b.eq	100e21f4 <psci_find_max_off_lvl+0x24>  // b.none
    100e21dc:	39400001 	ldrb	w1, [x0]
    100e21e0:	52800040 	mov	w0, #0x2                   	// #2
    100e21e4:	6b00003f 	cmp	w1, w0
    100e21e8:	54000041 	b.ne	100e21f0 <psci_find_max_off_lvl+0x20>  // b.any
    100e21ec:	52800000 	mov	w0, #0x0                   	// #0
    100e21f0:	d65f03c0 	ret
    100e21f4:	52800020 	mov	w0, #0x1                   	// #1
    100e21f8:	17fffffe 	b	100e21f0 <psci_find_max_off_lvl+0x20>

00000000100e21fc <psci_find_target_suspend_lvl>:
    100e21fc:	39400401 	ldrb	w1, [x0, #1]
    100e2200:	350000c1 	cbnz	w1, 100e2218 <psci_find_target_suspend_lvl+0x1c>
    100e2204:	39400001 	ldrb	w1, [x0]
    100e2208:	52800040 	mov	w0, #0x2                   	// #2
    100e220c:	34000041 	cbz	w1, 100e2214 <psci_find_target_suspend_lvl+0x18>
    100e2210:	52800000 	mov	w0, #0x0                   	// #0
    100e2214:	d65f03c0 	ret
    100e2218:	52800020 	mov	w0, #0x1                   	// #1
    100e221c:	17fffffe 	b	100e2214 <psci_find_target_suspend_lvl+0x18>

00000000100e2220 <psci_acquire_pwr_domain_locks>:
    100e2220:	a9bc7bfd 	stp	x29, x30, [sp, #-64]!
    100e2224:	910003fd 	mov	x29, sp
    100e2228:	f9001bf7 	str	x23, [sp, #48]
    100e222c:	2a0003f7 	mov	w23, w0
    100e2230:	f0000040 	adrp	x0, 100ed000 <__STACKS_START__+0x3f80>
    100e2234:	913b0000 	add	x0, x0, #0xec0
    100e2238:	8b21d001 	add	x1, x0, w1, sxtw #4
    100e223c:	a90153f3 	stp	x19, x20, [sp, #16]
    100e2240:	52800034 	mov	w20, #0x1                   	// #1
    100e2244:	a9025bf5 	stp	x21, x22, [sp, #32]
    100e2248:	b0000095 	adrp	x21, 100f3000 <psci_locks>
    100e224c:	910002b5 	add	x21, x21, #0x0
    100e2250:	b9400833 	ldr	w19, [x1, #8]
    100e2254:	b0000096 	adrp	x22, 100f3000 <psci_locks>
    100e2258:	910022d6 	add	x22, x22, #0x8
    100e225c:	6b17029f 	cmp	w20, w23
    100e2260:	540000c9 	b.ls	100e2278 <psci_acquire_pwr_domain_locks+0x58>  // b.plast
    100e2264:	a94153f3 	ldp	x19, x20, [sp, #16]
    100e2268:	a9425bf5 	ldp	x21, x22, [sp, #32]
    100e226c:	f9401bf7 	ldr	x23, [sp, #48]
    100e2270:	a8c47bfd 	ldp	x29, x30, [sp], #64
    100e2274:	d65f03c0 	ret
    100e2278:	d37c7e73 	ubfiz	x19, x19, #4, #32
    100e227c:	11000694 	add	w20, w20, #0x1
    100e2280:	8b1302d3 	add	x19, x22, x19
    100e2284:	39403a60 	ldrb	w0, [x19, #14]
    100e2288:	8b000ea0 	add	x0, x21, x0, lsl #3
    100e228c:	940003e8 	bl	100e322c <bakery_lock_get>
    100e2290:	b9400a73 	ldr	w19, [x19, #8]
    100e2294:	17fffff2 	b	100e225c <psci_acquire_pwr_domain_locks+0x3c>

00000000100e2298 <psci_release_pwr_domain_locks>:
    100e2298:	a9bc7bfd 	stp	x29, x30, [sp, #-64]!
    100e229c:	910003fd 	mov	x29, sp
    100e22a0:	a90153f3 	stp	x19, x20, [sp, #16]
    100e22a4:	2a0003f3 	mov	w19, w0
    100e22a8:	b0000094 	adrp	x20, 100f3000 <psci_locks>
    100e22ac:	91000294 	add	x20, x20, #0x0
    100e22b0:	a9025bf5 	stp	x21, x22, [sp, #32]
    100e22b4:	9100e3f6 	add	x22, sp, #0x38
    100e22b8:	2a0103e0 	mov	w0, w1
    100e22bc:	b0000095 	adrp	x21, 100f3000 <psci_locks>
    100e22c0:	910022b5 	add	x21, x21, #0x8
    100e22c4:	aa1603e2 	mov	x2, x22
    100e22c8:	2a1303e1 	mov	w1, w19
    100e22cc:	b9003bff 	str	wzr, [sp, #56]
    100e22d0:	97ffff21 	bl	100e1f54 <psci_get_parent_pwr_domain_nodes>
    100e22d4:	350000b3 	cbnz	w19, 100e22e8 <psci_release_pwr_domain_locks+0x50>
    100e22d8:	a94153f3 	ldp	x19, x20, [sp, #16]
    100e22dc:	a9425bf5 	ldp	x21, x22, [sp, #32]
    100e22e0:	a8c47bfd 	ldp	x29, x30, [sp], #64
    100e22e4:	d65f03c0 	ret
    100e22e8:	51000673 	sub	w19, w19, #0x1
    100e22ec:	b8735ac0 	ldr	w0, [x22, w19, uxtw #2]
    100e22f0:	8b0012a0 	add	x0, x21, x0, lsl #4
    100e22f4:	39403800 	ldrb	w0, [x0, #14]
    100e22f8:	8b000e80 	add	x0, x20, x0, lsl #3
    100e22fc:	94000406 	bl	100e3314 <bakery_lock_release>
    100e2300:	17fffff5 	b	100e22d4 <psci_release_pwr_domain_locks+0x3c>

00000000100e2304 <psci_validate_mpidr>:
    100e2304:	a9bf7bfd 	stp	x29, x30, [sp, #-16]!
    100e2308:	910003fd 	mov	x29, sp
    100e230c:	97fff8bb 	bl	100e05f8 <plat_core_pos_by_mpidr>
    100e2310:	7100001f 	cmp	w0, #0x0
    100e2314:	a8c17bfd 	ldp	x29, x30, [sp], #16
    100e2318:	12800020 	mov	w0, #0xfffffffe            	// #-2
    100e231c:	1a9fb000 	csel	w0, w0, wzr, lt  // lt = tstop
    100e2320:	d65f03c0 	ret

00000000100e2324 <psci_validate_entry_point>:
    100e2324:	a9bb7bfd 	stp	x29, x30, [sp, #-80]!
    100e2328:	910003fd 	mov	x29, sp
    100e232c:	a90153f3 	stp	x19, x20, [sp, #16]
    100e2330:	aa0003f4 	mov	x20, x0
    100e2334:	f0000040 	adrp	x0, 100ed000 <__STACKS_START__+0x3f80>
    100e2338:	f9478000 	ldr	x0, [x0, #3840]
    100e233c:	aa0103f3 	mov	x19, x1
    100e2340:	a9025bf5 	stp	x21, x22, [sp, #32]
    100e2344:	f9402c01 	ldr	x1, [x0, #88]
    100e2348:	a90363f7 	stp	x23, x24, [sp, #48]
    100e234c:	f90023f9 	str	x25, [sp, #64]
    100e2350:	aa0203f9 	mov	x25, x2
    100e2354:	b5000361 	cbnz	x1, 100e23c0 <psci_validate_entry_point+0x9c>
    100e2358:	d53e1117 	mrs	x23, scr_el3
    100e235c:	d5381000 	mrs	x0, sctlr_el1
    100e2360:	927802f8 	and	x24, x23, #0x100
    100e2364:	37400437 	tbnz	w23, #8, 100e23e8 <psci_validate_entry_point+0xc4>
    100e2368:	f2670001 	ands	x1, x0, #0x2000000
    100e236c:	53196415 	ubfx	w21, w0, #25, #1
    100e2370:	d2800076 	mov	x22, #0x3                   	// #3
    100e2374:	52802021 	mov	w1, #0x101                 	// #257
    100e2378:	72a00b01 	movk	w1, #0x58, lsl #16
    100e237c:	9a9f16c0 	csinc	x0, x22, xzr, ne  // ne = any
    100e2380:	29000281 	stp	w1, w0, [x20]
    100e2384:	d2800801 	mov	x1, #0x40                  	// #64
    100e2388:	f9000693 	str	x19, [x20, #8]
    100e238c:	91006280 	add	x0, x20, #0x18
    100e2390:	94000ebf 	bl	100e5e8c <zeromem>
    100e2394:	f9000e99 	str	x25, [x20, #24]
    100e2398:	365002d7 	tbz	w23, #10, 100e23f0 <psci_validate_entry_point+0xcc>
    100e239c:	37000193 	tbnz	w19, #0, 100e23cc <psci_validate_entry_point+0xa8>
    100e23a0:	f100031f 	cmp	x24, #0x0
    100e23a4:	52807821 	mov	w1, #0x3c1                 	// #961
    100e23a8:	1a9f07e0 	cset	w0, ne  // ne = any
    100e23ac:	11000400 	add	w0, w0, #0x1
    100e23b0:	2a000820 	orr	w0, w1, w0, lsl #2
    100e23b4:	b9001280 	str	w0, [x20, #16]
    100e23b8:	52800000 	mov	w0, #0x0                   	// #0
    100e23bc:	14000005 	b	100e23d0 <psci_validate_entry_point+0xac>
    100e23c0:	aa1303e0 	mov	x0, x19
    100e23c4:	d63f0020 	blr	x1
    100e23c8:	34fffc80 	cbz	w0, 100e2358 <psci_validate_entry_point+0x34>
    100e23cc:	12800100 	mov	w0, #0xfffffff7            	// #-9
    100e23d0:	a94153f3 	ldp	x19, x20, [sp, #16]
    100e23d4:	a9425bf5 	ldp	x21, x22, [sp, #32]
    100e23d8:	a94363f7 	ldp	x23, x24, [sp, #48]
    100e23dc:	f94023f9 	ldr	x25, [sp, #64]
    100e23e0:	a8c57bfd 	ldp	x29, x30, [sp], #80
    100e23e4:	d65f03c0 	ret
    100e23e8:	d53c1000 	mrs	x0, sctlr_el2
    100e23ec:	17ffffdf 	b	100e2368 <psci_validate_entry_point+0x44>
    100e23f0:	52800140 	mov	w0, #0xa                   	// #10
    100e23f4:	f100031f 	cmp	x24, #0x0
    100e23f8:	1a8002d6 	csel	w22, w22, w0, eq  // eq = none
    100e23fc:	531b0273 	ubfiz	w19, w19, #5, #1
    100e2400:	52803a00 	mov	w0, #0x1d0                 	// #464
    100e2404:	2a160273 	orr	w19, w19, w22
    100e2408:	2a152400 	orr	w0, w0, w21, lsl #9
    100e240c:	2a000273 	orr	w19, w19, w0
    100e2410:	b9001293 	str	w19, [x20, #16]
    100e2414:	17ffffe9 	b	100e23b8 <psci_validate_entry_point+0x94>

00000000100e2418 <psci_warmboot_entrypoint>:
    100e2418:	a9bd7bfd 	stp	x29, x30, [sp, #-48]!
    100e241c:	910003fd 	mov	x29, sp
    100e2420:	a90153f3 	stp	x19, x20, [sp, #16]
    100e2424:	94000bb1 	bl	100e52e8 <plat_my_core_pos>
    100e2428:	2a0003f4 	mov	w20, w0
    100e242c:	790053ff 	strh	wzr, [sp, #40]
    100e2430:	d53ed040 	mrs	x0, tpidr_el3
    100e2434:	b9405800 	ldr	w0, [x0, #88]
    100e2438:	7100041f 	cmp	w0, #0x1
    100e243c:	54000121 	b.ne	100e2460 <psci_warmboot_entrypoint+0x48>  // b.any
    100e2440:	b0000020 	adrp	x0, 100e7000 <__TEXT_END__>
    100e2444:	911abc00 	add	x0, x0, #0x6af
    100e2448:	9400069a 	bl	100e3eb0 <tf_log>
    100e244c:	b0000020 	adrp	x0, 100e7000 <__TEXT_END__>
    100e2450:	91173c00 	add	x0, x0, #0x5cf
    100e2454:	94000787 	bl	100e4270 <backtrace>
    100e2458:	94000724 	bl	100e40e8 <console_flush>
    100e245c:	94000e12 	bl	100e5ca4 <do_panic>
    100e2460:	d53ed040 	mrs	x0, tpidr_el3
    100e2464:	b9405c13 	ldr	w19, [x0, #92]
    100e2468:	2a1403e1 	mov	w1, w20
    100e246c:	71000a7f 	cmp	w19, #0x2
    100e2470:	1a9f1673 	csinc	w19, w19, wzr, ne  // ne = any
    100e2474:	2a1303e0 	mov	w0, w19
    100e2478:	97ffff6a 	bl	100e2220 <psci_acquire_pwr_domain_locks>
    100e247c:	9100a3e1 	add	x1, sp, #0x28
    100e2480:	2a1303e0 	mov	w0, w19
    100e2484:	97fffe94 	bl	100e1ed4 <psci_get_target_local_pwr_states>
    100e2488:	d53ed040 	mrs	x0, tpidr_el3
    100e248c:	b9405800 	ldr	w0, [x0, #88]
    100e2490:	9100a3e1 	add	x1, sp, #0x28
    100e2494:	7100081f 	cmp	w0, #0x2
    100e2498:	2a1403e0 	mov	w0, w20
    100e249c:	54000141 	b.ne	100e24c4 <psci_warmboot_entrypoint+0xac>  // b.any
    100e24a0:	97fffd72 	bl	100e1a68 <psci_cpu_on_finish>
    100e24a4:	2a1303e0 	mov	w0, w19
    100e24a8:	97fffebc 	bl	100e1f98 <psci_set_pwr_domains_to_run>
    100e24ac:	2a1403e1 	mov	w1, w20
    100e24b0:	2a1303e0 	mov	w0, w19
    100e24b4:	97ffff79 	bl	100e2298 <psci_release_pwr_domain_locks>
    100e24b8:	a94153f3 	ldp	x19, x20, [sp, #16]
    100e24bc:	a8c37bfd 	ldp	x29, x30, [sp], #48
    100e24c0:	d65f03c0 	ret
    100e24c4:	97fffe0d 	bl	100e1cf8 <psci_cpu_suspend_finish>
    100e24c8:	17fffff7 	b	100e24a4 <psci_warmboot_entrypoint+0x8c>

00000000100e24cc <psci_register_spd_pm_hook>:
    100e24cc:	b50000e0 	cbnz	x0, 100e24e8 <psci_register_spd_pm_hook+0x1c>
    100e24d0:	a9bf7bfd 	stp	x29, x30, [sp, #-16]!
    100e24d4:	b0000020 	adrp	x0, 100e7000 <__TEXT_END__>
    100e24d8:	911a6000 	add	x0, x0, #0x698
    100e24dc:	910003fd 	mov	x29, sp
    100e24e0:	52806981 	mov	w1, #0x34c                 	// #844
    100e24e4:	94000f42 	bl	100e61ec <__assert>
    100e24e8:	f0000041 	adrp	x1, 100ed000 <__STACKS_START__+0x3f80>
    100e24ec:	f9078420 	str	x0, [x1, #3848]
    100e24f0:	f9401401 	ldr	x1, [x0, #40]
    100e24f4:	b40000a1 	cbz	x1, 100e2508 <psci_register_spd_pm_hook+0x3c>
    100e24f8:	f0000042 	adrp	x2, 100ed000 <__STACKS_START__+0x3f80>
    100e24fc:	b94f1041 	ldr	w1, [x2, #3856]
    100e2500:	321b0021 	orr	w1, w1, #0x20
    100e2504:	b90f1041 	str	w1, [x2, #3856]
    100e2508:	f9401800 	ldr	x0, [x0, #48]
    100e250c:	b40000a0 	cbz	x0, 100e2520 <psci_register_spd_pm_hook+0x54>
    100e2510:	f0000041 	adrp	x1, 100ed000 <__STACKS_START__+0x3f80>
    100e2514:	b94f1020 	ldr	w0, [x1, #3856]
    100e2518:	321a0400 	orr	w0, w0, #0xc0
    100e251c:	b90f1020 	str	w0, [x1, #3856]
    100e2520:	d65f03c0 	ret

00000000100e2524 <psci_spd_migrate_info>:
    100e2524:	f0000041 	adrp	x1, 100ed000 <__STACKS_START__+0x3f80>
    100e2528:	f9478421 	ldr	x1, [x1, #3848]
    100e252c:	b40001a1 	cbz	x1, 100e2560 <psci_spd_migrate_info+0x3c>
    100e2530:	f9401821 	ldr	x1, [x1, #48]
    100e2534:	b4000161 	cbz	x1, 100e2560 <psci_spd_migrate_info+0x3c>
    100e2538:	a9bf7bfd 	stp	x29, x30, [sp, #-16]!
    100e253c:	910003fd 	mov	x29, sp
    100e2540:	d63f0020 	blr	x1
    100e2544:	11000401 	add	w1, w0, #0x1
    100e2548:	71000c3f 	cmp	w1, #0x3
    100e254c:	540000e9 	b.ls	100e2568 <psci_spd_migrate_info+0x44>  // b.plast
    100e2550:	b0000020 	adrp	x0, 100e7000 <__TEXT_END__>
    100e2554:	911a6000 	add	x0, x0, #0x698
    100e2558:	52806d01 	mov	w1, #0x368                 	// #872
    100e255c:	94000f24 	bl	100e61ec <__assert>
    100e2560:	12800000 	mov	w0, #0xffffffff            	// #-1
    100e2564:	d65f03c0 	ret
    100e2568:	a8c17bfd 	ldp	x29, x30, [sp], #16
    100e256c:	d65f03c0 	ret

00000000100e2570 <psci_print_power_domain_map>:
    100e2570:	a9bb7bfd 	stp	x29, x30, [sp, #-80]!
    100e2574:	b0000020 	adrp	x0, 100e7000 <__TEXT_END__>
    100e2578:	9117a000 	add	x0, x0, #0x5e8
    100e257c:	910003fd 	mov	x29, sp
    100e2580:	a90153f3 	stp	x19, x20, [sp, #16]
    100e2584:	a9025bf5 	stp	x21, x22, [sp, #32]
    100e2588:	a90363f7 	stp	x23, x24, [sp, #48]
    100e258c:	f90023f9 	str	x25, [sp, #64]
    100e2590:	94000648 	bl	100e3eb0 <tf_log>
    100e2594:	b0000081 	adrp	x1, 100f3000 <psci_locks>
    100e2598:	91002021 	add	x1, x1, #0x8
    100e259c:	39403024 	ldrb	w4, [x1, #12]
    100e25a0:	34000324 	cbz	w4, 100e2604 <psci_print_power_domain_map+0x94>
    100e25a4:	7100049f 	cmp	w4, #0x1
    100e25a8:	1a9f97e0 	cset	w0, hi  // hi = pmore
    100e25ac:	11000400 	add	w0, w0, #0x1
    100e25b0:	b0000035 	adrp	x21, 100e7000 <__TEXT_END__>
    100e25b4:	911a02b5 	add	x21, x21, #0x680
    100e25b8:	b9400822 	ldr	w2, [x1, #8]
    100e25bc:	f0000053 	adrp	x19, 100ed000 <__STACKS_START__+0x3f80>
    100e25c0:	913b0273 	add	x19, x19, #0xec0
    100e25c4:	39403421 	ldrb	w1, [x1, #13]
    100e25c8:	f8607aa3 	ldr	x3, [x21, x0, lsl #3]
    100e25cc:	b0000036 	adrp	x22, 100e7000 <__TEXT_END__>
    100e25d0:	9118f6d6 	add	x22, x22, #0x63d
    100e25d4:	b0000020 	adrp	x0, 100e7000 <__TEXT_END__>
    100e25d8:	91180400 	add	x0, x0, #0x601
    100e25dc:	52800014 	mov	w20, #0x0                   	// #0
    100e25e0:	94000634 	bl	100e3eb0 <tf_log>
    100e25e4:	7100129f 	cmp	w20, #0x4
    100e25e8:	54000121 	b.ne	100e260c <psci_print_power_domain_map+0x9c>  // b.any
    100e25ec:	a94153f3 	ldp	x19, x20, [sp, #16]
    100e25f0:	a9425bf5 	ldp	x21, x22, [sp, #32]
    100e25f4:	a94363f7 	ldp	x23, x24, [sp, #48]
    100e25f8:	f94023f9 	ldr	x25, [sp, #64]
    100e25fc:	a8c57bfd 	ldp	x29, x30, [sp], #80
    100e2600:	d65f03c0 	ret
    100e2604:	d2800000 	mov	x0, #0x0                   	// #0
    100e2608:	17ffffea 	b	100e25b0 <psci_print_power_domain_map+0x40>
    100e260c:	2a1403e0 	mov	w0, w20
    100e2610:	94000c54 	bl	100e5760 <_cpu_data_by_index>
    100e2614:	39418000 	ldrb	w0, [x0, #96]
    100e2618:	34000240 	cbz	w0, 100e2660 <psci_print_power_domain_map+0xf0>
    100e261c:	7100041f 	cmp	w0, #0x1
    100e2620:	1a9f97e0 	cset	w0, hi  // hi = pmore
    100e2624:	11000400 	add	w0, w0, #0x1
    100e2628:	b9400a78 	ldr	w24, [x19, #8]
    100e262c:	91004273 	add	x19, x19, #0x10
    100e2630:	f85f0277 	ldur	x23, [x19, #-16]
    100e2634:	f8607ab9 	ldr	x25, [x21, x0, lsl #3]
    100e2638:	2a1403e0 	mov	w0, w20
    100e263c:	94000c49 	bl	100e5760 <_cpu_data_by_index>
    100e2640:	39418004 	ldrb	w4, [x0, #96]
    100e2644:	aa1903e3 	mov	x3, x25
    100e2648:	2a1803e2 	mov	w2, w24
    100e264c:	aa1703e1 	mov	x1, x23
    100e2650:	aa1603e0 	mov	x0, x22
    100e2654:	11000694 	add	w20, w20, #0x1
    100e2658:	94000616 	bl	100e3eb0 <tf_log>
    100e265c:	17ffffe2 	b	100e25e4 <psci_print_power_domain_map+0x74>
    100e2660:	d2800000 	mov	x0, #0x0                   	// #0
    100e2664:	17fffff1 	b	100e2628 <psci_print_power_domain_map+0xb8>

00000000100e2668 <psci_do_pwrdown_sequence>:
    100e2668:	14000ca8 	b	100e5908 <psci_do_pwrdown_cache_maintenance>

00000000100e266c <psci_cpu_on>:
    100e266c:	a9b77bfd 	stp	x29, x30, [sp, #-144]!
    100e2670:	910003fd 	mov	x29, sp
    100e2674:	a90153f3 	stp	x19, x20, [sp, #16]
    100e2678:	aa0003f3 	mov	x19, x0
    100e267c:	aa0103f4 	mov	x20, x1
    100e2680:	f90013f5 	str	x21, [sp, #32]
    100e2684:	aa0203f5 	mov	x21, x2
    100e2688:	97ffff1f 	bl	100e2304 <psci_validate_mpidr>
    100e268c:	350001a0 	cbnz	w0, 100e26c0 <psci_cpu_on+0x54>
    100e2690:	aa1503e2 	mov	x2, x21
    100e2694:	aa1403e1 	mov	x1, x20
    100e2698:	9100e3e0 	add	x0, sp, #0x38
    100e269c:	97ffff22 	bl	100e2324 <psci_validate_entry_point>
    100e26a0:	35000080 	cbnz	w0, 100e26b0 <psci_cpu_on+0x44>
    100e26a4:	9100e3e1 	add	x1, sp, #0x38
    100e26a8:	aa1303e0 	mov	x0, x19
    100e26ac:	97fffc74 	bl	100e187c <psci_cpu_on_start>
    100e26b0:	a94153f3 	ldp	x19, x20, [sp, #16]
    100e26b4:	f94013f5 	ldr	x21, [sp, #32]
    100e26b8:	a8c97bfd 	ldp	x29, x30, [sp], #144
    100e26bc:	d65f03c0 	ret
    100e26c0:	12800020 	mov	w0, #0xfffffffe            	// #-2
    100e26c4:	17fffffb 	b	100e26b0 <psci_cpu_on+0x44>

00000000100e26c8 <psci_cpu_suspend>:
    100e26c8:	a9b67bfd 	stp	x29, x30, [sp, #-160]!
    100e26cc:	910003fd 	mov	x29, sp
    100e26d0:	a90153f3 	stp	x19, x20, [sp, #16]
    100e26d4:	2a0003f3 	mov	w19, w0
    100e26d8:	a9025bf5 	stp	x21, x22, [sp, #32]
    100e26dc:	aa0103f6 	mov	x22, x1
    100e26e0:	910103e1 	add	x1, sp, #0x40
    100e26e4:	f9001bf7 	str	x23, [sp, #48]
    100e26e8:	aa0203f7 	mov	x23, x2
    100e26ec:	790083ff 	strh	wzr, [sp, #64]
    100e26f0:	97fffdb9 	bl	100e1dd4 <psci_validate_power_state>
    100e26f4:	340001c0 	cbz	w0, 100e272c <psci_cpu_suspend+0x64>
    100e26f8:	3100081f 	cmn	w0, #0x2
    100e26fc:	54000101 	b.ne	100e271c <psci_cpu_suspend+0x54>  // b.any
    100e2700:	12800034 	mov	w20, #0xfffffffe            	// #-2
    100e2704:	2a1403e0 	mov	w0, w20
    100e2708:	a94153f3 	ldp	x19, x20, [sp, #16]
    100e270c:	a9425bf5 	ldp	x21, x22, [sp, #32]
    100e2710:	f9401bf7 	ldr	x23, [sp, #48]
    100e2714:	a8ca7bfd 	ldp	x29, x30, [sp], #160
    100e2718:	d65f03c0 	ret
    100e271c:	52800861 	mov	w1, #0x43                  	// #67
    100e2720:	b0000020 	adrp	x0, 100e7000 <__TEXT_END__>
    100e2724:	911c7400 	add	x0, x0, #0x71d
    100e2728:	94000eb1 	bl	100e61ec <__assert>
    100e272c:	d3504273 	ubfx	x19, x19, #16, #1
    100e2730:	910103e0 	add	x0, sp, #0x40
    100e2734:	2a1303e1 	mov	w1, w19
    100e2738:	97fffe82 	bl	100e2140 <psci_validate_suspend_req>
    100e273c:	2a0003f4 	mov	w20, w0
    100e2740:	34000060 	cbz	w0, 100e274c <psci_cpu_suspend+0x84>
    100e2744:	528009c1 	mov	w1, #0x4e                  	// #78
    100e2748:	17fffff6 	b	100e2720 <psci_cpu_suspend+0x58>
    100e274c:	910103e0 	add	x0, sp, #0x40
    100e2750:	97fffeab 	bl	100e21fc <psci_find_target_suspend_lvl>
    100e2754:	2a0003f5 	mov	w21, w0
    100e2758:	7100081f 	cmp	w0, #0x2
    100e275c:	54000121 	b.ne	100e2780 <psci_cpu_suspend+0xb8>  // b.any
    100e2760:	b0000020 	adrp	x0, 100e7000 <__TEXT_END__>
    100e2764:	911cc800 	add	x0, x0, #0x732
    100e2768:	940005d2 	bl	100e3eb0 <tf_log>
    100e276c:	b0000020 	adrp	x0, 100e7000 <__TEXT_END__>
    100e2770:	911c3000 	add	x0, x0, #0x70c
    100e2774:	940006bf 	bl	100e4270 <backtrace>
    100e2778:	9400065c 	bl	100e40e8 <console_flush>
    100e277c:	94000d4a 	bl	100e5ca4 <do_panic>
    100e2780:	2a000260 	orr	w0, w19, w0
    100e2784:	35000180 	cbnz	w0, 100e27b4 <psci_cpu_suspend+0xec>
    100e2788:	f0000040 	adrp	x0, 100ed000 <__STACKS_START__+0x3f80>
    100e278c:	f9478000 	ldr	x0, [x0, #3840]
    100e2790:	f9400001 	ldr	x1, [x0]
    100e2794:	b4fffb61 	cbz	x1, 100e2700 <psci_cpu_suspend+0x38>
    100e2798:	394103e0 	ldrb	w0, [sp, #64]
    100e279c:	d53ed042 	mrs	x2, tpidr_el3
    100e27a0:	39018040 	strb	w0, [x2, #96]
    100e27a4:	d63f0020 	blr	x1
    100e27a8:	d53ed040 	mrs	x0, tpidr_el3
    100e27ac:	3901801f 	strb	wzr, [x0, #96]
    100e27b0:	17ffffd5 	b	100e2704 <psci_cpu_suspend+0x3c>
    100e27b4:	350000f3 	cbnz	w19, 100e27d0 <psci_cpu_suspend+0x108>
    100e27b8:	2a1303e3 	mov	w3, w19
    100e27bc:	910103e2 	add	x2, sp, #0x40
    100e27c0:	2a1503e1 	mov	w1, w21
    100e27c4:	910123e0 	add	x0, sp, #0x48
    100e27c8:	97fffce0 	bl	100e1b48 <psci_cpu_suspend_start>
    100e27cc:	17ffffce 	b	100e2704 <psci_cpu_suspend+0x3c>
    100e27d0:	aa1703e2 	mov	x2, x23
    100e27d4:	aa1603e1 	mov	x1, x22
    100e27d8:	910123e0 	add	x0, sp, #0x48
    100e27dc:	97fffed2 	bl	100e2324 <psci_validate_entry_point>
    100e27e0:	34fffec0 	cbz	w0, 100e27b8 <psci_cpu_suspend+0xf0>
    100e27e4:	2a0003f4 	mov	w20, w0
    100e27e8:	17ffffc7 	b	100e2704 <psci_cpu_suspend+0x3c>

00000000100e27ec <psci_system_suspend>:
    100e27ec:	a9b87bfd 	stp	x29, x30, [sp, #-128]!
    100e27f0:	910003fd 	mov	x29, sp
    100e27f4:	a90153f3 	stp	x19, x20, [sp, #16]
    100e27f8:	aa0003f3 	mov	x19, x0
    100e27fc:	aa0103f4 	mov	x20, x1
    100e2800:	97fffd90 	bl	100e1e40 <psci_is_last_on_cpu>
    100e2804:	350000c0 	cbnz	w0, 100e281c <psci_system_suspend+0x30>
    100e2808:	12800053 	mov	w19, #0xfffffffd            	// #-3
    100e280c:	2a1303e0 	mov	w0, w19
    100e2810:	a94153f3 	ldp	x19, x20, [sp, #16]
    100e2814:	a8c87bfd 	ldp	x29, x30, [sp], #128
    100e2818:	d65f03c0 	ret
    100e281c:	aa1303e1 	mov	x1, x19
    100e2820:	aa1403e2 	mov	x2, x20
    100e2824:	9100a3e0 	add	x0, sp, #0x28
    100e2828:	97fffebf 	bl	100e2324 <psci_validate_entry_point>
    100e282c:	2a0003f3 	mov	w19, w0
    100e2830:	35fffee0 	cbnz	w0, 100e280c <psci_system_suspend+0x20>
    100e2834:	910083e0 	add	x0, sp, #0x20
    100e2838:	97fffd77 	bl	100e1e14 <psci_query_sys_suspend_pwrstate>
    100e283c:	910083e0 	add	x0, sp, #0x20
    100e2840:	97fffe6f 	bl	100e21fc <psci_find_target_suspend_lvl>
    100e2844:	34fffe20 	cbz	w0, 100e2808 <psci_system_suspend+0x1c>
    100e2848:	52800021 	mov	w1, #0x1                   	// #1
    100e284c:	910083e0 	add	x0, sp, #0x20
    100e2850:	97fffe3c 	bl	100e2140 <psci_validate_suspend_req>
    100e2854:	2a0003f3 	mov	w19, w0
    100e2858:	340000a0 	cbz	w0, 100e286c <psci_system_suspend+0x80>
    100e285c:	528016a1 	mov	w1, #0xb5                  	// #181
    100e2860:	b0000020 	adrp	x0, 100e7000 <__TEXT_END__>
    100e2864:	911c7400 	add	x0, x0, #0x71d
    100e2868:	94000e61 	bl	100e61ec <__assert>
    100e286c:	394087e0 	ldrb	w0, [sp, #33]
    100e2870:	7100081f 	cmp	w0, #0x2
    100e2874:	54000060 	b.eq	100e2880 <psci_system_suspend+0x94>  // b.none
    100e2878:	528016e1 	mov	w1, #0xb7                  	// #183
    100e287c:	17fffff9 	b	100e2860 <psci_system_suspend+0x74>
    100e2880:	52800023 	mov	w3, #0x1                   	// #1
    100e2884:	910083e2 	add	x2, sp, #0x20
    100e2888:	2a0303e1 	mov	w1, w3
    100e288c:	9100a3e0 	add	x0, sp, #0x28
    100e2890:	97fffcae 	bl	100e1b48 <psci_cpu_suspend_start>
    100e2894:	17ffffde 	b	100e280c <psci_system_suspend+0x20>

00000000100e2898 <psci_cpu_off>:
    100e2898:	a9bf7bfd 	stp	x29, x30, [sp, #-16]!
    100e289c:	52800020 	mov	w0, #0x1                   	// #1
    100e28a0:	910003fd 	mov	x29, sp
    100e28a4:	97fffbb2 	bl	100e176c <psci_do_cpu_off>
    100e28a8:	31000c1f 	cmn	w0, #0x3
    100e28ac:	540000a0 	b.eq	100e28c0 <psci_cpu_off+0x28>  // b.none
    100e28b0:	b0000020 	adrp	x0, 100e7000 <__TEXT_END__>
    100e28b4:	911c7400 	add	x0, x0, #0x71d
    100e28b8:	52801ac1 	mov	w1, #0xd6                  	// #214
    100e28bc:	94000e4c 	bl	100e61ec <__assert>
    100e28c0:	a8c17bfd 	ldp	x29, x30, [sp], #16
    100e28c4:	d65f03c0 	ret

00000000100e28c8 <psci_affinity_info>:
    100e28c8:	340000e1 	cbz	w1, 100e28e4 <psci_affinity_info+0x1c>
    100e28cc:	12800020 	mov	w0, #0xfffffffe            	// #-2
    100e28d0:	d65f03c0 	ret
    100e28d4:	12800020 	mov	w0, #0xfffffffe            	// #-2
    100e28d8:	f9400bf3 	ldr	x19, [sp, #16]
    100e28dc:	a8c27bfd 	ldp	x29, x30, [sp], #32
    100e28e0:	d65f03c0 	ret
    100e28e4:	a9be7bfd 	stp	x29, x30, [sp, #-32]!
    100e28e8:	910003fd 	mov	x29, sp
    100e28ec:	f9000bf3 	str	x19, [sp, #16]
    100e28f0:	97fff742 	bl	100e05f8 <plat_core_pos_by_mpidr>
    100e28f4:	2a0003f3 	mov	w19, w0
    100e28f8:	3100041f 	cmn	w0, #0x1
    100e28fc:	54fffec0 	b.eq	100e28d4 <psci_affinity_info+0xc>  // b.none
    100e2900:	94000b98 	bl	100e5760 <_cpu_data_by_index>
    100e2904:	91016000 	add	x0, x0, #0x58
    100e2908:	d2800081 	mov	x1, #0x4                   	// #4
    100e290c:	94000cf7 	bl	100e5ce8 <flush_dcache_range>
    100e2910:	2a1303e0 	mov	w0, w19
    100e2914:	94000b93 	bl	100e5760 <_cpu_data_by_index>
    100e2918:	b9405800 	ldr	w0, [x0, #88]
    100e291c:	17ffffef 	b	100e28d8 <psci_affinity_info+0x10>

00000000100e2920 <psci_migrate>:
    100e2920:	a9bd7bfd 	stp	x29, x30, [sp, #-48]!
    100e2924:	910003fd 	mov	x29, sp
    100e2928:	f9000bf3 	str	x19, [sp, #16]
    100e292c:	aa0003f3 	mov	x19, x0
    100e2930:	9100a3e0 	add	x0, sp, #0x28
    100e2934:	97fffefc 	bl	100e2524 <psci_spd_migrate_info>
    100e2938:	340000e0 	cbz	w0, 100e2954 <psci_migrate+0x34>
    100e293c:	7100041f 	cmp	w0, #0x1
    100e2940:	12800040 	mov	w0, #0xfffffffd            	// #-3
    100e2944:	5a9f0000 	csinv	w0, w0, wzr, eq  // eq = none
    100e2948:	f9400bf3 	ldr	x19, [sp, #16]
    100e294c:	a8c37bfd 	ldp	x29, x30, [sp], #48
    100e2950:	d65f03c0 	ret
    100e2954:	d53800a0 	mrs	x0, mpidr_el1
    100e2958:	f94017e1 	ldr	x1, [sp, #40]
    100e295c:	eb00003f 	cmp	x1, x0
    100e2960:	540002a1 	b.ne	100e29b4 <psci_migrate+0x94>  // b.any
    100e2964:	aa1303e0 	mov	x0, x19
    100e2968:	97fffe67 	bl	100e2304 <psci_validate_mpidr>
    100e296c:	35000280 	cbnz	w0, 100e29bc <psci_migrate+0x9c>
    100e2970:	f0000040 	adrp	x0, 100ed000 <__STACKS_START__+0x3f80>
    100e2974:	f9478400 	ldr	x0, [x0, #3848]
    100e2978:	b4000060 	cbz	x0, 100e2984 <psci_migrate+0x64>
    100e297c:	f9401402 	ldr	x2, [x0, #40]
    100e2980:	b50000a2 	cbnz	x2, 100e2994 <psci_migrate+0x74>
    100e2984:	52802281 	mov	w1, #0x114                 	// #276
    100e2988:	b0000020 	adrp	x0, 100e7000 <__TEXT_END__>
    100e298c:	911c7400 	add	x0, x0, #0x71d
    100e2990:	94000e17 	bl	100e61ec <__assert>
    100e2994:	d53800a0 	mrs	x0, mpidr_el1
    100e2998:	aa1303e1 	mov	x1, x19
    100e299c:	d63f0040 	blr	x2
    100e29a0:	7100001f 	cmp	w0, #0x0
    100e29a4:	3a461804 	ccmn	w0, #0x6, #0x4, ne  // ne = any
    100e29a8:	54fffd00 	b.eq	100e2948 <psci_migrate+0x28>  // b.none
    100e29ac:	528022e1 	mov	w1, #0x117                 	// #279
    100e29b0:	17fffff6 	b	100e2988 <psci_migrate+0x68>
    100e29b4:	128000c0 	mov	w0, #0xfffffff9            	// #-7
    100e29b8:	17ffffe4 	b	100e2948 <psci_migrate+0x28>
    100e29bc:	12800020 	mov	w0, #0xfffffffe            	// #-2
    100e29c0:	17ffffe2 	b	100e2948 <psci_migrate+0x28>

00000000100e29c4 <psci_migrate_info_type>:
    100e29c4:	a9be7bfd 	stp	x29, x30, [sp, #-32]!
    100e29c8:	910003fd 	mov	x29, sp
    100e29cc:	910063e0 	add	x0, sp, #0x18
    100e29d0:	97fffed5 	bl	100e2524 <psci_spd_migrate_info>
    100e29d4:	a8c27bfd 	ldp	x29, x30, [sp], #32
    100e29d8:	d65f03c0 	ret

00000000100e29dc <psci_migrate_info_up_cpu>:
    100e29dc:	a9be7bfd 	stp	x29, x30, [sp, #-32]!
    100e29e0:	910003fd 	mov	x29, sp
    100e29e4:	910063e0 	add	x0, sp, #0x18
    100e29e8:	97fffecf 	bl	100e2524 <psci_spd_migrate_info>
    100e29ec:	f9400fe1 	ldr	x1, [sp, #24]
    100e29f0:	7100041f 	cmp	w0, #0x1
    100e29f4:	a8c27bfd 	ldp	x29, x30, [sp], #32
    100e29f8:	92800020 	mov	x0, #0xfffffffffffffffe    	// #-2
    100e29fc:	9a809020 	csel	x0, x1, x0, ls  // ls = plast
    100e2a00:	d65f03c0 	ret

00000000100e2a04 <psci_node_hw_state>:
    100e2a04:	a9be7bfd 	stp	x29, x30, [sp, #-32]!
    100e2a08:	910003fd 	mov	x29, sp
    100e2a0c:	a90153f3 	stp	x19, x20, [sp, #16]
    100e2a10:	aa0003f4 	mov	x20, x0
    100e2a14:	2a0103f3 	mov	w19, w1
    100e2a18:	97fffe3b 	bl	100e2304 <psci_validate_mpidr>
    100e2a1c:	350002a0 	cbnz	w0, 100e2a70 <psci_node_hw_state+0x6c>
    100e2a20:	7100067f 	cmp	w19, #0x1
    100e2a24:	54000268 	b.hi	100e2a70 <psci_node_hw_state+0x6c>  // b.pmore
    100e2a28:	f0000040 	adrp	x0, 100ed000 <__STACKS_START__+0x3f80>
    100e2a2c:	f9478000 	ldr	x0, [x0, #3840]
    100e2a30:	f9403c02 	ldr	x2, [x0, #120]
    100e2a34:	b50000a2 	cbnz	x2, 100e2a48 <psci_node_hw_state+0x44>
    100e2a38:	528028a1 	mov	w1, #0x145                 	// #325
    100e2a3c:	b0000020 	adrp	x0, 100e7000 <__TEXT_END__>
    100e2a40:	911c7400 	add	x0, x0, #0x71d
    100e2a44:	94000dea 	bl	100e61ec <__assert>
    100e2a48:	2a1303e1 	mov	w1, w19
    100e2a4c:	aa1403e0 	mov	x0, x20
    100e2a50:	d63f0040 	blr	x2
    100e2a54:	11000401 	add	w1, w0, #0x1
    100e2a58:	71000c3f 	cmp	w1, #0x3
    100e2a5c:	540000c9 	b.ls	100e2a74 <psci_node_hw_state+0x70>  // b.plast
    100e2a60:	3100081f 	cmn	w0, #0x2
    100e2a64:	54000060 	b.eq	100e2a70 <psci_node_hw_state+0x6c>  // b.none
    100e2a68:	52802921 	mov	w1, #0x149                 	// #329
    100e2a6c:	17fffff4 	b	100e2a3c <psci_node_hw_state+0x38>
    100e2a70:	12800020 	mov	w0, #0xfffffffe            	// #-2
    100e2a74:	a94153f3 	ldp	x19, x20, [sp, #16]
    100e2a78:	a8c27bfd 	ldp	x29, x30, [sp], #32
    100e2a7c:	d65f03c0 	ret

00000000100e2a80 <psci_features>:
    100e2a80:	f0000041 	adrp	x1, 100ed000 <__STACKS_START__+0x3f80>
    100e2a84:	b94f1022 	ldr	w2, [x1, #3856]
    100e2a88:	52b00001 	mov	w1, #0x80000000            	// #-2147483648
    100e2a8c:	6b01001f 	cmp	w0, w1
    100e2a90:	54000240 	b.eq	100e2ad8 <psci_features+0x58>  // b.none
    100e2a94:	36f00080 	tbz	w0, #30, 100e2aa4 <psci_features+0x24>
    100e2a98:	528c1741 	mov	w1, #0x60ba                	// #24762
    100e2a9c:	72a002e1 	movk	w1, #0x17, lsl #16
    100e2aa0:	0a010042 	and	w2, w2, w1
    100e2aa4:	d3587401 	ubfx	x1, x0, #24, #6
    100e2aa8:	7100103f 	cmp	w1, #0x4
    100e2aac:	540001a1 	b.ne	100e2ae0 <psci_features+0x60>  // b.any
    100e2ab0:	d3505c04 	ubfx	x4, x0, #16, #8
    100e2ab4:	531f7c01 	lsr	w1, w0, #31
    100e2ab8:	34000141 	cbz	w1, 100e2ae0 <psci_features+0x60>
    100e2abc:	121b2803 	and	w3, w0, #0xffe0
    100e2ac0:	2a040063 	orr	w3, w3, w4
    100e2ac4:	350000e3 	cbnz	w3, 100e2ae0 <psci_features+0x60>
    100e2ac8:	1ac02020 	lsl	w0, w1, w0
    100e2acc:	6a02001f 	tst	w0, w2
    100e2ad0:	5a9f13e0 	csetm	w0, eq  // eq = none
    100e2ad4:	d65f03c0 	ret
    100e2ad8:	52800000 	mov	w0, #0x0                   	// #0
    100e2adc:	17fffffe 	b	100e2ad4 <psci_features+0x54>
    100e2ae0:	12800000 	mov	w0, #0xffffffff            	// #-1
    100e2ae4:	17fffffc 	b	100e2ad4 <psci_features+0x54>

00000000100e2ae8 <psci_smc_handler>:
    100e2ae8:	36000aa7 	tbz	w7, #0, 100e2c3c <psci_smc_handler+0x154>
    100e2aec:	2a0003e5 	mov	w5, w0
    100e2af0:	aa0103e4 	mov	x4, x1
    100e2af4:	aa0203e1 	mov	x1, x2
    100e2af8:	f0000042 	adrp	x2, 100ed000 <__STACKS_START__+0x3f80>
    100e2afc:	b94f1042 	ldr	w2, [x2, #3856]
    100e2b00:	52800020 	mov	w0, #0x1                   	// #1
    100e2b04:	1ac52000 	lsl	w0, w0, w5
    100e2b08:	6a02001f 	tst	w0, w2
    100e2b0c:	54000980 	b.eq	100e2c3c <psci_smc_handler+0x154>  // b.none
    100e2b10:	a9bf7bfd 	stp	x29, x30, [sp, #-16]!
    100e2b14:	aa0403e0 	mov	x0, x4
    100e2b18:	aa0303e2 	mov	x2, x3
    100e2b1c:	910003fd 	mov	x29, sp
    100e2b20:	2a0503e4 	mov	w4, w5
    100e2b24:	37f00784 	tbnz	w4, #30, 100e2c14 <psci_smc_handler+0x12c>
    100e2b28:	52af8003 	mov	w3, #0x7c000000            	// #2080374784
    100e2b2c:	0b0300a3 	add	w3, w5, w3
    100e2b30:	7100507f 	cmp	w3, #0x14
    100e2b34:	54000628 	b.hi	100e2bf8 <psci_smc_handler+0x110>  // b.pmore
    100e2b38:	b0000025 	adrp	x5, 100e7000 <__TEXT_END__>
    100e2b3c:	911b80a5 	add	x5, x5, #0x6e0
    100e2b40:	386348a3 	ldrb	w3, [x5, w3, uxtw]
    100e2b44:	10000065 	adr	x5, 100e2b50 <psci_smc_handler+0x68>
    100e2b48:	8b2388a3 	add	x3, x5, w3, sxtb #2
    100e2b4c:	d61f0060 	br	x3
    100e2b50:	97ffff52 	bl	100e2898 <psci_cpu_off>
    100e2b54:	93407c00 	sxtw	x0, w0
    100e2b58:	1400002d 	b	100e2c0c <psci_smc_handler+0x124>
    100e2b5c:	2a0203e2 	mov	w2, w2
    100e2b60:	2a0103e1 	mov	w1, w1
    100e2b64:	97fffed9 	bl	100e26c8 <psci_cpu_suspend>
    100e2b68:	17fffffb 	b	100e2b54 <psci_smc_handler+0x6c>
    100e2b6c:	2a0203e2 	mov	w2, w2
    100e2b70:	2a0103e1 	mov	w1, w1
    100e2b74:	2a0003e0 	mov	w0, w0
    100e2b78:	97fffebd 	bl	100e266c <psci_cpu_on>
    100e2b7c:	17fffff6 	b	100e2b54 <psci_smc_handler+0x6c>
    100e2b80:	2a0003e0 	mov	w0, w0
    100e2b84:	97ffff51 	bl	100e28c8 <psci_affinity_info>
    100e2b88:	17fffff3 	b	100e2b54 <psci_smc_handler+0x6c>
    100e2b8c:	2a0003e0 	mov	w0, w0
    100e2b90:	97ffff64 	bl	100e2920 <psci_migrate>
    100e2b94:	17fffff0 	b	100e2b54 <psci_smc_handler+0x6c>
    100e2b98:	97ffff8b 	bl	100e29c4 <psci_migrate_info_type>
    100e2b9c:	17ffffee 	b	100e2b54 <psci_smc_handler+0x6c>
    100e2ba0:	a8c17bfd 	ldp	x29, x30, [sp], #16
    100e2ba4:	17ffff8e 	b	100e29dc <psci_migrate_info_up_cpu>
    100e2ba8:	2a0003e0 	mov	w0, w0
    100e2bac:	97ffff96 	bl	100e2a04 <psci_node_hw_state>
    100e2bb0:	17ffffe9 	b	100e2b54 <psci_smc_handler+0x6c>
    100e2bb4:	2a0103e1 	mov	w1, w1
    100e2bb8:	2a0003e0 	mov	w0, w0
    100e2bbc:	97ffff0c 	bl	100e27ec <psci_system_suspend>
    100e2bc0:	17ffffe5 	b	100e2b54 <psci_smc_handler+0x6c>
    100e2bc4:	94000108 	bl	100e2fe4 <psci_system_off>
    100e2bc8:	9400011e 	bl	100e3040 <psci_system_reset>
    100e2bcc:	97ffffad 	bl	100e2a80 <psci_features>
    100e2bd0:	17ffffe1 	b	100e2b54 <psci_smc_handler+0x6c>
    100e2bd4:	a8c17bfd 	ldp	x29, x30, [sp], #16
    100e2bd8:	14000160 	b	100e3158 <psci_mem_protect>
    100e2bdc:	2a0103e1 	mov	w1, w1
    100e2be0:	2a0003e0 	mov	w0, w0
    100e2be4:	a8c17bfd 	ldp	x29, x30, [sp], #16
    100e2be8:	1400017c 	b	100e31d8 <psci_mem_chk_range>
    100e2bec:	2a0103e1 	mov	w1, w1
    100e2bf0:	a8c17bfd 	ldp	x29, x30, [sp], #16
    100e2bf4:	1400012a 	b	100e309c <psci_system_reset2>
    100e2bf8:	2a0403e1 	mov	w1, w4
    100e2bfc:	b0000020 	adrp	x0, 100e7000 <__TEXT_END__>
    100e2c00:	911d9400 	add	x0, x0, #0x765
    100e2c04:	940004ab 	bl	100e3eb0 <tf_log>
    100e2c08:	92800000 	mov	x0, #0xffffffffffffffff    	// #-1
    100e2c0c:	a8c17bfd 	ldp	x29, x30, [sp], #16
    100e2c10:	d65f03c0 	ret
    100e2c14:	12b88003 	mov	w3, #0x3bffffff            	// #1006632959
    100e2c18:	0b0300a3 	add	w3, w5, w3
    100e2c1c:	71004c7f 	cmp	w3, #0x13
    100e2c20:	54fffec8 	b.hi	100e2bf8 <psci_smc_handler+0x110>  // b.pmore
    100e2c24:	b0000025 	adrp	x5, 100e7000 <__TEXT_END__>
    100e2c28:	911be0a5 	add	x5, x5, #0x6f8
    100e2c2c:	386348a3 	ldrb	w3, [x5, w3, uxtw]
    100e2c30:	10000065 	adr	x5, 100e2c3c <psci_smc_handler+0x154>
    100e2c34:	8b2388a3 	add	x3, x5, w3, sxtb #2
    100e2c38:	d61f0060 	br	x3
    100e2c3c:	92800000 	mov	x0, #0xffffffffffffffff    	// #-1
    100e2c40:	d65f03c0 	ret
    100e2c44:	320083e0 	mov	w0, #0x10001               	// #65537
    100e2c48:	17fffff1 	b	100e2c0c <psci_smc_handler+0x124>

00000000100e2c4c <psci_arch_setup>:
    100e2c4c:	a9bf7bfd 	stp	x29, x30, [sp, #-16]!
    100e2c50:	910003fd 	mov	x29, sp
    100e2c54:	94000618 	bl	100e44b4 <plat_get_syscnt_freq2>
    100e2c58:	2a0003e0 	mov	w0, w0
    100e2c5c:	d51be000 	msr	cntfrq_el0, x0
    100e2c60:	94000ae0 	bl	100e57e0 <init_cpu_ops>
    100e2c64:	a8c17bfd 	ldp	x29, x30, [sp], #16
    100e2c68:	14000b10 	b	100e58a8 <print_errata_status>

00000000100e2c6c <psci_setup>:
    100e2c6c:	a9b77bfd 	stp	x29, x30, [sp, #-144]!
    100e2c70:	910003fd 	mov	x29, sp
    100e2c74:	a90153f3 	stp	x19, x20, [sp, #16]
    100e2c78:	a9025bf5 	stp	x21, x22, [sp, #32]
    100e2c7c:	a90363f7 	stp	x23, x24, [sp, #48]
    100e2c80:	a9046bf9 	stp	x25, x26, [sp, #64]
    100e2c84:	a90573fb 	stp	x27, x28, [sp, #80]
    100e2c88:	b4000160 	cbz	x0, 100e2cb4 <psci_setup+0x48>
    100e2c8c:	aa0003f5 	mov	x21, x0
    100e2c90:	79400000 	ldrh	w0, [x0]
    100e2c94:	7104181f 	cmp	w0, #0x106
    100e2c98:	540000e1 	b.ne	100e2cb4 <psci_setup+0x48>  // b.any
    100e2c9c:	f94002a0 	ldr	x0, [x21]
    100e2ca0:	9270bc00 	and	x0, x0, #0xffffffffffff0000
    100e2ca4:	f144001f 	cmp	x0, #0x100, lsl #12
    100e2ca8:	54000061 	b.ne	100e2cb4 <psci_setup+0x48>  // b.any
    100e2cac:	f94006a0 	ldr	x0, [x21, #8]
    100e2cb0:	b50000a0 	cbnz	x0, 100e2cc4 <psci_setup+0x58>
    100e2cb4:	52801821 	mov	w1, #0xc1                  	// #193
    100e2cb8:	b0000020 	adrp	x0, 100e7000 <__TEXT_END__>
    100e2cbc:	911e1400 	add	x0, x0, #0x785
    100e2cc0:	94000d4b 	bl	100e61ec <__assert>
    100e2cc4:	97ffffe2 	bl	100e2c4c <psci_arch_setup>
    100e2cc8:	f0000056 	adrp	x22, 100ed000 <__STACKS_START__+0x3f80>
    100e2ccc:	913b02d6 	add	x22, x22, #0xec0
    100e2cd0:	97fff647 	bl	100e05ec <plat_get_power_domain_tree_desc>
    100e2cd4:	52800023 	mov	w3, #0x1                   	// #1
    100e2cd8:	f0000058 	adrp	x24, 100ed000 <__STACKS_START__+0x3f80>
    100e2cdc:	91064318 	add	x24, x24, #0x190
    100e2ce0:	aa0003e7 	mov	x7, x0
    100e2ce4:	2a0303e4 	mov	w4, w3
    100e2ce8:	52800045 	mov	w5, #0x2                   	// #2
    100e2cec:	5280001c 	mov	w28, #0x0                   	// #0
    100e2cf0:	52800013 	mov	w19, #0x0                   	// #0
    100e2cf4:	93407f94 	sxtw	x20, w28
    100e2cf8:	5280001b 	mov	w27, #0x0                   	// #0
    100e2cfc:	5280001a 	mov	w26, #0x0                   	// #0
    100e2d00:	1400000e 	b	100e2d38 <psci_setup+0xcc>
    100e2d04:	7100069f 	cmp	w20, #0x1
    100e2d08:	5400006d 	b.le	100e2d14 <psci_setup+0xa8>
    100e2d0c:	52801181 	mov	w1, #0x8c                  	// #140
    100e2d10:	17ffffea 	b	100e2cb8 <psci_setup+0x4c>
    100e2d14:	387468e6 	ldrb	w6, [x7, x20]
    100e2d18:	2a1b03f3 	mov	w19, w27
    100e2d1c:	510006f7 	sub	w23, w23, #0x1
    100e2d20:	0b1b00c0 	add	w0, w6, w27
    100e2d24:	6b00027f 	cmp	w19, w0
    100e2d28:	54000703 	b.cc	100e2e08 <psci_setup+0x19c>  // b.lo, b.ul, b.last
    100e2d2c:	0b06035a 	add	w26, w26, w6
    100e2d30:	91000694 	add	x20, x20, #0x1
    100e2d34:	2a1303fb 	mov	w27, w19
    100e2d38:	4b1c0280 	sub	w0, w20, w28
    100e2d3c:	2a1403f7 	mov	w23, w20
    100e2d40:	6b03001f 	cmp	w0, w3
    100e2d44:	54fffe03 	b.cc	100e2d04 <psci_setup+0x98>  // b.lo, b.ul, b.last
    100e2d48:	52800004 	mov	w4, #0x0                   	// #0
    100e2d4c:	2a1a03e3 	mov	w3, w26
    100e2d50:	710004bf 	cmp	w5, #0x1
    100e2d54:	54000b41 	b.ne	100e2ebc <psci_setup+0x250>  // b.any
    100e2d58:	7100127f 	cmp	w19, #0x4
    100e2d5c:	54000b61 	b.ne	100e2ec8 <psci_setup+0x25c>  // b.any
    100e2d60:	b0000094 	adrp	x20, 100f3000 <psci_locks>
    100e2d64:	91002294 	add	x20, x20, #0x8
    100e2d68:	52800016 	mov	w22, #0x0                   	// #0
    100e2d6c:	52800013 	mov	w19, #0x0                   	// #0
    100e2d70:	52800021 	mov	w1, #0x1                   	// #1
    100e2d74:	2a1303e0 	mov	w0, w19
    100e2d78:	910223e2 	add	x2, sp, #0x88
    100e2d7c:	97fffc76 	bl	100e1f54 <psci_get_parent_pwr_domain_nodes>
    100e2d80:	b9408be1 	ldr	w1, [sp, #136]
    100e2d84:	6b16003f 	cmp	w1, w22
    100e2d88:	2a0103e0 	mov	w0, w1
    100e2d8c:	54000060 	b.eq	100e2d98 <psci_setup+0x12c>  // b.none
    100e2d90:	d37cec02 	lsl	x2, x0, #4
    100e2d94:	b8226a93 	str	w19, [x20, x2]
    100e2d98:	8b001280 	add	x0, x20, x0, lsl #4
    100e2d9c:	11000673 	add	w19, w19, #0x1
    100e2da0:	2a0103f6 	mov	w22, w1
    100e2da4:	7100127f 	cmp	w19, #0x4
    100e2da8:	b9400402 	ldr	w2, [x0, #4]
    100e2dac:	11000442 	add	w2, w2, #0x1
    100e2db0:	b9000402 	str	w2, [x0, #4]
    100e2db4:	54fffde1 	b.ne	100e2d70 <psci_setup+0x104>  // b.any
    100e2db8:	d53800b3 	mrs	x19, mpidr_el1
    100e2dbc:	9400094b 	bl	100e52e8 <plat_my_core_pos>
    100e2dc0:	d37c7c00 	ubfiz	x0, x0, #4, #32
    100e2dc4:	f0000042 	adrp	x2, 100ed000 <__STACKS_START__+0x3f80>
    100e2dc8:	913b0042 	add	x2, x2, #0xec0
    100e2dcc:	92409e61 	and	x1, x19, #0xffffffffff
    100e2dd0:	f0000053 	adrp	x19, 100ed000 <__STACKS_START__+0x3f80>
    100e2dd4:	913c0274 	add	x20, x19, #0xf00
    100e2dd8:	9260dc21 	and	x1, x1, #0xffffffff00ffffff
    100e2ddc:	f8206841 	str	x1, [x2, x0]
    100e2de0:	97fffc35 	bl	100e1eb4 <psci_init_req_local_pwr_states>
    100e2de4:	52800020 	mov	w0, #0x1                   	// #1
    100e2de8:	97fffc6c 	bl	100e1f98 <psci_set_pwr_domains_to_run>
    100e2dec:	f94006a0 	ldr	x0, [x21, #8]
    100e2df0:	aa1403e1 	mov	x1, x20
    100e2df4:	97fff5f7 	bl	100e05d0 <plat_setup_psci_ops>
    100e2df8:	f9478260 	ldr	x0, [x19, #3840]
    100e2dfc:	b50006a0 	cbnz	x0, 100e2ed0 <psci_setup+0x264>
    100e2e00:	52801ba1 	mov	w1, #0xdd                  	// #221
    100e2e04:	17ffffad 	b	100e2cb8 <psci_setup+0x4c>
    100e2e08:	12001e79 	and	w25, w19, #0xff
    100e2e0c:	93407f20 	sxtw	x0, w25
    100e2e10:	340001e4 	cbz	w4, 100e2e4c <psci_setup+0x1e0>
    100e2e14:	b0000082 	adrp	x2, 100f3000 <psci_locks>
    100e2e18:	91002042 	add	x2, x2, #0x8
    100e2e1c:	8b001040 	add	x0, x2, x0, lsl #4
    100e2e20:	12001e61 	and	w1, w19, #0xff
    100e2e24:	52800028 	mov	w8, #0x1                   	// #1
    100e2e28:	39003408 	strb	w8, [x0, #13]
    100e2e2c:	d37c1c28 	ubfiz	x8, x1, #4, #8
    100e2e30:	8b020102 	add	x2, x8, x2
    100e2e34:	39003841 	strb	w1, [x2, #14]
    100e2e38:	52800041 	mov	w1, #0x2                   	// #2
    100e2e3c:	b9000817 	str	w23, [x0, #8]
    100e2e40:	39003001 	strb	w1, [x0, #12]
    100e2e44:	11000673 	add	w19, w19, #0x1
    100e2e48:	17ffffb6 	b	100e2d20 <psci_setup+0xb4>
    100e2e4c:	d37cec00 	lsl	x0, x0, #4
    100e2e50:	f90037e7 	str	x7, [sp, #104]
    100e2e54:	8b0002c1 	add	x1, x22, x0
    100e2e58:	290e1be4 	stp	w4, w6, [sp, #112]
    100e2e5c:	290f0fe5 	stp	w5, w3, [sp, #120]
    100e2e60:	b9000837 	str	w23, [x1, #8]
    100e2e64:	92800001 	mov	x1, #0xffffffffffffffff    	// #-1
    100e2e68:	f8206ac1 	str	x1, [x22, x0]
    100e2e6c:	2a1903e0 	mov	w0, w25
    100e2e70:	94000a3c 	bl	100e5760 <_cpu_data_by_index>
    100e2e74:	aa0003e1 	mov	x1, x0
    100e2e78:	91016000 	add	x0, x0, #0x58
    100e2e7c:	52800022 	mov	w2, #0x1                   	// #1
    100e2e80:	b9005822 	str	w2, [x1, #88]
    100e2e84:	52800041 	mov	w1, #0x2                   	// #2
    100e2e88:	b9000401 	str	w1, [x0, #4]
    100e2e8c:	39002001 	strb	w1, [x0, #8]
    100e2e90:	d2800181 	mov	x1, #0xc                   	// #12
    100e2e94:	94000b95 	bl	100e5ce8 <flush_dcache_range>
    100e2e98:	52804601 	mov	w1, #0x230                 	// #560
    100e2e9c:	52800022 	mov	w2, #0x1                   	// #1
    100e2ea0:	2a1903e0 	mov	w0, w25
    100e2ea4:	9ba16321 	umaddl	x1, w25, w1, x24
    100e2ea8:	97fff809 	bl	100e0ecc <cm_set_context_by_index>
    100e2eac:	294e1be4 	ldp	w4, w6, [sp, #112]
    100e2eb0:	294f0fe5 	ldp	w5, w3, [sp, #120]
    100e2eb4:	f94037e7 	ldr	x7, [sp, #104]
    100e2eb8:	17ffffe3 	b	100e2e44 <psci_setup+0x1d8>
    100e2ebc:	52800025 	mov	w5, #0x1                   	// #1
    100e2ec0:	2a1403fc 	mov	w28, w20
    100e2ec4:	17ffff8c 	b	100e2cf4 <psci_setup+0x88>
    100e2ec8:	52801461 	mov	w1, #0xa3                  	// #163
    100e2ecc:	17ffff7b 	b	100e2cb8 <psci_setup+0x4c>
    100e2ed0:	d2800101 	mov	x1, #0x8                   	// #8
    100e2ed4:	aa1403e0 	mov	x0, x20
    100e2ed8:	94000b84 	bl	100e5ce8 <flush_dcache_range>
    100e2edc:	f9478261 	ldr	x1, [x19, #3840]
    100e2ee0:	52808223 	mov	w3, #0x411                 	// #1041
    100e2ee4:	f0000040 	adrp	x0, 100ed000 <__STACKS_START__+0x3f80>
    100e2ee8:	f9400822 	ldr	x2, [x1, #16]
    100e2eec:	f100005f 	cmp	x2, #0x0
    100e2ef0:	528082a2 	mov	w2, #0x415                 	// #1045
    100e2ef4:	1a831042 	csel	w2, w2, w3, ne  // ne = any
    100e2ef8:	b90f1002 	str	w2, [x0, #3856]
    100e2efc:	f9400423 	ldr	x3, [x1, #8]
    100e2f00:	b40000a3 	cbz	x3, 100e2f14 <psci_setup+0x2a8>
    100e2f04:	f9401423 	ldr	x3, [x1, #40]
    100e2f08:	b4000063 	cbz	x3, 100e2f14 <psci_setup+0x2a8>
    100e2f0c:	321d0042 	orr	w2, w2, #0x8
    100e2f10:	b90f1002 	str	w2, [x0, #3856]
    100e2f14:	f9401022 	ldr	x2, [x1, #32]
    100e2f18:	b4000162 	cbz	x2, 100e2f44 <psci_setup+0x2d8>
    100e2f1c:	f9401822 	ldr	x2, [x1, #48]
    100e2f20:	b4000122 	cbz	x2, 100e2f44 <psci_setup+0x2d8>
    100e2f24:	f9403024 	ldr	x4, [x1, #96]
    100e2f28:	52880045 	mov	w5, #0x4002                	// #16386
    100e2f2c:	b94f1002 	ldr	w2, [x0, #3856]
    100e2f30:	f100009f 	cmp	x4, #0x0
    100e2f34:	321f0043 	orr	w3, w2, #0x2
    100e2f38:	2a050042 	orr	w2, w2, w5
    100e2f3c:	1a831042 	csel	w2, w2, w3, ne  // ne = any
    100e2f40:	b90f1002 	str	w2, [x0, #3856]
    100e2f44:	f9402022 	ldr	x2, [x1, #64]
    100e2f48:	b4000082 	cbz	x2, 100e2f58 <psci_setup+0x2ec>
    100e2f4c:	b94f1002 	ldr	w2, [x0, #3856]
    100e2f50:	32180042 	orr	w2, w2, #0x100
    100e2f54:	b90f1002 	str	w2, [x0, #3856]
    100e2f58:	f9402422 	ldr	x2, [x1, #72]
    100e2f5c:	b4000082 	cbz	x2, 100e2f6c <psci_setup+0x300>
    100e2f60:	b94f1002 	ldr	w2, [x0, #3856]
    100e2f64:	32170042 	orr	w2, w2, #0x200
    100e2f68:	b90f1002 	str	w2, [x0, #3856]
    100e2f6c:	f9403c22 	ldr	x2, [x1, #120]
    100e2f70:	b4000082 	cbz	x2, 100e2f80 <psci_setup+0x314>
    100e2f74:	b94f1002 	ldr	w2, [x0, #3856]
    100e2f78:	32130042 	orr	w2, w2, #0x2000
    100e2f7c:	b90f1002 	str	w2, [x0, #3856]
    100e2f80:	f9404422 	ldr	x2, [x1, #136]
    100e2f84:	b40000c2 	cbz	x2, 100e2f9c <psci_setup+0x330>
    100e2f88:	f9404822 	ldr	x2, [x1, #144]
    100e2f8c:	b4000082 	cbz	x2, 100e2f9c <psci_setup+0x330>
    100e2f90:	b94f1002 	ldr	w2, [x0, #3856]
    100e2f94:	320d0042 	orr	w2, w2, #0x80000
    100e2f98:	b90f1002 	str	w2, [x0, #3856]
    100e2f9c:	f9404022 	ldr	x2, [x1, #128]
    100e2fa0:	b4000082 	cbz	x2, 100e2fb0 <psci_setup+0x344>
    100e2fa4:	b94f1002 	ldr	w2, [x0, #3856]
    100e2fa8:	320c0042 	orr	w2, w2, #0x100000
    100e2fac:	b90f1002 	str	w2, [x0, #3856]
    100e2fb0:	f9404c21 	ldr	x1, [x1, #152]
    100e2fb4:	b4000081 	cbz	x1, 100e2fc4 <psci_setup+0x358>
    100e2fb8:	b94f1001 	ldr	w1, [x0, #3856]
    100e2fbc:	320e0021 	orr	w1, w1, #0x40000
    100e2fc0:	b90f1001 	str	w1, [x0, #3856]
    100e2fc4:	52800000 	mov	w0, #0x0                   	// #0
    100e2fc8:	a94153f3 	ldp	x19, x20, [sp, #16]
    100e2fcc:	a9425bf5 	ldp	x21, x22, [sp, #32]
    100e2fd0:	a94363f7 	ldp	x23, x24, [sp, #48]
    100e2fd4:	a9446bf9 	ldp	x25, x26, [sp, #64]
    100e2fd8:	a94573fb 	ldp	x27, x28, [sp, #80]
    100e2fdc:	a8c97bfd 	ldp	x29, x30, [sp], #144
    100e2fe0:	d65f03c0 	ret

00000000100e2fe4 <psci_system_off>:
    100e2fe4:	a9be7bfd 	stp	x29, x30, [sp, #-32]!
    100e2fe8:	910003fd 	mov	x29, sp
    100e2fec:	f9000bf3 	str	x19, [sp, #16]
    100e2ff0:	97fffd60 	bl	100e2570 <psci_print_power_domain_map>
    100e2ff4:	f0000040 	adrp	x0, 100ed000 <__STACKS_START__+0x3f80>
    100e2ff8:	f9478001 	ldr	x1, [x0, #3840]
    100e2ffc:	f9402021 	ldr	x1, [x1, #64]
    100e3000:	b50000a1 	cbnz	x1, 100e3014 <psci_system_off+0x30>
    100e3004:	90000020 	adrp	x0, 100e7000 <__TEXT_END__>
    100e3008:	911e6c00 	add	x0, x0, #0x79b
    100e300c:	528002a1 	mov	w1, #0x15                  	// #21
    100e3010:	94000c77 	bl	100e61ec <__assert>
    100e3014:	aa0003f3 	mov	x19, x0
    100e3018:	d0000040 	adrp	x0, 100ed000 <__STACKS_START__+0x3f80>
    100e301c:	f9478400 	ldr	x0, [x0, #3848]
    100e3020:	b4000080 	cbz	x0, 100e3030 <psci_system_off+0x4c>
    100e3024:	f9401c00 	ldr	x0, [x0, #56]
    100e3028:	b4000040 	cbz	x0, 100e3030 <psci_system_off+0x4c>
    100e302c:	d63f0000 	blr	x0
    100e3030:	9400042e 	bl	100e40e8 <console_flush>
    100e3034:	f9478260 	ldr	x0, [x19, #3840]
    100e3038:	f9402000 	ldr	x0, [x0, #64]
    100e303c:	d63f0000 	blr	x0

00000000100e3040 <psci_system_reset>:
    100e3040:	a9be7bfd 	stp	x29, x30, [sp, #-32]!
    100e3044:	910003fd 	mov	x29, sp
    100e3048:	f9000bf3 	str	x19, [sp, #16]
    100e304c:	97fffd49 	bl	100e2570 <psci_print_power_domain_map>
    100e3050:	d0000040 	adrp	x0, 100ed000 <__STACKS_START__+0x3f80>
    100e3054:	f9478001 	ldr	x1, [x0, #3840]
    100e3058:	f9402421 	ldr	x1, [x1, #72]
    100e305c:	b50000a1 	cbnz	x1, 100e3070 <psci_system_reset+0x30>
    100e3060:	90000020 	adrp	x0, 100e7000 <__TEXT_END__>
    100e3064:	911e6c00 	add	x0, x0, #0x79b
    100e3068:	52800501 	mov	w1, #0x28                  	// #40
    100e306c:	94000c60 	bl	100e61ec <__assert>
    100e3070:	aa0003f3 	mov	x19, x0
    100e3074:	d0000040 	adrp	x0, 100ed000 <__STACKS_START__+0x3f80>
    100e3078:	f9478400 	ldr	x0, [x0, #3848]
    100e307c:	b4000080 	cbz	x0, 100e308c <psci_system_reset+0x4c>
    100e3080:	f9402000 	ldr	x0, [x0, #64]
    100e3084:	b4000040 	cbz	x0, 100e308c <psci_system_reset+0x4c>
    100e3088:	d63f0000 	blr	x0
    100e308c:	94000417 	bl	100e40e8 <console_flush>
    100e3090:	f9478260 	ldr	x0, [x19, #3840]
    100e3094:	f9402400 	ldr	x0, [x0, #72]
    100e3098:	d63f0000 	blr	x0

00000000100e309c <psci_system_reset2>:
    100e309c:	a9bd7bfd 	stp	x29, x30, [sp, #-48]!
    100e30a0:	910003fd 	mov	x29, sp
    100e30a4:	a90153f3 	stp	x19, x20, [sp, #16]
    100e30a8:	2a0003f4 	mov	w20, w0
    100e30ac:	a9025bf5 	stp	x21, x22, [sp, #32]
    100e30b0:	aa0103f6 	mov	x22, x1
    100e30b4:	97fffd2f 	bl	100e2570 <psci_print_power_domain_map>
    100e30b8:	d0000040 	adrp	x0, 100ed000 <__STACKS_START__+0x3f80>
    100e30bc:	f9478001 	ldr	x1, [x0, #3840]
    100e30c0:	f9404c22 	ldr	x2, [x1, #152]
    100e30c4:	b50000a2 	cbnz	x2, 100e30d8 <psci_system_reset2+0x3c>
    100e30c8:	90000020 	adrp	x0, 100e7000 <__TEXT_END__>
    100e30cc:	911e6c00 	add	x0, x0, #0x79b
    100e30d0:	528007a1 	mov	w1, #0x3d                  	// #61
    100e30d4:	94000c46 	bl	100e61ec <__assert>
    100e30d8:	aa0003f3 	mov	x19, x0
    100e30dc:	531f7e95 	lsr	w21, w20, #31
    100e30e0:	34000215 	cbz	w21, 100e3120 <psci_system_reset2+0x84>
    100e30e4:	d0000040 	adrp	x0, 100ed000 <__STACKS_START__+0x3f80>
    100e30e8:	f9478400 	ldr	x0, [x0, #3848]
    100e30ec:	b50002a0 	cbnz	x0, 100e3140 <psci_system_reset2+0xa4>
    100e30f0:	940003fe 	bl	100e40e8 <console_flush>
    100e30f4:	f9478260 	ldr	x0, [x19, #3840]
    100e30f8:	aa1603e2 	mov	x2, x22
    100e30fc:	2a1403e1 	mov	w1, w20
    100e3100:	f9404c03 	ldr	x3, [x0, #152]
    100e3104:	2a1503e0 	mov	w0, w21
    100e3108:	d63f0060 	blr	x3
    100e310c:	93407c00 	sxtw	x0, w0
    100e3110:	a94153f3 	ldp	x19, x20, [sp, #16]
    100e3114:	a9425bf5 	ldp	x21, x22, [sp, #32]
    100e3118:	a8c37bfd 	ldp	x29, x30, [sp], #48
    100e311c:	d65f03c0 	ret
    100e3120:	35000194 	cbnz	w20, 100e3150 <psci_system_reset2+0xb4>
    100e3124:	f9404821 	ldr	x1, [x1, #144]
    100e3128:	b4fffde1 	cbz	x1, 100e30e4 <psci_system_reset2+0x48>
    100e312c:	52800000 	mov	w0, #0x0                   	// #0
    100e3130:	d63f0020 	blr	x1
    100e3134:	36fffd80 	tbz	w0, #31, 100e30e4 <psci_system_reset2+0x48>
    100e3138:	92800000 	mov	x0, #0xffffffffffffffff    	// #-1
    100e313c:	17fffff5 	b	100e3110 <psci_system_reset2+0x74>
    100e3140:	f9402000 	ldr	x0, [x0, #64]
    100e3144:	b4fffd60 	cbz	x0, 100e30f0 <psci_system_reset2+0x54>
    100e3148:	d63f0000 	blr	x0
    100e314c:	17ffffe9 	b	100e30f0 <psci_system_reset2+0x54>
    100e3150:	92800020 	mov	x0, #0xfffffffffffffffe    	// #-2
    100e3154:	17ffffef 	b	100e3110 <psci_system_reset2+0x74>

00000000100e3158 <psci_mem_protect>:
    100e3158:	a9bd7bfd 	stp	x29, x30, [sp, #-48]!
    100e315c:	910003fd 	mov	x29, sp
    100e3160:	a90153f3 	stp	x19, x20, [sp, #16]
    100e3164:	2a0003f4 	mov	w20, w0
    100e3168:	d0000053 	adrp	x19, 100ed000 <__STACKS_START__+0x3f80>
    100e316c:	f9478260 	ldr	x0, [x19, #3840]
    100e3170:	f9404401 	ldr	x1, [x0, #136]
    100e3174:	b50000a1 	cbnz	x1, 100e3188 <psci_mem_protect+0x30>
    100e3178:	52800241 	mov	w1, #0x12                  	// #18
    100e317c:	90000020 	adrp	x0, 100e7000 <__TEXT_END__>
    100e3180:	911ed800 	add	x0, x0, #0x7b6
    100e3184:	94000c1a 	bl	100e61ec <__assert>
    100e3188:	f9404800 	ldr	x0, [x0, #144]
    100e318c:	b5000060 	cbnz	x0, 100e3198 <psci_mem_protect+0x40>
    100e3190:	52800261 	mov	w1, #0x13                  	// #19
    100e3194:	17fffffa 	b	100e317c <psci_mem_protect+0x24>
    100e3198:	9100b3e0 	add	x0, sp, #0x2c
    100e319c:	d63f0020 	blr	x1
    100e31a0:	36f800a0 	tbz	w0, #31, 100e31b4 <psci_mem_protect+0x5c>
    100e31a4:	92800000 	mov	x0, #0xffffffffffffffff    	// #-1
    100e31a8:	a94153f3 	ldp	x19, x20, [sp, #16]
    100e31ac:	a8c37bfd 	ldp	x29, x30, [sp], #48
    100e31b0:	d65f03c0 	ret
    100e31b4:	f9478260 	ldr	x0, [x19, #3840]
    100e31b8:	f9404801 	ldr	x1, [x0, #144]
    100e31bc:	2a1403e0 	mov	w0, w20
    100e31c0:	d63f0020 	blr	x1
    100e31c4:	37ffff00 	tbnz	w0, #31, 100e31a4 <psci_mem_protect+0x4c>
    100e31c8:	b9402fe0 	ldr	w0, [sp, #44]
    100e31cc:	7100001f 	cmp	w0, #0x0
    100e31d0:	9a9f07e0 	cset	x0, ne  // ne = any
    100e31d4:	17fffff5 	b	100e31a8 <psci_mem_protect+0x50>

00000000100e31d8 <psci_mem_chk_range>:
    100e31d8:	a9bf7bfd 	stp	x29, x30, [sp, #-16]!
    100e31dc:	910003fd 	mov	x29, sp
    100e31e0:	d0000043 	adrp	x3, 100ed000 <__STACKS_START__+0x3f80>
    100e31e4:	f9478063 	ldr	x3, [x3, #3840]
    100e31e8:	f9404063 	ldr	x3, [x3, #128]
    100e31ec:	b50000a3 	cbnz	x3, 100e3200 <psci_mem_chk_range+0x28>
    100e31f0:	90000020 	adrp	x0, 100e7000 <__TEXT_END__>
    100e31f4:	911ed800 	add	x0, x0, #0x7b6
    100e31f8:	52800421 	mov	w1, #0x21                  	// #33
    100e31fc:	94000bfc 	bl	100e61ec <__assert>
    100e3200:	b5000081 	cbnz	x1, 100e3210 <psci_mem_chk_range+0x38>
    100e3204:	92800040 	mov	x0, #0xfffffffffffffffd    	// #-3
    100e3208:	a8c17bfd 	ldp	x29, x30, [sp], #16
    100e320c:	d65f03c0 	ret
    100e3210:	cb0103e2 	neg	x2, x1
    100e3214:	eb00005f 	cmp	x2, x0
    100e3218:	54ffff63 	b.cc	100e3204 <psci_mem_chk_range+0x2c>  // b.lo, b.ul, b.last
    100e321c:	d63f0060 	blr	x3
    100e3220:	37ffff20 	tbnz	w0, #31, 100e3204 <psci_mem_chk_range+0x2c>
    100e3224:	d2800000 	mov	x0, #0x0                   	// #0
    100e3228:	17fffff8 	b	100e3208 <psci_mem_chk_range+0x30>

00000000100e322c <bakery_lock_get>:
    100e322c:	a9be7bfd 	stp	x29, x30, [sp, #-32]!
    100e3230:	910003fd 	mov	x29, sp
    100e3234:	f9000bf3 	str	x19, [sp, #16]
    100e3238:	aa0003f3 	mov	x19, x0
    100e323c:	9400082b 	bl	100e52e8 <plat_my_core_pos>
    100e3240:	b50000b3 	cbnz	x19, 100e3254 <bakery_lock_get+0x28>
    100e3244:	52800c81 	mov	w1, #0x64                  	// #100
    100e3248:	90000020 	adrp	x0, 100e7000 <__TEXT_END__>
    100e324c:	911f4800 	add	x0, x0, #0x7d2
    100e3250:	94000be7 	bl	100e61ec <__assert>
    100e3254:	71000c1f 	cmp	w0, #0x3
    100e3258:	54ffff68 	b.hi	100e3244 <bakery_lock_get+0x18>  // b.pmore
    100e325c:	d37f7c05 	ubfiz	x5, x0, #1, #32
    100e3260:	78656a61 	ldrh	w1, [x19, x5]
    100e3264:	d3413c21 	ubfx	x1, x1, #1, #15
    100e3268:	34000061 	cbz	w1, 100e3274 <bakery_lock_get+0x48>
    100e326c:	52800641 	mov	w1, #0x32                  	// #50
    100e3270:	17fffff6 	b	100e3248 <bakery_lock_get+0x1c>
    100e3274:	52800022 	mov	w2, #0x1                   	// #1
    100e3278:	52800003 	mov	w3, #0x0                   	// #0
    100e327c:	78256a62 	strh	w2, [x19, x5]
    100e3280:	52800002 	mov	w2, #0x0                   	// #0
    100e3284:	2a0303e4 	mov	w4, w3
    100e3288:	11000463 	add	w3, w3, #0x1
    100e328c:	78647a64 	ldrh	w4, [x19, x4, lsl #1]
    100e3290:	d3413c84 	ubfx	x4, x4, #1, #15
    100e3294:	6b04005f 	cmp	w2, w4
    100e3298:	1a842042 	csel	w2, w2, w4, cs  // cs = hs, nlast
    100e329c:	7100107f 	cmp	w3, #0x4
    100e32a0:	54ffff21 	b.ne	100e3284 <bakery_lock_get+0x58>  // b.any
    100e32a4:	11000442 	add	w2, w2, #0x1
    100e32a8:	531f3843 	ubfiz	w3, w2, #1, #15
    100e32ac:	2a022002 	orr	w2, w0, w2, lsl #8
    100e32b0:	78256a63 	strh	w3, [x19, x5]
    100e32b4:	6b01001f 	cmp	w0, w1
    100e32b8:	54000200 	b.eq	100e32f8 <bakery_lock_get+0xcc>  // b.none
    100e32bc:	d37f7c24 	ubfiz	x4, x1, #1, #32
    100e32c0:	78646a63 	ldrh	w3, [x19, x4]
    100e32c4:	8b040265 	add	x5, x19, x4
    100e32c8:	12003c63 	and	w3, w3, #0xffff
    100e32cc:	3707ffa3 	tbnz	w3, #0, 100e32c0 <bakery_lock_get+0x94>
    100e32d0:	53017c63 	lsr	w3, w3, #1
    100e32d4:	34000123 	cbz	w3, 100e32f8 <bakery_lock_get+0xcc>
    100e32d8:	2a032024 	orr	w4, w1, w3, lsl #8
    100e32dc:	6b04005f 	cmp	w2, w4
    100e32e0:	540000c9 	b.ls	100e32f8 <bakery_lock_get+0xcc>  // b.plast
    100e32e4:	d503205f 	wfe
    100e32e8:	794000a4 	ldrh	w4, [x5]
    100e32ec:	d3413c84 	ubfx	x4, x4, #1, #15
    100e32f0:	6b04007f 	cmp	w3, w4
    100e32f4:	54ffff80 	b.eq	100e32e4 <bakery_lock_get+0xb8>  // b.none
    100e32f8:	11000421 	add	w1, w1, #0x1
    100e32fc:	7100103f 	cmp	w1, #0x4
    100e3300:	54fffda1 	b.ne	100e32b4 <bakery_lock_get+0x88>  // b.any
    100e3304:	d5033dbf 	dmb	ld
    100e3308:	f9400bf3 	ldr	x19, [sp, #16]
    100e330c:	a8c27bfd 	ldp	x29, x30, [sp], #32
    100e3310:	d65f03c0 	ret

00000000100e3314 <bakery_lock_release>:
    100e3314:	a9be7bfd 	stp	x29, x30, [sp, #-32]!
    100e3318:	910003fd 	mov	x29, sp
    100e331c:	f9000bf3 	str	x19, [sp, #16]
    100e3320:	aa0003f3 	mov	x19, x0
    100e3324:	940007f1 	bl	100e52e8 <plat_my_core_pos>
    100e3328:	b50000b3 	cbnz	x19, 100e333c <bakery_lock_release+0x28>
    100e332c:	52801301 	mov	w1, #0x98                  	// #152
    100e3330:	90000020 	adrp	x0, 100e7000 <__TEXT_END__>
    100e3334:	911f4800 	add	x0, x0, #0x7d2
    100e3338:	94000bad 	bl	100e61ec <__assert>
    100e333c:	71000c1f 	cmp	w0, #0x3
    100e3340:	54ffff68 	b.hi	100e332c <bakery_lock_release+0x18>  // b.pmore
    100e3344:	d37f7c00 	ubfiz	x0, x0, #1, #32
    100e3348:	78606a61 	ldrh	w1, [x19, x0]
    100e334c:	f27f383f 	tst	x1, #0xfffe
    100e3350:	54000061 	b.ne	100e335c <bakery_lock_release+0x48>  // b.any
    100e3354:	52801321 	mov	w1, #0x99                  	// #153
    100e3358:	17fffff6 	b	100e3330 <bakery_lock_release+0x1c>
    100e335c:	d5033ebf 	dmb	st
    100e3360:	78206a7f 	strh	wzr, [x19, x0]
    100e3364:	d5033f9f 	dsb	sy
    100e3368:	d503209f 	sev
    100e336c:	f9400bf3 	ldr	x19, [sp, #16]
    100e3370:	a8c27bfd 	ldp	x29, x30, [sp], #32
    100e3374:	d65f03c0 	ret

00000000100e3378 <spe_supported>:
    100e3378:	d5380500 	mrs	x0, id_aa64dfr0_el1
    100e337c:	d3608c00 	ubfx	x0, x0, #32, #4
    100e3380:	f100041f 	cmp	x0, #0x1
    100e3384:	1a9f17e0 	cset	w0, eq  // eq = none
    100e3388:	d65f03c0 	ret

00000000100e338c <spe_drain_buffers_hook>:
    100e338c:	a9bf7bfd 	stp	x29, x30, [sp, #-16]!
    100e3390:	910003fd 	mov	x29, sp
    100e3394:	97fffff9 	bl	100e3378 <spe_supported>
    100e3398:	72001c1f 	tst	w0, #0xff
    100e339c:	540000c0 	b.eq	100e33b4 <spe_drain_buffers_hook+0x28>  // b.none
    100e33a0:	d503223f 	psb	csync
    100e33a4:	d503379f 	dsb	nsh
    100e33a8:	d2800000 	mov	x0, #0x0                   	// #0
    100e33ac:	a8c17bfd 	ldp	x29, x30, [sp], #16
    100e33b0:	d65f03c0 	ret
    100e33b4:	92800000 	mov	x0, #0xffffffffffffffff    	// #-1
    100e33b8:	17fffffd 	b	100e33ac <spe_drain_buffers_hook+0x20>

00000000100e33bc <spe_enable>:
    100e33bc:	12001c01 	and	w1, w0, #0xff
    100e33c0:	a9bf7bfd 	stp	x29, x30, [sp, #-16]!
    100e33c4:	910003fd 	mov	x29, sp
    100e33c8:	97ffffec 	bl	100e3378 <spe_supported>
    100e33cc:	72001c1f 	tst	w0, #0xff
    100e33d0:	54000140 	b.eq	100e33f8 <spe_enable+0x3c>  // b.none
    100e33d4:	340000c1 	cbz	w1, 100e33ec <spe_enable+0x30>
    100e33d8:	d53c1120 	mrs	x0, mdcr_el2
    100e33dc:	92407c00 	and	x0, x0, #0xffffffff
    100e33e0:	9271f800 	and	x0, x0, #0xffffffffffffbfff
    100e33e4:	b2740400 	orr	x0, x0, #0x3000
    100e33e8:	d51c1120 	msr	mdcr_el2, x0
    100e33ec:	d53e1320 	mrs	x0, mdcr_el3
    100e33f0:	b2740400 	orr	x0, x0, #0x3000
    100e33f4:	d51e1320 	msr	mdcr_el3, x0
    100e33f8:	a8c17bfd 	ldp	x29, x30, [sp], #16
    100e33fc:	d65f03c0 	ret

00000000100e3400 <sve_supported>:
    100e3400:	d5380400 	mrs	x0, id_aa64pfr0_el1
    100e3404:	d3608c00 	ubfx	x0, x0, #32, #4
    100e3408:	f100041f 	cmp	x0, #0x1
    100e340c:	1a9f17e0 	cset	w0, eq  // eq = none
    100e3410:	d65f03c0 	ret

00000000100e3414 <disable_sve_hook>:
    100e3414:	a9bf7bfd 	stp	x29, x30, [sp, #-16]!
    100e3418:	910003fd 	mov	x29, sp
    100e341c:	97fffff9 	bl	100e3400 <sve_supported>
    100e3420:	72001c1f 	tst	w0, #0xff
    100e3424:	54000120 	b.eq	100e3448 <disable_sve_hook+0x34>  // b.none
    100e3428:	d53e1140 	mrs	x0, cptr_el3
    100e342c:	1280a001 	mov	w1, #0xfffffaff            	// #-1281
    100e3430:	8a010000 	and	x0, x0, x1
    100e3434:	b2760000 	orr	x0, x0, #0x400
    100e3438:	d51e1140 	msr	cptr_el3, x0
    100e343c:	d2800000 	mov	x0, #0x0                   	// #0
    100e3440:	a8c17bfd 	ldp	x29, x30, [sp], #16
    100e3444:	d65f03c0 	ret
    100e3448:	92800000 	mov	x0, #0xffffffffffffffff    	// #-1
    100e344c:	17fffffd 	b	100e3440 <disable_sve_hook+0x2c>

00000000100e3450 <enable_sve_hook>:
    100e3450:	a9bf7bfd 	stp	x29, x30, [sp, #-16]!
    100e3454:	910003fd 	mov	x29, sp
    100e3458:	97ffffea 	bl	100e3400 <sve_supported>
    100e345c:	72001c1f 	tst	w0, #0xff
    100e3460:	54000120 	b.eq	100e3484 <enable_sve_hook+0x34>  // b.none
    100e3464:	d53e1140 	mrs	x0, cptr_el3
    100e3468:	1280a001 	mov	w1, #0xfffffaff            	// #-1281
    100e346c:	8a010000 	and	x0, x0, x1
    100e3470:	b2780000 	orr	x0, x0, #0x100
    100e3474:	d51e1140 	msr	cptr_el3, x0
    100e3478:	d2800000 	mov	x0, #0x0                   	// #0
    100e347c:	a8c17bfd 	ldp	x29, x30, [sp], #16
    100e3480:	d65f03c0 	ret
    100e3484:	92800000 	mov	x0, #0xffffffffffffffff    	// #-1
    100e3488:	17fffffd 	b	100e347c <enable_sve_hook+0x2c>

00000000100e348c <sve_enable>:
    100e348c:	12001c02 	and	w2, w0, #0xff
    100e3490:	a9bf7bfd 	stp	x29, x30, [sp, #-16]!
    100e3494:	910003fd 	mov	x29, sp
    100e3498:	97ffffda 	bl	100e3400 <sve_supported>
    100e349c:	72001c1f 	tst	w0, #0xff
    100e34a0:	540001a0 	b.eq	100e34d4 <sve_enable+0x48>  // b.none
    100e34a4:	d53e1140 	mrs	x0, cptr_el3
    100e34a8:	b2780000 	orr	x0, x0, #0x100
    100e34ac:	d51e1140 	msr	cptr_el3, x0
    100e34b0:	d5033fdf 	isb
    100e34b4:	d28001e1 	mov	x1, #0xf                   	// #15
    100e34b8:	d51e1201 	msr	zcr_el3, x1
    100e34bc:	340000c2 	cbz	w2, 100e34d4 <sve_enable+0x48>
    100e34c0:	d53c1140 	mrs	x0, cptr_el2
    100e34c4:	92407c00 	and	x0, x0, #0xffffffff
    100e34c8:	9277f800 	and	x0, x0, #0xfffffffffffffeff
    100e34cc:	d51c1140 	msr	cptr_el2, x0
    100e34d0:	d51c1201 	msr	zcr_el2, x1
    100e34d4:	a8c17bfd 	ldp	x29, x30, [sp], #16
    100e34d8:	d65f03c0 	ret

00000000100e34dc <opteed_init_optee_ep_state>:
    100e34dc:	a9bc7bfd 	stp	x29, x30, [sp, #-64]!
    100e34e0:	910003fd 	mov	x29, sp
    100e34e4:	a90153f3 	stp	x19, x20, [sp, #16]
    100e34e8:	a9025bf5 	stp	x21, x22, [sp, #32]
    100e34ec:	a90363f7 	stp	x23, x24, [sp, #48]
    100e34f0:	b50000a6 	cbnz	x6, 100e3504 <opteed_init_optee_ep_state+0x28>
    100e34f4:	528003c1 	mov	w1, #0x1e                  	// #30
    100e34f8:	90000020 	adrp	x0, 100e7000 <__TEXT_END__>
    100e34fc:	911fe800 	add	x0, x0, #0x7fa
    100e3500:	94000b3b 	bl	100e61ec <__assert>
    100e3504:	aa0003f3 	mov	x19, x0
    100e3508:	b5000060 	cbnz	x0, 100e3514 <opteed_init_optee_ep_state+0x38>
    100e350c:	528003e1 	mov	w1, #0x1f                  	// #31
    100e3510:	17fffffa 	b	100e34f8 <opteed_init_optee_ep_state+0x1c>
    100e3514:	aa0203f4 	mov	x20, x2
    100e3518:	b5000062 	cbnz	x2, 100e3524 <opteed_init_optee_ep_state+0x48>
    100e351c:	52800401 	mov	w1, #0x20                  	// #32
    100e3520:	17fffff6 	b	100e34f8 <opteed_init_optee_ep_state+0x1c>
    100e3524:	2a0103f8 	mov	w24, w1
    100e3528:	aa0303f7 	mov	x23, x3
    100e352c:	aa0403f6 	mov	x22, x4
    100e3530:	aa0503f5 	mov	x21, x5
    100e3534:	d53800a0 	mrs	x0, mpidr_el1
    100e3538:	f90004c0 	str	x0, [x6, #8]
    100e353c:	aa0603e0 	mov	x0, x6
    100e3540:	52800001 	mov	w1, #0x0                   	// #0
    100e3544:	b802041f 	str	wzr, [x0], #32
    100e3548:	97fff647 	bl	100e0e64 <cm_set_context>
    100e354c:	d53e1000 	mrs	x0, sctlr_el3
    100e3550:	528000c1 	mov	w1, #0x6                   	// #6
    100e3554:	f267001f 	tst	x0, #0x2000000
    100e3558:	52800080 	mov	w0, #0x4                   	// #4
    100e355c:	1a810000 	csel	w0, w0, w1, eq  // eq = none
    100e3560:	7100031f 	cmp	w24, #0x0
    100e3564:	52802021 	mov	w1, #0x101                 	// #257
    100e3568:	72a00b01 	movk	w1, #0x58, lsl #16
    100e356c:	29000261 	stp	w1, w0, [x19]
    100e3570:	52803a61 	mov	w1, #0x1d3                 	// #467
    100e3574:	528078a0 	mov	w0, #0x3c5                 	// #965
    100e3578:	1a810000 	csel	w0, w0, w1, eq  // eq = none
    100e357c:	f9000674 	str	x20, [x19, #8]
    100e3580:	b9001260 	str	w0, [x19, #16]
    100e3584:	d2800801 	mov	x1, #0x40                  	// #64
    100e3588:	91006260 	add	x0, x19, #0x18
    100e358c:	94000a40 	bl	100e5e8c <zeromem>
    100e3590:	a901da77 	stp	x23, x22, [x19, #24]
    100e3594:	f9001675 	str	x21, [x19, #40]
    100e3598:	a94153f3 	ldp	x19, x20, [sp, #16]
    100e359c:	a9425bf5 	ldp	x21, x22, [sp, #32]
    100e35a0:	a94363f7 	ldp	x23, x24, [sp, #48]
    100e35a4:	a8c47bfd 	ldp	x29, x30, [sp], #64
    100e35a8:	d65f03c0 	ret

00000000100e35ac <opteed_synchronous_sp_entry>:
    100e35ac:	a9be7bfd 	stp	x29, x30, [sp, #-32]!
    100e35b0:	910003fd 	mov	x29, sp
    100e35b4:	f9000bf3 	str	x19, [sp, #16]
    100e35b8:	b50000a0 	cbnz	x0, 100e35cc <opteed_synchronous_sp_entry+0x20>
    100e35bc:	52800941 	mov	w1, #0x4a                  	// #74
    100e35c0:	90000020 	adrp	x0, 100e7000 <__TEXT_END__>
    100e35c4:	911fe800 	add	x0, x0, #0x7fa
    100e35c8:	94000b09 	bl	100e61ec <__assert>
    100e35cc:	aa0003f3 	mov	x19, x0
    100e35d0:	f9400800 	ldr	x0, [x0, #16]
    100e35d4:	b4000060 	cbz	x0, 100e35e0 <opteed_synchronous_sp_entry+0x34>
    100e35d8:	52800961 	mov	w1, #0x4b                  	// #75
    100e35dc:	17fffff9 	b	100e35c0 <opteed_synchronous_sp_entry+0x14>
    100e35e0:	52800000 	mov	w0, #0x0                   	// #0
    100e35e4:	97fff615 	bl	100e0e38 <cm_get_context>
    100e35e8:	91008261 	add	x1, x19, #0x20
    100e35ec:	eb00003f 	cmp	x1, x0
    100e35f0:	54000060 	b.eq	100e35fc <opteed_synchronous_sp_entry+0x50>  // b.none
    100e35f4:	528009c1 	mov	w1, #0x4e                  	// #78
    100e35f8:	17fffff2 	b	100e35c0 <opteed_synchronous_sp_entry+0x14>
    100e35fc:	52800000 	mov	w0, #0x0                   	// #0
    100e3600:	97fff782 	bl	100e1408 <cm_el1_sysregs_context_restore>
    100e3604:	52800000 	mov	w0, #0x0                   	// #0
    100e3608:	97fff7d0 	bl	100e1548 <cm_set_next_eret_context>
    100e360c:	91004260 	add	x0, x19, #0x10
    100e3610:	94000968 	bl	100e5bb0 <opteed_enter_sp>
    100e3614:	f9000a7f 	str	xzr, [x19, #16]
    100e3618:	f9400bf3 	ldr	x19, [sp, #16]
    100e361c:	a8c27bfd 	ldp	x29, x30, [sp], #32
    100e3620:	d65f03c0 	ret

00000000100e3624 <opteed_synchronous_sp_exit>:
    100e3624:	a9be7bfd 	stp	x29, x30, [sp, #-32]!
    100e3628:	910003fd 	mov	x29, sp
    100e362c:	a90153f3 	stp	x19, x20, [sp, #16]
    100e3630:	b50000a0 	cbnz	x0, 100e3644 <opteed_synchronous_sp_exit+0x20>
    100e3634:	52800ca1 	mov	w1, #0x65                  	// #101
    100e3638:	90000020 	adrp	x0, 100e7000 <__TEXT_END__>
    100e363c:	911fe800 	add	x0, x0, #0x7fa
    100e3640:	94000aeb 	bl	100e61ec <__assert>
    100e3644:	aa0003f3 	mov	x19, x0
    100e3648:	aa0103f4 	mov	x20, x1
    100e364c:	52800000 	mov	w0, #0x0                   	// #0
    100e3650:	97fff5fa 	bl	100e0e38 <cm_get_context>
    100e3654:	91008261 	add	x1, x19, #0x20
    100e3658:	eb00003f 	cmp	x1, x0
    100e365c:	54000060 	b.eq	100e3668 <opteed_synchronous_sp_exit+0x44>  // b.none
    100e3660:	52800ce1 	mov	w1, #0x67                  	// #103
    100e3664:	17fffff5 	b	100e3638 <opteed_synchronous_sp_exit+0x14>
    100e3668:	52800000 	mov	w0, #0x0                   	// #0
    100e366c:	97fff743 	bl	100e1378 <cm_el1_sysregs_context_save>
    100e3670:	f9400a60 	ldr	x0, [x19, #16]
    100e3674:	b5000060 	cbnz	x0, 100e3680 <opteed_synchronous_sp_exit+0x5c>
    100e3678:	52800d41 	mov	w1, #0x6a                  	// #106
    100e367c:	17ffffef 	b	100e3638 <opteed_synchronous_sp_exit+0x14>
    100e3680:	aa1403e1 	mov	x1, x20
    100e3684:	94000955 	bl	100e5bd8 <opteed_exit_sp>

00000000100e3688 <opteed_smc_handler>:
    100e3688:	a9ba7bfd 	stp	x29, x30, [sp, #-96]!
    100e368c:	910003fd 	mov	x29, sp
    100e3690:	a90153f3 	stp	x19, x20, [sp, #16]
    100e3694:	52804a13 	mov	w19, #0x250                 	// #592
    100e3698:	a9025bf5 	stp	x21, x22, [sp, #32]
    100e369c:	aa0103f6 	mov	x22, x1
    100e36a0:	2a0003f5 	mov	w21, w0
    100e36a4:	a90363f7 	stp	x23, x24, [sp, #48]
    100e36a8:	aa0203f7 	mov	x23, x2
    100e36ac:	aa0303f8 	mov	x24, x3
    100e36b0:	a9046bf9 	stp	x25, x26, [sp, #64]
    100e36b4:	aa0603f9 	mov	x25, x6
    100e36b8:	a90573fb 	stp	x27, x28, [sp, #80]
    100e36bc:	aa0403fb 	mov	x27, x4
    100e36c0:	aa0703fc 	mov	x28, x7
    100e36c4:	94000709 	bl	100e52e8 <plat_my_core_pos>
    100e36c8:	2a0003f4 	mov	w20, w0
    100e36cc:	d0000041 	adrp	x1, 100ed000 <__STACKS_START__+0x3f80>
    100e36d0:	913cc03a 	add	x26, x1, #0xf30
    100e36d4:	9bb37c13 	umull	x19, w0, w19
    100e36d8:	3600067c 	tbz	w28, #0, 100e37a4 <opteed_smc_handler+0x11c>
    100e36dc:	52800020 	mov	w0, #0x1                   	// #1
    100e36e0:	97fff5d6 	bl	100e0e38 <cm_get_context>
    100e36e4:	eb00033f 	cmp	x25, x0
    100e36e8:	540000a0 	b.eq	100e36fc <opteed_smc_handler+0x74>  // b.none
    100e36ec:	52801b01 	mov	w1, #0xd8                  	// #216
    100e36f0:	90000020 	adrp	x0, 100e7000 <__TEXT_END__>
    100e36f4:	9122f800 	add	x0, x0, #0x8be
    100e36f8:	94000abd 	bl	100e61ec <__assert>
    100e36fc:	91008273 	add	x19, x19, #0x20
    100e3700:	52800020 	mov	w0, #0x1                   	// #1
    100e3704:	8b130353 	add	x19, x26, x19
    100e3708:	97fff71c 	bl	100e1378 <cm_el1_sysregs_context_save>
    100e370c:	52800000 	mov	w0, #0x0                   	// #0
    100e3710:	97fff5ca 	bl	100e0e38 <cm_get_context>
    100e3714:	eb00027f 	cmp	x19, x0
    100e3718:	54000060 	b.eq	100e3724 <opteed_smc_handler+0x9c>  // b.none
    100e371c:	52801d01 	mov	w1, #0xe8                  	// #232
    100e3720:	17fffff4 	b	100e36f0 <opteed_smc_handler+0x68>
    100e3724:	d0000040 	adrp	x0, 100ed000 <__STACKS_START__+0x3f80>
    100e3728:	f9479001 	ldr	x1, [x0, #3872]
    100e372c:	36f80055 	tbz	w21, #31, 100e3734 <opteed_smc_handler+0xac>
    100e3730:	91001021 	add	x1, x1, #0x4
    100e3734:	52800000 	mov	w0, #0x0                   	// #0
    100e3738:	97fff758 	bl	100e1498 <cm_set_elr_el3>
    100e373c:	52800000 	mov	w0, #0x0                   	// #0
    100e3740:	97fff732 	bl	100e1408 <cm_el1_sysregs_context_restore>
    100e3744:	52800000 	mov	w0, #0x0                   	// #0
    100e3748:	97fff780 	bl	100e1548 <cm_set_next_eret_context>
    100e374c:	2a1403e1 	mov	w1, w20
    100e3750:	d2804a02 	mov	x2, #0x250                 	// #592
    100e3754:	f9401320 	ldr	x0, [x25, #32]
    100e3758:	d503201f 	nop
    100e375c:	9b026821 	madd	x1, x1, x2, x26
    100e3760:	f9002020 	str	x0, [x1, #64]
    100e3764:	f9401720 	ldr	x0, [x25, #40]
    100e3768:	f9002420 	str	x0, [x1, #72]
    100e376c:	f9401b20 	ldr	x0, [x25, #48]
    100e3770:	f9002820 	str	x0, [x1, #80]
    100e3774:	f9401f20 	ldr	x0, [x25, #56]
    100e3778:	a9025835 	stp	x21, x22, [x1, #32]
    100e377c:	a9036037 	stp	x23, x24, [x1, #48]
    100e3780:	f9002c20 	str	x0, [x1, #88]
    100e3784:	aa1303e0 	mov	x0, x19
    100e3788:	a94153f3 	ldp	x19, x20, [sp, #16]
    100e378c:	a9425bf5 	ldp	x21, x22, [sp, #32]
    100e3790:	a94363f7 	ldp	x23, x24, [sp, #48]
    100e3794:	a9446bf9 	ldp	x25, x26, [sp, #64]
    100e3798:	a94573fb 	ldp	x27, x28, [sp, #80]
    100e379c:	a8c67bfd 	ldp	x29, x30, [sp], #96
    100e37a0:	d65f03c0 	ret
    100e37a4:	52a84000 	mov	w0, #0x42000000            	// #1107296256
    100e37a8:	0b0002b5 	add	w21, w21, w0
    100e37ac:	8b130353 	add	x19, x26, x19
    100e37b0:	710022bf 	cmp	w21, #0x8
    100e37b4:	540003c8 	b.hi	100e382c <opteed_smc_handler+0x1a4>  // b.pmore
    100e37b8:	90000020 	adrp	x0, 100e7000 <__TEXT_END__>
    100e37bc:	91208000 	add	x0, x0, #0x820
    100e37c0:	38754800 	ldrb	w0, [x0, w21, uxtw]
    100e37c4:	10000061 	adr	x1, 100e37d0 <opteed_smc_handler+0x148>
    100e37c8:	8b208820 	add	x0, x1, w0, sxtb #2
    100e37cc:	d61f0000 	br	x0
    100e37d0:	d0000040 	adrp	x0, 100ed000 <__STACKS_START__+0x3f80>
    100e37d4:	f9479001 	ldr	x1, [x0, #3872]
    100e37d8:	b4000061 	cbz	x1, 100e37e4 <opteed_smc_handler+0x15c>
    100e37dc:	52802361 	mov	w1, #0x11b                 	// #283
    100e37e0:	17ffffc4 	b	100e36f0 <opteed_smc_handler+0x68>
    100e37e4:	f9079016 	str	x22, [x0, #3872]
    100e37e8:	b40002d6 	cbz	x22, 100e3840 <opteed_smc_handler+0x1b8>
    100e37ec:	2a1403e1 	mov	w1, w20
    100e37f0:	d2804a14 	mov	x20, #0x250                 	// #592
    100e37f4:	9b147c21 	mul	x1, x1, x20
    100e37f8:	b8616b40 	ldr	w0, [x26, x1]
    100e37fc:	121e7400 	and	w0, w0, #0xfffffffc
    100e3800:	32000000 	orr	w0, w0, #0x1
    100e3804:	b8216b40 	str	w0, [x26, x1]
    100e3808:	90000020 	adrp	x0, 100e7000 <__TEXT_END__>
    100e380c:	9125a000 	add	x0, x0, #0x968
    100e3810:	97fffb2f 	bl	100e24cc <psci_register_spd_pm_hook>
    100e3814:	90000001 	adrp	x1, 100e3000 <psci_system_off+0x1c>
    100e3818:	91255021 	add	x1, x1, #0x954
    100e381c:	52800042 	mov	w2, #0x2                   	// #2
    100e3820:	52800000 	mov	w0, #0x0                   	// #0
    100e3824:	97fff55f 	bl	100e0da0 <register_interrupt_type_handler>
    100e3828:	340000c0 	cbz	w0, 100e3840 <opteed_smc_handler+0x1b8>
    100e382c:	90000020 	adrp	x0, 100e7000 <__TEXT_END__>
    100e3830:	9120a400 	add	x0, x0, #0x829
    100e3834:	9400028f 	bl	100e4270 <backtrace>
    100e3838:	9400022c 	bl	100e40e8 <console_flush>
    100e383c:	9400091a 	bl	100e5ca4 <do_panic>
    100e3840:	aa1603e1 	mov	x1, x22
    100e3844:	aa1303e0 	mov	x0, x19
    100e3848:	97ffff77 	bl	100e3624 <opteed_synchronous_sp_exit>
    100e384c:	52800000 	mov	w0, #0x0                   	// #0
    100e3850:	97fff57a 	bl	100e0e38 <cm_get_context>
    100e3854:	eb00033f 	cmp	x25, x0
    100e3858:	54000060 	b.eq	100e3864 <opteed_smc_handler+0x1dc>  // b.none
    100e385c:	52802d61 	mov	w1, #0x16b                 	// #363
    100e3860:	17ffffa4 	b	100e36f0 <opteed_smc_handler+0x68>
    100e3864:	52800000 	mov	w0, #0x0                   	// #0
    100e3868:	97fff6c4 	bl	100e1378 <cm_el1_sysregs_context_save>
    100e386c:	52800020 	mov	w0, #0x1                   	// #1
    100e3870:	97fff572 	bl	100e0e38 <cm_get_context>
    100e3874:	aa0003f3 	mov	x19, x0
    100e3878:	b5000060 	cbnz	x0, 100e3884 <opteed_smc_handler+0x1fc>
    100e387c:	52802e01 	mov	w1, #0x170                 	// #368
    100e3880:	17ffff9c 	b	100e36f0 <opteed_smc_handler+0x68>
    100e3884:	52800020 	mov	w0, #0x1                   	// #1
    100e3888:	97fff6e0 	bl	100e1408 <cm_el1_sysregs_context_restore>
    100e388c:	52800020 	mov	w0, #0x1                   	// #1
    100e3890:	97fff72e 	bl	100e1548 <cm_set_next_eret_context>
    100e3894:	a9005e76 	stp	x22, x23, [x19]
    100e3898:	a9016e78 	stp	x24, x27, [x19, #16]
    100e389c:	17ffffba 	b	100e3784 <opteed_smc_handler+0xfc>
    100e38a0:	52800020 	mov	w0, #0x1                   	// #1
    100e38a4:	97fff565 	bl	100e0e38 <cm_get_context>
    100e38a8:	aa0003f3 	mov	x19, x0
    100e38ac:	b5000060 	cbnz	x0, 100e38b8 <opteed_smc_handler+0x230>
    100e38b0:	52802fe1 	mov	w1, #0x17f                 	// #383
    100e38b4:	17ffff8f 	b	100e36f0 <opteed_smc_handler+0x68>
    100e38b8:	52800020 	mov	w0, #0x1                   	// #1
    100e38bc:	97fff6d3 	bl	100e1408 <cm_el1_sysregs_context_restore>
    100e38c0:	52800020 	mov	w0, #0x1                   	// #1
    100e38c4:	97fff721 	bl	100e1548 <cm_set_next_eret_context>
    100e38c8:	17ffffaf 	b	100e3784 <opteed_smc_handler+0xfc>

00000000100e38cc <opteed_setup>:
    100e38cc:	a9be7bfd 	stp	x29, x30, [sp, #-32]!
    100e38d0:	910003fd 	mov	x29, sp
    100e38d4:	f9000bf3 	str	x19, [sp, #16]
    100e38d8:	94000684 	bl	100e52e8 <plat_my_core_pos>
    100e38dc:	2a0003f3 	mov	w19, w0
    100e38e0:	52800000 	mov	w0, #0x0                   	// #0
    100e38e4:	97fff238 	bl	100e01c4 <bl31_plat_get_next_image_ep_info>
    100e38e8:	b50000c0 	cbnz	x0, 100e3900 <opteed_setup+0x34>
    100e38ec:	90000020 	adrp	x0, 100e7000 <__TEXT_END__>
    100e38f0:	9120f000 	add	x0, x0, #0x83c
    100e38f4:	9400016f 	bl	100e3eb0 <tf_log>
    100e38f8:	52800020 	mov	w0, #0x1                   	// #1
    100e38fc:	14000013 	b	100e3948 <opteed_setup+0x7c>
    100e3900:	f9400402 	ldr	x2, [x0, #8]
    100e3904:	b4ffffa2 	cbz	x2, 100e38f8 <opteed_setup+0x2c>
    100e3908:	d0000044 	adrp	x4, 100ed000 <__STACKS_START__+0x3f80>
    100e390c:	52804a06 	mov	w6, #0x250                 	// #592
    100e3910:	f9400c01 	ldr	x1, [x0, #24]
    100e3914:	b90f2881 	str	w1, [x4, #3880]
    100e3918:	d0000044 	adrp	x4, 100ed000 <__STACKS_START__+0x3f80>
    100e391c:	913cc084 	add	x4, x4, #0xf30
    100e3920:	f9401003 	ldr	x3, [x0, #32]
    100e3924:	d503201f 	nop
    100e3928:	9ba61266 	umaddl	x6, w19, w6, x4
    100e392c:	f9401404 	ldr	x4, [x0, #40]
    100e3930:	f9401805 	ldr	x5, [x0, #48]
    100e3934:	97fffeea 	bl	100e34dc <opteed_init_optee_ep_state>
    100e3938:	90000000 	adrp	x0, 100e3000 <psci_system_off+0x1c>
    100e393c:	91288000 	add	x0, x0, #0xa20
    100e3940:	97fff4b9 	bl	100e0c24 <bl31_register_bl32_init>
    100e3944:	52800000 	mov	w0, #0x0                   	// #0
    100e3948:	f9400bf3 	ldr	x19, [sp, #16]
    100e394c:	a8c27bfd 	ldp	x29, x30, [sp], #32
    100e3950:	d65f03c0 	ret

00000000100e3954 <opteed_sel1_interrupt_handler>:
    100e3954:	a9bd7bfd 	stp	x29, x30, [sp, #-48]!
    100e3958:	7200003f 	tst	w1, #0x1
    100e395c:	910003fd 	mov	x29, sp
    100e3960:	a90153f3 	stp	x19, x20, [sp, #16]
    100e3964:	f90013f5 	str	x21, [sp, #32]
    100e3968:	540000a1 	b.ne	100e397c <opteed_sel1_interrupt_handler+0x28>  // b.any
    100e396c:	528007c1 	mov	w1, #0x3e                  	// #62
    100e3970:	90000020 	adrp	x0, 100e7000 <__TEXT_END__>
    100e3974:	9122f800 	add	x0, x0, #0x8be
    100e3978:	94000a1d 	bl	100e61ec <__assert>
    100e397c:	aa0203f3 	mov	x19, x2
    100e3980:	52800020 	mov	w0, #0x1                   	// #1
    100e3984:	97fff52d 	bl	100e0e38 <cm_get_context>
    100e3988:	eb00027f 	cmp	x19, x0
    100e398c:	54000060 	b.eq	100e3998 <opteed_sel1_interrupt_handler+0x44>  // b.none
    100e3990:	52800821 	mov	w1, #0x41                  	// #65
    100e3994:	17fffff7 	b	100e3970 <opteed_sel1_interrupt_handler+0x1c>
    100e3998:	52800020 	mov	w0, #0x1                   	// #1
    100e399c:	97fff677 	bl	100e1378 <cm_el1_sysregs_context_save>
    100e39a0:	52804a13 	mov	w19, #0x250                 	// #592
    100e39a4:	d0000055 	adrp	x21, 100ed000 <__STACKS_START__+0x3f80>
    100e39a8:	913cc2b5 	add	x21, x21, #0xf30
    100e39ac:	9400064f 	bl	100e52e8 <plat_my_core_pos>
    100e39b0:	2a0003f4 	mov	w20, w0
    100e39b4:	d2800400 	mov	x0, #0x20                  	// #32
    100e39b8:	9bb30293 	umaddl	x19, w20, w19, x0
    100e39bc:	52800000 	mov	w0, #0x0                   	// #0
    100e39c0:	97fff51e 	bl	100e0e38 <cm_get_context>
    100e39c4:	8b150273 	add	x19, x19, x21
    100e39c8:	eb00027f 	cmp	x19, x0
    100e39cc:	54000060 	b.eq	100e39d8 <opteed_sel1_interrupt_handler+0x84>  // b.none
    100e39d0:	52800921 	mov	w1, #0x49                  	// #73
    100e39d4:	17ffffe7 	b	100e3970 <opteed_sel1_interrupt_handler+0x1c>
    100e39d8:	d0000040 	adrp	x0, 100ed000 <__STACKS_START__+0x3f80>
    100e39dc:	f9479001 	ldr	x1, [x0, #3872]
    100e39e0:	52800000 	mov	w0, #0x0                   	// #0
    100e39e4:	91006021 	add	x1, x1, #0x18
    100e39e8:	97fff6ac 	bl	100e1498 <cm_set_elr_el3>
    100e39ec:	52800000 	mov	w0, #0x0                   	// #0
    100e39f0:	97fff686 	bl	100e1408 <cm_el1_sysregs_context_restore>
    100e39f4:	52800000 	mov	w0, #0x0                   	// #0
    100e39f8:	97fff6d4 	bl	100e1548 <cm_set_next_eret_context>
    100e39fc:	d53e4020 	mrs	x0, elr_el3
    100e3a00:	d2804a01 	mov	x1, #0x250                 	// #592
    100e3a04:	9b015694 	madd	x20, x20, x1, x21
    100e3a08:	f94013f5 	ldr	x21, [sp, #32]
    100e3a0c:	f9001280 	str	x0, [x20, #32]
    100e3a10:	aa1303e0 	mov	x0, x19
    100e3a14:	a94153f3 	ldp	x19, x20, [sp, #16]
    100e3a18:	a8c37bfd 	ldp	x29, x30, [sp], #48
    100e3a1c:	d65f03c0 	ret

00000000100e3a20 <opteed_init>:
    100e3a20:	a9be7bfd 	stp	x29, x30, [sp, #-32]!
    100e3a24:	910003fd 	mov	x29, sp
    100e3a28:	f9000bf3 	str	x19, [sp, #16]
    100e3a2c:	9400062f 	bl	100e52e8 <plat_my_core_pos>
    100e3a30:	d0000041 	adrp	x1, 100ed000 <__STACKS_START__+0x3f80>
    100e3a34:	913cc021 	add	x1, x1, #0xf30
    100e3a38:	52804a13 	mov	w19, #0x250                 	// #592
    100e3a3c:	9bb30413 	umaddl	x19, w0, w19, x1
    100e3a40:	52800000 	mov	w0, #0x0                   	// #0
    100e3a44:	97fff1e0 	bl	100e01c4 <bl31_plat_get_next_image_ep_info>
    100e3a48:	b50000a0 	cbnz	x0, 100e3a5c <opteed_init+0x3c>
    100e3a4c:	52801501 	mov	w1, #0xa8                  	// #168
    100e3a50:	90000020 	adrp	x0, 100e7000 <__TEXT_END__>
    100e3a54:	9122f800 	add	x0, x0, #0x8be
    100e3a58:	940009e5 	bl	100e61ec <__assert>
    100e3a5c:	97fff63c 	bl	100e134c <cm_init_my_context>
    100e3a60:	aa1303e0 	mov	x0, x19
    100e3a64:	97fffed2 	bl	100e35ac <opteed_synchronous_sp_entry>
    100e3a68:	b5000060 	cbnz	x0, 100e3a74 <opteed_init+0x54>
    100e3a6c:	52801621 	mov	w1, #0xb1                  	// #177
    100e3a70:	17fffff8 	b	100e3a50 <opteed_init+0x30>
    100e3a74:	f9400bf3 	ldr	x19, [sp, #16]
    100e3a78:	a8c27bfd 	ldp	x29, x30, [sp], #32
    100e3a7c:	d65f03c0 	ret

00000000100e3a80 <opteed_cpu_on_handler>:
    100e3a80:	d65f03c0 	ret

00000000100e3a84 <opteed_cpu_migrate_info>:
    100e3a84:	52800040 	mov	w0, #0x2                   	// #2
    100e3a88:	d65f03c0 	ret

00000000100e3a8c <opteed_system_reset>:
    100e3a8c:	a9be7bfd 	stp	x29, x30, [sp, #-32]!
    100e3a90:	910003fd 	mov	x29, sp
    100e3a94:	f9000bf3 	str	x19, [sp, #16]
    100e3a98:	94000614 	bl	100e52e8 <plat_my_core_pos>
    100e3a9c:	d0000041 	adrp	x1, 100ed000 <__STACKS_START__+0x3f80>
    100e3aa0:	f9479021 	ldr	x1, [x1, #3872]
    100e3aa4:	d0000042 	adrp	x2, 100ed000 <__STACKS_START__+0x3f80>
    100e3aa8:	913cc042 	add	x2, x2, #0xf30
    100e3aac:	52804a13 	mov	w19, #0x250                 	// #592
    100e3ab0:	9bb30813 	umaddl	x19, w0, w19, x2
    100e3ab4:	b50000a1 	cbnz	x1, 100e3ac8 <opteed_system_reset+0x3c>
    100e3ab8:	52801881 	mov	w1, #0xc4                  	// #196
    100e3abc:	90000020 	adrp	x0, 100e7000 <__TEXT_END__>
    100e3ac0:	9126c000 	add	x0, x0, #0x9b0
    100e3ac4:	940009ca 	bl	100e61ec <__assert>
    100e3ac8:	2a0003e0 	mov	w0, w0
    100e3acc:	d2804a03 	mov	x3, #0x250                 	// #592
    100e3ad0:	9b037c00 	mul	x0, x0, x3
    100e3ad4:	b8606840 	ldr	w0, [x2, x0]
    100e3ad8:	12000400 	and	w0, w0, #0x3
    100e3adc:	7100041f 	cmp	w0, #0x1
    100e3ae0:	54000060 	b.eq	100e3aec <opteed_system_reset+0x60>  // b.none
    100e3ae4:	528018a1 	mov	w1, #0xc5                  	// #197
    100e3ae8:	17fffff5 	b	100e3abc <opteed_system_reset+0x30>
    100e3aec:	91008021 	add	x1, x1, #0x20
    100e3af0:	52800000 	mov	w0, #0x0                   	// #0
    100e3af4:	97fff669 	bl	100e1498 <cm_set_elr_el3>
    100e3af8:	aa1303e0 	mov	x0, x19
    100e3afc:	f9400bf3 	ldr	x19, [sp, #16]
    100e3b00:	a8c27bfd 	ldp	x29, x30, [sp], #32
    100e3b04:	17fffeaa 	b	100e35ac <opteed_synchronous_sp_entry>

00000000100e3b08 <opteed_system_off>:
    100e3b08:	a9be7bfd 	stp	x29, x30, [sp, #-32]!
    100e3b0c:	910003fd 	mov	x29, sp
    100e3b10:	f9000bf3 	str	x19, [sp, #16]
    100e3b14:	940005f5 	bl	100e52e8 <plat_my_core_pos>
    100e3b18:	d0000041 	adrp	x1, 100ed000 <__STACKS_START__+0x3f80>
    100e3b1c:	f9479021 	ldr	x1, [x1, #3872]
    100e3b20:	d0000042 	adrp	x2, 100ed000 <__STACKS_START__+0x3f80>
    100e3b24:	913cc042 	add	x2, x2, #0xf30
    100e3b28:	52804a13 	mov	w19, #0x250                 	// #592
    100e3b2c:	9bb30813 	umaddl	x19, w0, w19, x2
    100e3b30:	b50000a1 	cbnz	x1, 100e3b44 <opteed_system_off+0x3c>
    100e3b34:	52801601 	mov	w1, #0xb0                  	// #176
    100e3b38:	90000020 	adrp	x0, 100e7000 <__TEXT_END__>
    100e3b3c:	9126c000 	add	x0, x0, #0x9b0
    100e3b40:	940009ab 	bl	100e61ec <__assert>
    100e3b44:	2a0003e0 	mov	w0, w0
    100e3b48:	d2804a03 	mov	x3, #0x250                 	// #592
    100e3b4c:	9b037c00 	mul	x0, x0, x3
    100e3b50:	b8606840 	ldr	w0, [x2, x0]
    100e3b54:	12000400 	and	w0, w0, #0x3
    100e3b58:	7100041f 	cmp	w0, #0x1
    100e3b5c:	54000060 	b.eq	100e3b68 <opteed_system_off+0x60>  // b.none
    100e3b60:	52801621 	mov	w1, #0xb1                  	// #177
    100e3b64:	17fffff5 	b	100e3b38 <opteed_system_off+0x30>
    100e3b68:	91007021 	add	x1, x1, #0x1c
    100e3b6c:	52800000 	mov	w0, #0x0                   	// #0
    100e3b70:	97fff64a 	bl	100e1498 <cm_set_elr_el3>
    100e3b74:	aa1303e0 	mov	x0, x19
    100e3b78:	f9400bf3 	ldr	x19, [sp, #16]
    100e3b7c:	a8c27bfd 	ldp	x29, x30, [sp], #32
    100e3b80:	17fffe8b 	b	100e35ac <opteed_synchronous_sp_entry>

00000000100e3b84 <opteed_cpu_suspend_finish_handler>:
    100e3b84:	a9bd7bfd 	stp	x29, x30, [sp, #-48]!
    100e3b88:	910003fd 	mov	x29, sp
    100e3b8c:	a90153f3 	stp	x19, x20, [sp, #16]
    100e3b90:	d0000054 	adrp	x20, 100ed000 <__STACKS_START__+0x3f80>
    100e3b94:	913cc294 	add	x20, x20, #0xf30
    100e3b98:	a9025bf5 	stp	x21, x22, [sp, #32]
    100e3b9c:	aa0003f6 	mov	x22, x0
    100e3ba0:	940005d2 	bl	100e52e8 <plat_my_core_pos>
    100e3ba4:	d0000041 	adrp	x1, 100ed000 <__STACKS_START__+0x3f80>
    100e3ba8:	f9479021 	ldr	x1, [x1, #3872]
    100e3bac:	52804a15 	mov	w21, #0x250                 	// #592
    100e3bb0:	9bb55015 	umaddl	x21, w0, w21, x20
    100e3bb4:	b50000a1 	cbnz	x1, 100e3bc8 <opteed_cpu_suspend_finish_handler+0x44>
    100e3bb8:	52801121 	mov	w1, #0x89                  	// #137
    100e3bbc:	90000020 	adrp	x0, 100e7000 <__TEXT_END__>
    100e3bc0:	9126c000 	add	x0, x0, #0x9b0
    100e3bc4:	9400098a 	bl	100e61ec <__assert>
    100e3bc8:	2a0003e0 	mov	w0, w0
    100e3bcc:	d2804a13 	mov	x19, #0x250                 	// #592
    100e3bd0:	9b137c13 	mul	x19, x0, x19
    100e3bd4:	8b130282 	add	x2, x20, x19
    100e3bd8:	b8736a80 	ldr	w0, [x20, x19]
    100e3bdc:	12000400 	and	w0, w0, #0x3
    100e3be0:	7100081f 	cmp	w0, #0x2
    100e3be4:	54000060 	b.eq	100e3bf0 <opteed_cpu_suspend_finish_handler+0x6c>  // b.none
    100e3be8:	52801141 	mov	w1, #0x8a                  	// #138
    100e3bec:	17fffff4 	b	100e3bbc <opteed_cpu_suspend_finish_handler+0x38>
    100e3bf0:	91004021 	add	x1, x1, #0x10
    100e3bf4:	f9001056 	str	x22, [x2, #32]
    100e3bf8:	52800000 	mov	w0, #0x0                   	// #0
    100e3bfc:	97fff627 	bl	100e1498 <cm_set_elr_el3>
    100e3c00:	aa1503e0 	mov	x0, x21
    100e3c04:	97fffe6a 	bl	100e35ac <opteed_synchronous_sp_entry>
    100e3c08:	340000c0 	cbz	w0, 100e3c20 <opteed_cpu_suspend_finish_handler+0x9c>
    100e3c0c:	90000020 	adrp	x0, 100e7000 <__TEXT_END__>
    100e3c10:	91251800 	add	x0, x0, #0x946
    100e3c14:	94000197 	bl	100e4270 <backtrace>
    100e3c18:	94000134 	bl	100e40e8 <console_flush>
    100e3c1c:	94000822 	bl	100e5ca4 <do_panic>
    100e3c20:	b8736a80 	ldr	w0, [x20, x19]
    100e3c24:	a9425bf5 	ldp	x21, x22, [sp, #32]
    100e3c28:	121e7400 	and	w0, w0, #0xfffffffc
    100e3c2c:	32000000 	orr	w0, w0, #0x1
    100e3c30:	b8336a80 	str	w0, [x20, x19]
    100e3c34:	a94153f3 	ldp	x19, x20, [sp, #16]
    100e3c38:	a8c37bfd 	ldp	x29, x30, [sp], #48
    100e3c3c:	d65f03c0 	ret

00000000100e3c40 <opteed_cpu_suspend_handler>:
    100e3c40:	a9bd7bfd 	stp	x29, x30, [sp, #-48]!
    100e3c44:	910003fd 	mov	x29, sp
    100e3c48:	a90153f3 	stp	x19, x20, [sp, #16]
    100e3c4c:	d0000054 	adrp	x20, 100ed000 <__STACKS_START__+0x3f80>
    100e3c50:	913cc294 	add	x20, x20, #0xf30
    100e3c54:	a9025bf5 	stp	x21, x22, [sp, #32]
    100e3c58:	aa0003f6 	mov	x22, x0
    100e3c5c:	940005a3 	bl	100e52e8 <plat_my_core_pos>
    100e3c60:	d0000041 	adrp	x1, 100ed000 <__STACKS_START__+0x3f80>
    100e3c64:	f9479021 	ldr	x1, [x1, #3872]
    100e3c68:	52804a15 	mov	w21, #0x250                 	// #592
    100e3c6c:	9bb55015 	umaddl	x21, w0, w21, x20
    100e3c70:	b50000a1 	cbnz	x1, 100e3c84 <opteed_cpu_suspend_handler+0x44>
    100e3c74:	52800881 	mov	w1, #0x44                  	// #68
    100e3c78:	90000020 	adrp	x0, 100e7000 <__TEXT_END__>
    100e3c7c:	9126c000 	add	x0, x0, #0x9b0
    100e3c80:	9400095b 	bl	100e61ec <__assert>
    100e3c84:	2a0003e0 	mov	w0, w0
    100e3c88:	d2804a13 	mov	x19, #0x250                 	// #592
    100e3c8c:	9b137c13 	mul	x19, x0, x19
    100e3c90:	8b130282 	add	x2, x20, x19
    100e3c94:	b8736a80 	ldr	w0, [x20, x19]
    100e3c98:	12000400 	and	w0, w0, #0x3
    100e3c9c:	7100041f 	cmp	w0, #0x1
    100e3ca0:	54000060 	b.eq	100e3cac <opteed_cpu_suspend_handler+0x6c>  // b.none
    100e3ca4:	528008a1 	mov	w1, #0x45                  	// #69
    100e3ca8:	17fffff4 	b	100e3c78 <opteed_cpu_suspend_handler+0x38>
    100e3cac:	91005021 	add	x1, x1, #0x14
    100e3cb0:	f9001056 	str	x22, [x2, #32]
    100e3cb4:	52800000 	mov	w0, #0x0                   	// #0
    100e3cb8:	97fff5f8 	bl	100e1498 <cm_set_elr_el3>
    100e3cbc:	aa1503e0 	mov	x0, x21
    100e3cc0:	97fffe3b 	bl	100e35ac <opteed_synchronous_sp_entry>
    100e3cc4:	340000c0 	cbz	w0, 100e3cdc <opteed_cpu_suspend_handler+0x9c>
    100e3cc8:	90000020 	adrp	x0, 100e7000 <__TEXT_END__>
    100e3ccc:	91243800 	add	x0, x0, #0x90e
    100e3cd0:	94000168 	bl	100e4270 <backtrace>
    100e3cd4:	94000105 	bl	100e40e8 <console_flush>
    100e3cd8:	940007f3 	bl	100e5ca4 <do_panic>
    100e3cdc:	b8736a80 	ldr	w0, [x20, x19]
    100e3ce0:	a9425bf5 	ldp	x21, x22, [sp, #32]
    100e3ce4:	121e7400 	and	w0, w0, #0xfffffffc
    100e3ce8:	321f0000 	orr	w0, w0, #0x2
    100e3cec:	b8336a80 	str	w0, [x20, x19]
    100e3cf0:	a94153f3 	ldp	x19, x20, [sp, #16]
    100e3cf4:	a8c37bfd 	ldp	x29, x30, [sp], #48
    100e3cf8:	d65f03c0 	ret

00000000100e3cfc <opteed_cpu_off_handler>:
    100e3cfc:	a9bd7bfd 	stp	x29, x30, [sp, #-48]!
    100e3d00:	910003fd 	mov	x29, sp
    100e3d04:	a90153f3 	stp	x19, x20, [sp, #16]
    100e3d08:	d0000054 	adrp	x20, 100ed000 <__STACKS_START__+0x3f80>
    100e3d0c:	913cc294 	add	x20, x20, #0xf30
    100e3d10:	f90013f5 	str	x21, [sp, #32]
    100e3d14:	94000575 	bl	100e52e8 <plat_my_core_pos>
    100e3d18:	d0000041 	adrp	x1, 100ed000 <__STACKS_START__+0x3f80>
    100e3d1c:	f9479021 	ldr	x1, [x1, #3872]
    100e3d20:	52804a15 	mov	w21, #0x250                 	// #592
    100e3d24:	9bb55015 	umaddl	x21, w0, w21, x20
    100e3d28:	b50000a1 	cbnz	x1, 100e3d3c <opteed_cpu_off_handler+0x40>
    100e3d2c:	52800461 	mov	w1, #0x23                  	// #35
    100e3d30:	90000020 	adrp	x0, 100e7000 <__TEXT_END__>
    100e3d34:	9126c000 	add	x0, x0, #0x9b0
    100e3d38:	9400092d 	bl	100e61ec <__assert>
    100e3d3c:	2a0003e0 	mov	w0, w0
    100e3d40:	d2804a13 	mov	x19, #0x250                 	// #592
    100e3d44:	9b137c13 	mul	x19, x0, x19
    100e3d48:	b8736a80 	ldr	w0, [x20, x19]
    100e3d4c:	12000400 	and	w0, w0, #0x3
    100e3d50:	7100041f 	cmp	w0, #0x1
    100e3d54:	54000060 	b.eq	100e3d60 <opteed_cpu_off_handler+0x64>  // b.none
    100e3d58:	52800481 	mov	w1, #0x24                  	// #36
    100e3d5c:	17fffff5 	b	100e3d30 <opteed_cpu_off_handler+0x34>
    100e3d60:	91003021 	add	x1, x1, #0xc
    100e3d64:	52800000 	mov	w0, #0x0                   	// #0
    100e3d68:	97fff5cc 	bl	100e1498 <cm_set_elr_el3>
    100e3d6c:	aa1503e0 	mov	x0, x21
    100e3d70:	97fffe0f 	bl	100e35ac <opteed_synchronous_sp_entry>
    100e3d74:	340000c0 	cbz	w0, 100e3d8c <opteed_cpu_off_handler+0x90>
    100e3d78:	90000020 	adrp	x0, 100e7000 <__TEXT_END__>
    100e3d7c:	9123dc00 	add	x0, x0, #0x8f7
    100e3d80:	9400013c 	bl	100e4270 <backtrace>
    100e3d84:	940000d9 	bl	100e40e8 <console_flush>
    100e3d88:	940007c7 	bl	100e5ca4 <do_panic>
    100e3d8c:	b8736a80 	ldr	w0, [x20, x19]
    100e3d90:	f94013f5 	ldr	x21, [sp, #32]
    100e3d94:	121e7400 	and	w0, w0, #0xfffffffc
    100e3d98:	b8336a80 	str	w0, [x20, x19]
    100e3d9c:	52800000 	mov	w0, #0x0                   	// #0
    100e3da0:	a94153f3 	ldp	x19, x20, [sp, #16]
    100e3da4:	a8c37bfd 	ldp	x29, x30, [sp], #48
    100e3da8:	d65f03c0 	ret

00000000100e3dac <opteed_cpu_on_finish_handler>:
    100e3dac:	a9b77bfd 	stp	x29, x30, [sp, #-144]!
    100e3db0:	910003fd 	mov	x29, sp
    100e3db4:	a90153f3 	stp	x19, x20, [sp, #16]
    100e3db8:	d0000054 	adrp	x20, 100ed000 <__STACKS_START__+0x3f80>
    100e3dbc:	913cc294 	add	x20, x20, #0xf30
    100e3dc0:	f90013f5 	str	x21, [sp, #32]
    100e3dc4:	94000549 	bl	100e52e8 <plat_my_core_pos>
    100e3dc8:	d0000041 	adrp	x1, 100ed000 <__STACKS_START__+0x3f80>
    100e3dcc:	f9479022 	ldr	x2, [x1, #3872]
    100e3dd0:	52804a15 	mov	w21, #0x250                 	// #592
    100e3dd4:	9bb55015 	umaddl	x21, w0, w21, x20
    100e3dd8:	b50000a2 	cbnz	x2, 100e3dec <opteed_cpu_on_finish_handler+0x40>
    100e3ddc:	52800cc1 	mov	w1, #0x66                  	// #102
    100e3de0:	90000020 	adrp	x0, 100e7000 <__TEXT_END__>
    100e3de4:	9126c000 	add	x0, x0, #0x9b0
    100e3de8:	94000901 	bl	100e61ec <__assert>
    100e3dec:	2a0003e0 	mov	w0, w0
    100e3df0:	d2804a13 	mov	x19, #0x250                 	// #592
    100e3df4:	9b137c13 	mul	x19, x0, x19
    100e3df8:	b8736a80 	ldr	w0, [x20, x19]
    100e3dfc:	f240041f 	tst	x0, #0x3
    100e3e00:	54000060 	b.eq	100e3e0c <opteed_cpu_on_finish_handler+0x60>  // b.none
    100e3e04:	52800ce1 	mov	w1, #0x67                  	// #103
    100e3e08:	17fffff6 	b	100e3de0 <opteed_cpu_on_finish_handler+0x34>
    100e3e0c:	d0000040 	adrp	x0, 100ed000 <__STACKS_START__+0x3f80>
    100e3e10:	b94f2801 	ldr	w1, [x0, #3880]
    100e3e14:	aa1503e6 	mov	x6, x21
    100e3e18:	91002042 	add	x2, x2, #0x8
    100e3e1c:	d2800005 	mov	x5, #0x0                   	// #0
    100e3e20:	d2800004 	mov	x4, #0x0                   	// #0
    100e3e24:	d2800003 	mov	x3, #0x0                   	// #0
    100e3e28:	9100e3e0 	add	x0, sp, #0x38
    100e3e2c:	97fffdac 	bl	100e34dc <opteed_init_optee_ep_state>
    100e3e30:	9100e3e0 	add	x0, sp, #0x38
    100e3e34:	97fff546 	bl	100e134c <cm_init_my_context>
    100e3e38:	aa1503e0 	mov	x0, x21
    100e3e3c:	97fffddc 	bl	100e35ac <opteed_synchronous_sp_entry>
    100e3e40:	340000c0 	cbz	w0, 100e3e58 <opteed_cpu_on_finish_handler+0xac>
    100e3e44:	90000020 	adrp	x0, 100e7000 <__TEXT_END__>
    100e3e48:	9124a400 	add	x0, x0, #0x929
    100e3e4c:	94000109 	bl	100e4270 <backtrace>
    100e3e50:	940000a6 	bl	100e40e8 <console_flush>
    100e3e54:	94000794 	bl	100e5ca4 <do_panic>
    100e3e58:	b8736a80 	ldr	w0, [x20, x19]
    100e3e5c:	f94013f5 	ldr	x21, [sp, #32]
    100e3e60:	121e7400 	and	w0, w0, #0xfffffffc
    100e3e64:	32000000 	orr	w0, w0, #0x1
    100e3e68:	b8336a80 	str	w0, [x20, x19]
    100e3e6c:	a94153f3 	ldp	x19, x20, [sp, #16]
    100e3e70:	a8c97bfd 	ldp	x29, x30, [sp], #144
    100e3e74:	d65f03c0 	ret

00000000100e3e78 <print_entry_point_info>:
    100e3e78:	a9be7bfd 	stp	x29, x30, [sp, #-32]!
    100e3e7c:	910003fd 	mov	x29, sp
    100e3e80:	f9000bf3 	str	x19, [sp, #16]
    100e3e84:	aa0003f3 	mov	x19, x0
    100e3e88:	90000020 	adrp	x0, 100e7000 <__TEXT_END__>
    100e3e8c:	91274000 	add	x0, x0, #0x9d0
    100e3e90:	f9400661 	ldr	x1, [x19, #8]
    100e3e94:	94000007 	bl	100e3eb0 <tf_log>
    100e3e98:	b9401261 	ldr	w1, [x19, #16]
    100e3e9c:	90000020 	adrp	x0, 100e7000 <__TEXT_END__>
    100e3ea0:	9127b800 	add	x0, x0, #0x9ee
    100e3ea4:	f9400bf3 	ldr	x19, [sp, #16]
    100e3ea8:	a8c27bfd 	ldp	x29, x30, [sp], #32
    100e3eac:	14000001 	b	100e3eb0 <tf_log>

00000000100e3eb0 <tf_log>:
    100e3eb0:	a9b67bfd 	stp	x29, x30, [sp, #-160]!
    100e3eb4:	910003fd 	mov	x29, sp
    100e3eb8:	a90153f3 	stp	x19, x20, [sp, #16]
    100e3ebc:	aa0003f4 	mov	x20, x0
    100e3ec0:	a9068be1 	stp	x1, x2, [sp, #104]
    100e3ec4:	a90793e3 	stp	x3, x4, [sp, #120]
    100e3ec8:	a9089be5 	stp	x5, x6, [sp, #136]
    100e3ecc:	f9004fe7 	str	x7, [sp, #152]
    100e3ed0:	39400000 	ldrb	w0, [x0]
    100e3ed4:	51000401 	sub	w1, w0, #0x1
    100e3ed8:	7100c43f 	cmp	w1, #0x31
    100e3edc:	540000a9 	b.ls	100e3ef0 <tf_log+0x40>  // b.plast
    100e3ee0:	52800441 	mov	w1, #0x22                  	// #34
    100e3ee4:	90000020 	adrp	x0, 100e7000 <__TEXT_END__>
    100e3ee8:	9127f000 	add	x0, x0, #0x9fc
    100e3eec:	940008c0 	bl	100e61ec <__assert>
    100e3ef0:	52800142 	mov	w2, #0xa                   	// #10
    100e3ef4:	1ac20801 	udiv	w1, w0, w2
    100e3ef8:	1b028021 	msub	w1, w1, w2, w0
    100e3efc:	34000061 	cbz	w1, 100e3f08 <tf_log+0x58>
    100e3f00:	52800461 	mov	w1, #0x23                  	// #35
    100e3f04:	17fffff8 	b	100e3ee4 <tf_log+0x34>
    100e3f08:	d0000021 	adrp	x1, 100e9000 <__RODATA_END__>
    100e3f0c:	b9400821 	ldr	w1, [x1, #8]
    100e3f10:	6b00003f 	cmp	w1, w0
    100e3f14:	54000263 	b.cc	100e3f60 <tf_log+0xb0>  // b.lo, b.ul, b.last
    100e3f18:	9400008f 	bl	100e4154 <plat_log_get_prefix>
    100e3f1c:	aa0003f3 	mov	x19, x0
    100e3f20:	39400260 	ldrb	w0, [x19]
    100e3f24:	35000240 	cbnz	w0, 100e3f6c <tf_log+0xbc>
    100e3f28:	910283e0 	add	x0, sp, #0xa0
    100e3f2c:	a90403e0 	stp	x0, x0, [sp, #64]
    100e3f30:	910183e0 	add	x0, sp, #0x60
    100e3f34:	f9002be0 	str	x0, [sp, #80]
    100e3f38:	128006e0 	mov	w0, #0xffffffc8            	// #-56
    100e3f3c:	b9005be0 	str	w0, [sp, #88]
    100e3f40:	b9005fff 	str	wzr, [sp, #92]
    100e3f44:	a94407e0 	ldp	x0, x1, [sp, #64]
    100e3f48:	a90207e0 	stp	x0, x1, [sp, #32]
    100e3f4c:	a94507e0 	ldp	x0, x1, [sp, #80]
    100e3f50:	a90307e0 	stp	x0, x1, [sp, #48]
    100e3f54:	910083e1 	add	x1, sp, #0x20
    100e3f58:	91000680 	add	x0, x20, #0x1
    100e3f5c:	940008fd 	bl	100e6350 <vprintf>
    100e3f60:	a94153f3 	ldp	x19, x20, [sp, #16]
    100e3f64:	a8ca7bfd 	ldp	x29, x30, [sp], #160
    100e3f68:	d65f03c0 	ret
    100e3f6c:	94000a12 	bl	100e67b4 <putchar>
    100e3f70:	91000673 	add	x19, x19, #0x1
    100e3f74:	17ffffeb 	b	100e3f20 <tf_log+0x70>

00000000100e3f78 <console_is_registered>:
    100e3f78:	b50000e0 	cbnz	x0, 100e3f94 <console_is_registered+0x1c>
    100e3f7c:	a9bf7bfd 	stp	x29, x30, [sp, #-16]!
    100e3f80:	90000020 	adrp	x0, 100e7000 <__TEXT_END__>
    100e3f84:	91283000 	add	x0, x0, #0xa0c
    100e3f88:	910003fd 	mov	x29, sp
    100e3f8c:	52800681 	mov	w1, #0x34                  	// #52
    100e3f90:	94000897 	bl	100e61ec <__assert>
    100e3f94:	f0000041 	adrp	x1, 100ee000 <opteed_sp_context+0xd0>
    100e3f98:	f9443821 	ldr	x1, [x1, #2160]
    100e3f9c:	b5000061 	cbnz	x1, 100e3fa8 <console_is_registered+0x30>
    100e3fa0:	52800000 	mov	w0, #0x0                   	// #0
    100e3fa4:	d65f03c0 	ret
    100e3fa8:	eb00003f 	cmp	x1, x0
    100e3fac:	54000060 	b.eq	100e3fb8 <console_is_registered+0x40>  // b.none
    100e3fb0:	f9400021 	ldr	x1, [x1]
    100e3fb4:	17fffffa 	b	100e3f9c <console_is_registered+0x24>
    100e3fb8:	52800020 	mov	w0, #0x1                   	// #1
    100e3fbc:	d65f03c0 	ret

00000000100e3fc0 <console_register>:
    100e3fc0:	a9be7bfd 	stp	x29, x30, [sp, #-32]!
    100e3fc4:	910003fd 	mov	x29, sp
    100e3fc8:	f9000bf3 	str	x19, [sp, #16]
    100e3fcc:	aa0003f3 	mov	x19, x0
    100e3fd0:	d0000020 	adrp	x0, 100e9000 <__RODATA_END__>
    100e3fd4:	91020000 	add	x0, x0, #0x80
    100e3fd8:	eb00027f 	cmp	x19, x0
    100e3fdc:	54000123 	b.cc	100e4000 <console_register+0x40>  // b.lo, b.ul, b.last
    100e3fe0:	d0000040 	adrp	x0, 100ed000 <__STACKS_START__+0x3f80>
    100e3fe4:	91020000 	add	x0, x0, #0x80
    100e3fe8:	eb00027f 	cmp	x19, x0
    100e3fec:	540000a2 	b.cs	100e4000 <console_register+0x40>  // b.hs, b.nlast
    100e3ff0:	528002c1 	mov	w1, #0x16                  	// #22
    100e3ff4:	90000020 	adrp	x0, 100e7000 <__TEXT_END__>
    100e3ff8:	91283000 	add	x0, x0, #0xa0c
